
build_gd32/main.elf:     file format elf32-littlearm


Disassembly of section .vectors:

08000000 <__gVectors>:
 8000000:	10010000 	andne	r0, r1, r0
 8000004:	08000789 	stmdaeq	r0, {r0, r3, r7, r8, r9, sl}
 8000008:	08000801 	stmdaeq	r0, {r0, fp}
 800000c:	08000801 	stmdaeq	r0, {r0, fp}
 8000010:	08000801 	stmdaeq	r0, {r0, fp}
 8000014:	08000801 	stmdaeq	r0, {r0, fp}
 8000018:	08000801 	stmdaeq	r0, {r0, fp}
	...
 800002c:	08000801 	stmdaeq	r0, {r0, fp}
 8000030:	08000801 	stmdaeq	r0, {r0, fp}
 8000034:	00000000 	andeq	r0, r0, r0
 8000038:	08000801 	stmdaeq	r0, {r0, fp}
 800003c:	08004225 	stmdaeq	r0, {r0, r2, r5, r9, lr}
 8000040:	08000801 	stmdaeq	r0, {r0, fp}
 8000044:	08000801 	stmdaeq	r0, {r0, fp}
 8000048:	08000801 	stmdaeq	r0, {r0, fp}
 800004c:	08000801 	stmdaeq	r0, {r0, fp}
 8000050:	08000801 	stmdaeq	r0, {r0, fp}
 8000054:	08000801 	stmdaeq	r0, {r0, fp}
 8000058:	08000801 	stmdaeq	r0, {r0, fp}
 800005c:	08000801 	stmdaeq	r0, {r0, fp}
 8000060:	08000801 	stmdaeq	r0, {r0, fp}
 8000064:	08000801 	stmdaeq	r0, {r0, fp}
 8000068:	08000801 	stmdaeq	r0, {r0, fp}
 800006c:	08000801 	stmdaeq	r0, {r0, fp}
 8000070:	08000801 	stmdaeq	r0, {r0, fp}
 8000074:	08000801 	stmdaeq	r0, {r0, fp}
 8000078:	08000801 	stmdaeq	r0, {r0, fp}
 800007c:	08000801 	stmdaeq	r0, {r0, fp}
 8000080:	08000801 	stmdaeq	r0, {r0, fp}
 8000084:	08000801 	stmdaeq	r0, {r0, fp}
 8000088:	08000801 	stmdaeq	r0, {r0, fp}
 800008c:	08000801 	stmdaeq	r0, {r0, fp}
 8000090:	08000801 	stmdaeq	r0, {r0, fp}
 8000094:	08000801 	stmdaeq	r0, {r0, fp}
 8000098:	08000801 	stmdaeq	r0, {r0, fp}
 800009c:	08000801 	stmdaeq	r0, {r0, fp}
 80000a0:	08000801 	stmdaeq	r0, {r0, fp}
 80000a4:	08000801 	stmdaeq	r0, {r0, fp}
 80000a8:	08000801 	stmdaeq	r0, {r0, fp}
 80000ac:	08000801 	stmdaeq	r0, {r0, fp}
 80000b0:	08000801 	stmdaeq	r0, {r0, fp}
 80000b4:	08000801 	stmdaeq	r0, {r0, fp}
 80000b8:	08000801 	stmdaeq	r0, {r0, fp}
 80000bc:	08000801 	stmdaeq	r0, {r0, fp}
 80000c0:	08000801 	stmdaeq	r0, {r0, fp}
 80000c4:	08000801 	stmdaeq	r0, {r0, fp}
 80000c8:	08000801 	stmdaeq	r0, {r0, fp}
 80000cc:	08000801 	stmdaeq	r0, {r0, fp}
 80000d0:	08000801 	stmdaeq	r0, {r0, fp}
 80000d4:	00000000 	andeq	r0, r0, r0
 80000d8:	08000801 	stmdaeq	r0, {r0, fp}
 80000dc:	08000801 	stmdaeq	r0, {r0, fp}
 80000e0:	08000801 	stmdaeq	r0, {r0, fp}
 80000e4:	08000801 	stmdaeq	r0, {r0, fp}
 80000e8:	08000801 	stmdaeq	r0, {r0, fp}
 80000ec:	08000801 	stmdaeq	r0, {r0, fp}
 80000f0:	08000801 	stmdaeq	r0, {r0, fp}
 80000f4:	08000801 	stmdaeq	r0, {r0, fp}
 80000f8:	08000801 	stmdaeq	r0, {r0, fp}
 80000fc:	08000801 	stmdaeq	r0, {r0, fp}
 8000100:	08000801 	stmdaeq	r0, {r0, fp}
 8000104:	08000801 	stmdaeq	r0, {r0, fp}
 8000108:	08000801 	stmdaeq	r0, {r0, fp}
 800010c:	08000801 	stmdaeq	r0, {r0, fp}
 8000110:	08000801 	stmdaeq	r0, {r0, fp}
 8000114:	08000801 	stmdaeq	r0, {r0, fp}
 8000118:	08000801 	stmdaeq	r0, {r0, fp}
 800011c:	08000801 	stmdaeq	r0, {r0, fp}
 8000120:	08000801 	stmdaeq	r0, {r0, fp}
 8000124:	08000801 	stmdaeq	r0, {r0, fp}
 8000128:	08000801 	stmdaeq	r0, {r0, fp}
 800012c:	08000801 	stmdaeq	r0, {r0, fp}
 8000130:	08000801 	stmdaeq	r0, {r0, fp}
 8000134:	08000801 	stmdaeq	r0, {r0, fp}
 8000138:	08000801 	stmdaeq	r0, {r0, fp}
 800013c:	08000801 	stmdaeq	r0, {r0, fp}
 8000140:	08000801 	stmdaeq	r0, {r0, fp}
 8000144:	08000801 	stmdaeq	r0, {r0, fp}
 8000148:	08000801 	stmdaeq	r0, {r0, fp}
 800014c:	08000801 	stmdaeq	r0, {r0, fp}
 8000150:	08000801 	stmdaeq	r0, {r0, fp}
 8000154:	08000801 	stmdaeq	r0, {r0, fp}
 8000158:	08000801 	stmdaeq	r0, {r0, fp}
 800015c:	08000801 	stmdaeq	r0, {r0, fp}
 8000160:	08000801 	stmdaeq	r0, {r0, fp}
 8000164:	08000801 	stmdaeq	r0, {r0, fp}
 8000168:	08000801 	stmdaeq	r0, {r0, fp}
 800016c:	08000801 	stmdaeq	r0, {r0, fp}
 8000170:	08000801 	stmdaeq	r0, {r0, fp}
 8000174:	08000801 	stmdaeq	r0, {r0, fp}
 8000178:	08000801 	stmdaeq	r0, {r0, fp}
 800017c:	00000000 	andeq	r0, r0, r0
 8000180:	08000801 	stmdaeq	r0, {r0, fp}
 8000184:	08000801 	stmdaeq	r0, {r0, fp}

Disassembly of section .text:

08000188 <net_init>:
 8000188:	b5f7      	push	{r0, r1, r2, r4, r5, r6, r7, lr}
 800018a:	9e08      	ldr	r6, [sp, #32]
 800018c:	460c      	mov	r4, r1
 800018e:	4921      	ldr	r1, [pc, #132]	; (8000214 <net_init+0x8c>)
 8000190:	461d      	mov	r5, r3
 8000192:	1e43      	subs	r3, r0, #1
 8000194:	3005      	adds	r0, #5
 8000196:	f813 7f01 	ldrb.w	r7, [r3, #1]!
 800019a:	f801 7b01 	strb.w	r7, [r1], #1
 800019e:	4283      	cmp	r3, r0
 80001a0:	d1f9      	bne.n	8000196 <net_init+0xe>
 80001a2:	491d      	ldr	r1, [pc, #116]	; (8000218 <net_init+0x90>)
 80001a4:	f104 000c 	add.w	r0, r4, #12
 80001a8:	4623      	mov	r3, r4
 80001aa:	f813 7b01 	ldrb.w	r7, [r3], #1
 80001ae:	f801 7b01 	strb.w	r7, [r1], #1
 80001b2:	4283      	cmp	r3, r0
 80001b4:	d1f9      	bne.n	80001aa <net_init+0x22>
 80001b6:	4918      	ldr	r1, [pc, #96]	; (8000218 <net_init+0x90>)
 80001b8:	4816      	ldr	r0, [pc, #88]	; (8000214 <net_init+0x8c>)
 80001ba:	9201      	str	r2, [sp, #4]
 80001bc:	2700      	movs	r7, #0
 80001be:	f000 f98b 	bl	80004d8 <ip_init>
 80001c2:	4814      	ldr	r0, [pc, #80]	; (8000214 <net_init+0x8c>)
 80001c4:	f000 f83a 	bl	800023c <rfc3927_init>
 80001c8:	7037      	strb	r7, [r6, #0]
 80001ca:	782b      	ldrb	r3, [r5, #0]
 80001cc:	9a01      	ldr	r2, [sp, #4]
 80001ce:	b153      	cbz	r3, 80001e6 <net_init+0x5e>
 80001d0:	4911      	ldr	r1, [pc, #68]	; (8000218 <net_init+0x90>)
 80001d2:	4810      	ldr	r0, [pc, #64]	; (8000214 <net_init+0x8c>)
 80001d4:	f003 fac8 	bl	8003768 <dhcp_client>
 80001d8:	42b8      	cmp	r0, r7
 80001da:	da04      	bge.n	80001e6 <net_init+0x5e>
 80001dc:	480e      	ldr	r0, [pc, #56]	; (8000218 <net_init+0x90>)
 80001de:	702f      	strb	r7, [r5, #0]
 80001e0:	f002 fb3c 	bl	800285c <rfc3927>
 80001e4:	7030      	strb	r0, [r6, #0]
 80001e6:	490c      	ldr	r1, [pc, #48]	; (8000218 <net_init+0x90>)
 80001e8:	480a      	ldr	r0, [pc, #40]	; (8000214 <net_init+0x8c>)
 80001ea:	f000 f87f 	bl	80002ec <arp_init>
 80001ee:	480a      	ldr	r0, [pc, #40]	; (8000218 <net_init+0x90>)
 80001f0:	f003 fca2 	bl	8003b38 <ip_set_ip>
 80001f4:	f000 f82e 	bl	8000254 <tcp_init>
 80001f8:	4a07      	ldr	r2, [pc, #28]	; (8000218 <net_init+0x90>)
 80001fa:	1e63      	subs	r3, r4, #1
 80001fc:	340b      	adds	r4, #11
 80001fe:	f812 1b01 	ldrb.w	r1, [r2], #1
 8000202:	f803 1f01 	strb.w	r1, [r3, #1]!
 8000206:	429c      	cmp	r4, r3
 8000208:	d1f9      	bne.n	80001fe <net_init+0x76>
 800020a:	782a      	ldrb	r2, [r5, #0]
 800020c:	4b03      	ldr	r3, [pc, #12]	; (800021c <net_init+0x94>)
 800020e:	701a      	strb	r2, [r3, #0]
 8000210:	b003      	add	sp, #12
 8000212:	bdf0      	pop	{r4, r5, r6, r7, pc}
 8000214:	20001160 	andcs	r1, r0, r0, ror #2
 8000218:	20001154 	andcs	r1, r0, r4, asr r1
 800021c:	20001166 	andcs	r1, r0, r6, ror #2

08000220 <net_shutdown>:
 8000220:	b508      	push	{r3, lr}
 8000222:	f000 f964 	bl	80004ee <ip_shutdown>
 8000226:	4b04      	ldr	r3, [pc, #16]	; (8000238 <net_shutdown+0x18>)
 8000228:	781b      	ldrb	r3, [r3, #0]
 800022a:	b11b      	cbz	r3, 8000234 <net_shutdown+0x14>
 800022c:	e8bd 4008 	ldmia.w	sp!, {r3, lr}
 8000230:	f003 bba2 	b.w	8003978 <dhcp_client_release>
 8000234:	bd08      	pop	{r3, pc}
 8000236:	bf00      	nop
 8000238:	20001166 	andcs	r1, r0, r6, ror #2

0800023c <rfc3927_init>:
 800023c:	4b04      	ldr	r3, [pc, #16]	; (8000250 <rfc3927_init+0x14>)
 800023e:	1d82      	adds	r2, r0, #6
 8000240:	4290      	cmp	r0, r2
 8000242:	d100      	bne.n	8000246 <rfc3927_init+0xa>
 8000244:	4770      	bx	lr
 8000246:	f810 1b01 	ldrb.w	r1, [r0], #1
 800024a:	f803 1b01 	strb.w	r1, [r3], #1
 800024e:	e7f7      	b.n	8000240 <rfc3927_init+0x4>
 8000250:	20001170 	andcs	r1, r0, r0, ror r1

08000254 <tcp_init>:
 8000254:	b513      	push	{r0, r1, r4, lr}
 8000256:	4c0c      	ldr	r4, [pc, #48]	; (8000288 <tcp_init+0x34>)
 8000258:	490c      	ldr	r1, [pc, #48]	; (800028c <tcp_init+0x38>)
 800025a:	2206      	movs	r2, #6
 800025c:	18a0      	adds	r0, r4, r2
 800025e:	f002 fb3d 	bl	80028dc <memcpy.isra.0>
 8000262:	2308      	movs	r3, #8
 8000264:	81a3      	strh	r3, [r4, #12]
 8000266:	4b0a      	ldr	r3, [pc, #40]	; (8000290 <tcp_init+0x3c>)
 8000268:	2204      	movs	r2, #4
 800026a:	681b      	ldr	r3, [r3, #0]
 800026c:	9301      	str	r3, [sp, #4]
 800026e:	eb0d 0102 	add.w	r1, sp, r2
 8000272:	f104 001a 	add.w	r0, r4, #26
 8000276:	f002 fb31 	bl	80028dc <memcpy.isra.0>
 800027a:	2345      	movs	r3, #69	; 0x45
 800027c:	81e3      	strh	r3, [r4, #14]
 800027e:	4b05      	ldr	r3, [pc, #20]	; (8000294 <tcp_init+0x40>)
 8000280:	6163      	str	r3, [r4, #20]
 8000282:	b002      	add	sp, #8
 8000284:	bd10      	pop	{r4, pc}
 8000286:	bf00      	nop
 8000288:	10000000 	andne	r0, r0, r0
 800028c:	20001160 	andcs	r1, r0, r0, ror #2
 8000290:	20001154 	andcs	r1, r0, r4, asr r1
 8000294:	06400040 	strbeq	r0, [r0], -r0, asr #32

08000298 <udp_init>:
 8000298:	4a0d      	ldr	r2, [pc, #52]	; (80002d0 <udp_init+0x38>)
 800029a:	4b0e      	ldr	r3, [pc, #56]	; (80002d4 <udp_init+0x3c>)
 800029c:	b570      	push	{r4, r5, r6, lr}
 800029e:	2400      	movs	r4, #0
 80002a0:	4d0d      	ldr	r5, [pc, #52]	; (80002d8 <udp_init+0x40>)
 80002a2:	601c      	str	r4, [r3, #0]
 80002a4:	6014      	str	r4, [r2, #0]
 80002a6:	6054      	str	r4, [r2, #4]
 80002a8:	f8c3 4b94 	str.w	r4, [r3, #2964]	; 0xb94
 80002ac:	2206      	movs	r2, #6
 80002ae:	4b0b      	ldr	r3, [pc, #44]	; (80002dc <udp_init+0x44>)
 80002b0:	460e      	mov	r6, r1
 80002b2:	4601      	mov	r1, r0
 80002b4:	18a8      	adds	r0, r5, r2
 80002b6:	801c      	strh	r4, [r3, #0]
 80002b8:	f002 fb1a 	bl	80028f0 <memcpy.isra.0>
 80002bc:	4b08      	ldr	r3, [pc, #32]	; (80002e0 <udp_init+0x48>)
 80002be:	60eb      	str	r3, [r5, #12]
 80002c0:	4630      	mov	r0, r6
 80002c2:	4b08      	ldr	r3, [pc, #32]	; (80002e4 <udp_init+0x4c>)
 80002c4:	616b      	str	r3, [r5, #20]
 80002c6:	f002 fb3b 	bl	8002940 <udp_set_ip>
 80002ca:	852c      	strh	r4, [r5, #40]	; 0x28
 80002cc:	bd70      	pop	{r4, r5, r6, pc}
 80002ce:	bf00      	nop
 80002d0:	20001190 	mulcs	r0, r0, r1
 80002d4:	20001198 	mulcs	r0, r8, r1
 80002d8:	200028c0 	andcs	r2, r0, r0, asr #17
 80002dc:	2000118c 	andcs	r1, r0, ip, lsl #3
 80002e0:	00450008 	subeq	r0, r5, r8
 80002e4:	11400040 	cmpne	r0, r0, asr #32

080002e8 <udp_shutdown>:
 80002e8:	4770      	bx	lr
	...

080002ec <arp_init>:
 80002ec:	e92d 41f0 	stmdb	sp!, {r4, r5, r6, r7, r8, lr}
 80002f0:	460d      	mov	r5, r1
 80002f2:	4604      	mov	r4, r0
 80002f4:	f000 f876 	bl	80003e4 <arp_cache_init>
 80002f8:	2206      	movs	r2, #6
 80002fa:	482f      	ldr	r0, [pc, #188]	; (80003b8 <arp_init+0xcc>)
 80002fc:	682f      	ldr	r7, [r5, #0]
 80002fe:	4621      	mov	r1, r4
 8000300:	f003 f8b3 	bl	800346a <memcpy.isra.0>
 8000304:	4b2d      	ldr	r3, [pc, #180]	; (80003bc <arp_init+0xd0>)
 8000306:	2507      	movs	r5, #7
 8000308:	461e      	mov	r6, r3
 800030a:	22ff      	movs	r2, #255	; 0xff
 800030c:	3d01      	subs	r5, #1
 800030e:	d146      	bne.n	800039e <arp_init+0xb2>
 8000310:	4b2b      	ldr	r3, [pc, #172]	; (80003c0 <arp_init+0xd4>)
 8000312:	f8df 80cc 	ldr.w	r8, [pc, #204]	; 80003e0 <arp_init+0xf4>
 8000316:	482b      	ldr	r0, [pc, #172]	; (80003c4 <arp_init+0xd8>)
 8000318:	e9c6 3803 	strd	r3, r8, [r6, #12]
 800031c:	2206      	movs	r2, #6
 800031e:	f44f 7380 	mov.w	r3, #256	; 0x100
 8000322:	4621      	mov	r1, r4
 8000324:	82b3      	strh	r3, [r6, #20]
 8000326:	f003 f8a0 	bl	800346a <memcpy.isra.0>
 800032a:	4a27      	ldr	r2, [pc, #156]	; (80003c8 <arp_init+0xdc>)
 800032c:	61f7      	str	r7, [r6, #28]
 800032e:	2307      	movs	r3, #7
 8000330:	3b01      	subs	r3, #1
 8000332:	d137      	bne.n	80003a4 <arp_init+0xb8>
 8000334:	2206      	movs	r2, #6
 8000336:	4621      	mov	r1, r4
 8000338:	4824      	ldr	r0, [pc, #144]	; (80003cc <arp_init+0xe0>)
 800033a:	f8c6 7026 	str.w	r7, [r6, #38]	; 0x26
 800033e:	f003 f894 	bl	800346a <memcpy.isra.0>
 8000342:	4a23      	ldr	r2, [pc, #140]	; (80003d0 <arp_init+0xe4>)
 8000344:	2306      	movs	r3, #6
 8000346:	4615      	mov	r5, r2
 8000348:	21ff      	movs	r1, #255	; 0xff
 800034a:	3b01      	subs	r3, #1
 800034c:	d22d      	bcs.n	80003aa <arp_init+0xbe>
 800034e:	4b1c      	ldr	r3, [pc, #112]	; (80003c0 <arp_init+0xd4>)
 8000350:	4820      	ldr	r0, [pc, #128]	; (80003d4 <arp_init+0xe8>)
 8000352:	e9c5 3803 	strd	r3, r8, [r5, #12]
 8000356:	2206      	movs	r2, #6
 8000358:	f44f 7380 	mov.w	r3, #256	; 0x100
 800035c:	4621      	mov	r1, r4
 800035e:	82ab      	strh	r3, [r5, #20]
 8000360:	f003 f883 	bl	800346a <memcpy.isra.0>
 8000364:	4a1c      	ldr	r2, [pc, #112]	; (80003d8 <arp_init+0xec>)
 8000366:	61ef      	str	r7, [r5, #28]
 8000368:	2307      	movs	r3, #7
 800036a:	2100      	movs	r1, #0
 800036c:	3b01      	subs	r3, #1
 800036e:	d11f      	bne.n	80003b0 <arp_init+0xc4>
 8000370:	4d1a      	ldr	r5, [pc, #104]	; (80003dc <arp_init+0xf0>)
 8000372:	2206      	movs	r2, #6
 8000374:	18a8      	adds	r0, r5, r2
 8000376:	4621      	mov	r1, r4
 8000378:	f003 f877 	bl	800346a <memcpy.isra.0>
 800037c:	4b10      	ldr	r3, [pc, #64]	; (80003c0 <arp_init+0xd4>)
 800037e:	4621      	mov	r1, r4
 8000380:	e9c5 3803 	strd	r3, r8, [r5, #12]
 8000384:	f105 0016 	add.w	r0, r5, #22
 8000388:	f44f 7300 	mov.w	r3, #512	; 0x200
 800038c:	2206      	movs	r2, #6
 800038e:	82ab      	strh	r3, [r5, #20]
 8000390:	f003 f86b 	bl	800346a <memcpy.isra.0>
 8000394:	61ef      	str	r7, [r5, #28]
 8000396:	e8bd 41f0 	ldmia.w	sp!, {r4, r5, r6, r7, r8, lr}
 800039a:	f003 b871 	b.w	8003480 <arp_announce>
 800039e:	f803 2b01 	strb.w	r2, [r3], #1
 80003a2:	e7b3      	b.n	800030c <arp_init+0x20>
 80003a4:	f802 5b01 	strb.w	r5, [r2], #1
 80003a8:	e7c2      	b.n	8000330 <arp_init+0x44>
 80003aa:	f802 1b01 	strb.w	r1, [r2], #1
 80003ae:	e7cc      	b.n	800034a <arp_init+0x5e>
 80003b0:	f802 1b01 	strb.w	r1, [r2], #1
 80003b4:	e7da      	b.n	800036c <arp_init+0x80>
 80003b6:	bf00      	nop
 80003b8:	20002eba 			; <UNDEFINED> instruction: 0x20002eba
 80003bc:	20002eb4 			; <UNDEFINED> instruction: 0x20002eb4
 80003c0:	01000608 	tsteq	r0, r8, lsl #12
 80003c4:	20002eca 	andcs	r2, r0, sl, asr #29
 80003c8:	20002ed4 	ldrdcs	r2, [r0], -r4
 80003cc:	20002f12 	andcs	r2, r0, r2, lsl pc
 80003d0:	20002f0c 	andcs	r2, r0, ip, lsl #30
 80003d4:	20002f22 	andcs	r2, r0, r2, lsr #30
 80003d8:	20002f2c 	andcs	r2, r0, ip, lsr #30
 80003dc:	20002ee0 	andcs	r2, r0, r0, ror #29
 80003e0:	04060008 	streq	r0, [r6], #-8

080003e4 <arp_cache_init>:
 80003e4:	4a0a      	ldr	r2, [pc, #40]	; (8000410 <arp_cache_init+0x2c>)
 80003e6:	2300      	movs	r3, #0
 80003e8:	b510      	push	{r4, lr}
 80003ea:	f822 3b08 	strh.w	r3, [r2], #8
 80003ee:	4618      	mov	r0, r3
 80003f0:	4611      	mov	r1, r2
 80003f2:	f842 0c04 	str.w	r0, [r2, #-4]
 80003f6:	1d94      	adds	r4, r2, #6
 80003f8:	42a1      	cmp	r1, r4
 80003fa:	d105      	bne.n	8000408 <arp_cache_init+0x24>
 80003fc:	3303      	adds	r3, #3
 80003fe:	2b60      	cmp	r3, #96	; 0x60
 8000400:	f102 020c 	add.w	r2, r2, #12
 8000404:	d1f4      	bne.n	80003f0 <arp_cache_init+0xc>
 8000406:	bd10      	pop	{r4, pc}
 8000408:	f801 0b01 	strb.w	r0, [r1], #1
 800040c:	e7f4      	b.n	80003f8 <arp_cache_init+0x14>
 800040e:	bf00      	nop
 8000410:	100011a4 	andne	r1, r0, r4, lsr #3

08000414 <igmp_init>:
 8000414:	e92d 43f8 	stmdb	sp!, {r3, r4, r5, r6, r7, r8, r9, lr}
 8000418:	4b22      	ldr	r3, [pc, #136]	; (80004a4 <igmp_init+0x90>)
 800041a:	4606      	mov	r6, r0
 800041c:	2509      	movs	r5, #9
 800041e:	4608      	mov	r0, r1
 8000420:	2200      	movs	r2, #0
 8000422:	3d01      	subs	r5, #1
 8000424:	d13b      	bne.n	800049e <igmp_init+0x8a>
 8000426:	4c20      	ldr	r4, [pc, #128]	; (80004a8 <igmp_init+0x94>)
 8000428:	f8df 9088 	ldr.w	r9, [pc, #136]	; 80004b4 <igmp_init+0xa0>
 800042c:	6765      	str	r5, [r4, #116]	; 0x74
 800042e:	8725      	strh	r5, [r4, #56]	; 0x38
 8000430:	f003 fb18 	bl	8003a64 <igmp_set_ip>
 8000434:	2301      	movs	r3, #1
 8000436:	8023      	strh	r3, [r4, #0]
 8000438:	2206      	movs	r2, #6
 800043a:	235e      	movs	r3, #94	; 0x5e
 800043c:	4631      	mov	r1, r6
 800043e:	f104 000e 	add.w	r0, r4, #14
 8000442:	70a3      	strb	r3, [r4, #2]
 8000444:	f003 fac6 	bl	80039d4 <memcpy.isra.0>
 8000448:	f240 4394 	movw	r3, #1172	; 0x494
 800044c:	8563      	strh	r3, [r4, #42]	; 0x2a
 800044e:	2316      	movs	r3, #22
 8000450:	85e3      	strh	r3, [r4, #46]	; 0x2e
 8000452:	4b16      	ldr	r3, [pc, #88]	; (80004ac <igmp_init+0x98>)
 8000454:	f8df 8060 	ldr.w	r8, [pc, #96]	; 80004b8 <igmp_init+0xa4>
 8000458:	63e3      	str	r3, [r4, #60]	; 0x3c
 800045a:	f44f 5700 	mov.w	r7, #8192	; 0x2000
 800045e:	f44f 7300 	mov.w	r3, #512	; 0x200
 8000462:	2206      	movs	r2, #6
 8000464:	4631      	mov	r1, r6
 8000466:	f104 0042 	add.w	r0, r4, #66	; 0x42
 800046a:	f8a4 3040 	strh.w	r3, [r4, #64]	; 0x40
 800046e:	f8c4 901c 	str.w	r9, [r4, #28]
 8000472:	f8c4 8014 	str.w	r8, [r4, #20]
 8000476:	8327      	strh	r7, [r4, #24]
 8000478:	85a5      	strh	r5, [r4, #44]	; 0x2c
 800047a:	f003 faab 	bl	80039d4 <memcpy.isra.0>
 800047e:	23e0      	movs	r3, #224	; 0xe0
 8000480:	4a0b      	ldr	r2, [pc, #44]	; (80004b0 <igmp_init+0x9c>)
 8000482:	f8a4 305a 	strh.w	r3, [r4, #90]	; 0x5a
 8000486:	f44f 13b8 	mov.w	r3, #1507328	; 0x170000
 800048a:	e9c4 2317 	strd	r2, r3, [r4, #92]	; 0x5c
 800048e:	f8c4 9050 	str.w	r9, [r4, #80]	; 0x50
 8000492:	f8c4 8048 	str.w	r8, [r4, #72]	; 0x48
 8000496:	f8a4 704c 	strh.w	r7, [r4, #76]	; 0x4c
 800049a:	e8bd 83f8 	ldmia.w	sp!, {r3, r4, r5, r6, r7, r8, r9, pc}
 800049e:	f803 2b01 	strb.w	r2, [r3], #1
 80004a2:	e7be      	b.n	8000422 <igmp_init+0xe>
 80004a4:	10001394 	mulne	r0, r4, r3
 80004a8:	10001328 	andne	r1, r0, r8, lsr #6
 80004ac:	005e0001 	subseq	r0, lr, r1
 80004b0:	04940200 	ldreq	r0, [r4], #512	; 0x200
 80004b4:	02010040 	andeq	r0, r1, #64	; 0x40
 80004b8:	00460008 	subeq	r0, r6, r8

080004bc <igmp_shutdown>:
 80004bc:	b510      	push	{r4, lr}
 80004be:	4c05      	ldr	r4, [pc, #20]	; (80004d4 <igmp_shutdown+0x18>)
 80004c0:	6ee0      	ldr	r0, [r4, #108]	; 0x6c
 80004c2:	b128      	cbz	r0, 80004d0 <igmp_shutdown+0x14>
 80004c4:	f003 fb02 	bl	8003acc <igmp_leave>
 80004c8:	2300      	movs	r3, #0
 80004ca:	66e3      	str	r3, [r4, #108]	; 0x6c
 80004cc:	f8a4 3070 	strh.w	r3, [r4, #112]	; 0x70
 80004d0:	bd10      	pop	{r4, pc}
 80004d2:	bf00      	nop
 80004d4:	10001328 	andne	r1, r0, r8, lsr #6

080004d8 <ip_init>:
 80004d8:	b538      	push	{r3, r4, r5, lr}
 80004da:	4604      	mov	r4, r0
 80004dc:	460d      	mov	r5, r1
 80004de:	f7ff fedb 	bl	8000298 <udp_init>
 80004e2:	4629      	mov	r1, r5
 80004e4:	4620      	mov	r0, r4
 80004e6:	e8bd 4038 	ldmia.w	sp!, {r3, r4, r5, lr}
 80004ea:	f7ff bf93 	b.w	8000414 <igmp_init>

080004ee <ip_shutdown>:
 80004ee:	b508      	push	{r3, lr}
 80004f0:	f7ff ffe4 	bl	80004bc <igmp_shutdown>
 80004f4:	e8bd 4008 	ldmia.w	sp!, {r3, lr}
 80004f8:	f7ff bef6 	b.w	80002e8 <udp_shutdown>

080004fc <console_init>:
 80004fc:	b508      	push	{r3, lr}
 80004fe:	f003 fe39 	bl	8004174 <uart0_init>
 8000502:	4804      	ldr	r0, [pc, #16]	; (8000514 <console_init+0x18>)
 8000504:	f003 fe60 	bl	80041c8 <uart0_puts>
 8000508:	4803      	ldr	r0, [pc, #12]	; (8000518 <console_init+0x1c>)
 800050a:	f003 fe5d 	bl	80041c8 <uart0_puts>
 800050e:	2000      	movs	r0, #0
 8000510:	bd08      	pop	{r3, pc}
 8000512:	bf00      	nop
 8000514:	08006b70 	stmdaeq	r0, {r4, r5, r6, r8, r9, fp, sp, lr}
 8000518:	08006b76 	stmdaeq	r0, {r1, r2, r4, r5, r6, r8, r9, fp, sp, lr}

0800051c <net_handle>:
 800051c:	b510      	push	{r4, lr}
 800051e:	4c0c      	ldr	r4, [pc, #48]	; (8000550 <net_handle+0x34>)
 8000520:	4620      	mov	r0, r4
 8000522:	f004 fb21 	bl	8004b68 <emac_eth_recv>
 8000526:	2800      	cmp	r0, #0
 8000528:	dd07      	ble.n	800053a <net_handle+0x1e>
 800052a:	6820      	ldr	r0, [r4, #0]
 800052c:	8983      	ldrh	r3, [r0, #12]
 800052e:	2b08      	cmp	r3, #8
 8000530:	d107      	bne.n	8000542 <net_handle+0x26>
 8000532:	f000 f8bf 	bl	80006b4 <ip_handle>
 8000536:	f004 fb2b 	bl	8004b90 <emac_free_pkt>
 800053a:	e8bd 4010 	ldmia.w	sp!, {r4, lr}
 800053e:	f002 b97d 	b.w	800283c <net_timers_run>
 8000542:	f5b3 6fc1 	cmp.w	r3, #1544	; 0x608
 8000546:	d1f6      	bne.n	8000536 <net_handle+0x1a>
 8000548:	f000 f85a 	bl	8000600 <arp_handle>
 800054c:	e7f3      	b.n	8000536 <net_handle+0x1a>
 800054e:	bf00      	nop
 8000550:	20001168 	andcs	r1, r0, r8, ror #2

08000554 <udp_handle>:
 8000554:	e92d 41f3 	stmdb	sp!, {r0, r1, r4, r5, r6, r7, r8, lr}
 8000558:	8c83      	ldrh	r3, [r0, #36]	; 0x24
 800055a:	ba5b      	rev16	r3, r3
 800055c:	b29b      	uxth	r3, r3
 800055e:	f1a3 0244 	sub.w	r2, r3, #68	; 0x44
 8000562:	2a01      	cmp	r2, #1
 8000564:	4606      	mov	r6, r0
 8000566:	d901      	bls.n	800056c <udp_handle+0x18>
 8000568:	2b7b      	cmp	r3, #123	; 0x7b
 800056a:	d108      	bne.n	800057e <udp_handle+0x2a>
 800056c:	4a22      	ldr	r2, [pc, #136]	; (80005f8 <udp_handle+0xa4>)
 800056e:	6811      	ldr	r1, [r2, #0]
 8000570:	4299      	cmp	r1, r3
 8000572:	d00a      	beq.n	800058a <udp_handle+0x36>
 8000574:	6852      	ldr	r2, [r2, #4]
 8000576:	4293      	cmp	r3, r2
 8000578:	d104      	bne.n	8000584 <udp_handle+0x30>
 800057a:	2701      	movs	r7, #1
 800057c:	e006      	b.n	800058c <udp_handle+0x38>
 800057e:	f5b3 6f80 	cmp.w	r3, #1024	; 0x400
 8000582:	d2f3      	bcs.n	800056c <udp_handle+0x18>
 8000584:	b002      	add	sp, #8
 8000586:	e8bd 81f0 	ldmia.w	sp!, {r4, r5, r6, r7, r8, pc}
 800058a:	2700      	movs	r7, #0
 800058c:	8cf5      	ldrh	r5, [r6, #38]	; 0x26
 800058e:	f8df 806c 	ldr.w	r8, [pc, #108]	; 80005fc <udp_handle+0xa8>
 8000592:	f640 3394 	movw	r3, #2964	; 0xb94
 8000596:	435f      	muls	r7, r3
 8000598:	ba6d      	rev16	r5, r5
 800059a:	f838 4007 	ldrh.w	r4, [r8, r7]
 800059e:	3d08      	subs	r5, #8
 80005a0:	b2ad      	uxth	r5, r5
 80005a2:	f44f 63b9 	mov.w	r3, #1480	; 0x5c8
 80005a6:	435c      	muls	r4, r3
 80005a8:	f5b5 6fb8 	cmp.w	r5, #1472	; 0x5c0
 80005ac:	f107 0004 	add.w	r0, r7, #4
 80005b0:	bf28      	it	cs
 80005b2:	f44f 65b8 	movcs.w	r5, #1472	; 0x5c0
 80005b6:	4420      	add	r0, r4
 80005b8:	462a      	mov	r2, r5
 80005ba:	f106 012a 	add.w	r1, r6, #42	; 0x2a
 80005be:	4440      	add	r0, r8
 80005c0:	f002 f996 	bl	80028f0 <memcpy.isra.0>
 80005c4:	2204      	movs	r2, #4
 80005c6:	eb0d 0002 	add.w	r0, sp, r2
 80005ca:	f106 011a 	add.w	r1, r6, #26
 80005ce:	f002 f98f 	bl	80028f0 <memcpy.isra.0>
 80005d2:	19e3      	adds	r3, r4, r7
 80005d4:	4443      	add	r3, r8
 80005d6:	9a01      	ldr	r2, [sp, #4]
 80005d8:	f8c3 25c4 	str.w	r2, [r3, #1476]	; 0x5c4
 80005dc:	8c72      	ldrh	r2, [r6, #34]	; 0x22
 80005de:	f8a3 55ca 	strh.w	r5, [r3, #1482]	; 0x5ca
 80005e2:	ba52      	rev16	r2, r2
 80005e4:	f8a3 25c8 	strh.w	r2, [r3, #1480]	; 0x5c8
 80005e8:	f838 3007 	ldrh.w	r3, [r8, r7]
 80005ec:	3301      	adds	r3, #1
 80005ee:	f003 0301 	and.w	r3, r3, #1
 80005f2:	f828 3007 	strh.w	r3, [r8, r7]
 80005f6:	e7c5      	b.n	8000584 <udp_handle+0x30>
 80005f8:	20001190 	mulcs	r0, r0, r1
 80005fc:	20001198 	mulcs	r0, r8, r1

08000600 <arp_handle>:
 8000600:	8a83      	ldrh	r3, [r0, #20]
 8000602:	f5b3 7f80 	cmp.w	r3, #256	; 0x100
 8000606:	d003      	beq.n	8000610 <arp_handle+0x10>
 8000608:	f5b3 7f00 	cmp.w	r3, #512	; 0x200
 800060c:	d002      	beq.n	8000614 <arp_handle+0x14>
 800060e:	4770      	bx	lr
 8000610:	f002 bf40 	b.w	8003494 <arp_handle_request>
 8000614:	f002 bf66 	b.w	80034e4 <arp_handle_reply>

08000618 <igmp_handle>:
 8000618:	7b83      	ldrb	r3, [r0, #14]
 800061a:	2b45      	cmp	r3, #69	; 0x45
 800061c:	e92d 43f7 	stmdb	sp!, {r0, r1, r2, r4, r5, r6, r7, r8, r9, lr}
 8000620:	d116      	bne.n	8000650 <igmp_handle+0x38>
 8000622:	f890 3022 	ldrb.w	r3, [r0, #34]	; 0x22
 8000626:	2b11      	cmp	r3, #17
 8000628:	d112      	bne.n	8000650 <igmp_handle+0x38>
 800062a:	4b20      	ldr	r3, [pc, #128]	; (80006ac <igmp_handle+0x94>)
 800062c:	9300      	str	r3, [sp, #0]
 800062e:	f100 051d 	add.w	r5, r0, #29
 8000632:	466a      	mov	r2, sp
 8000634:	f100 0621 	add.w	r6, r0, #33	; 0x21
 8000638:	462b      	mov	r3, r5
 800063a:	42b3      	cmp	r3, r6
 800063c:	d10b      	bne.n	8000656 <igmp_handle+0x3e>
 800063e:	2401      	movs	r4, #1
 8000640:	4b1b      	ldr	r3, [pc, #108]	; (80006b0 <igmp_handle+0x98>)
 8000642:	2100      	movs	r1, #0
 8000644:	6f5f      	ldr	r7, [r3, #116]	; 0x74
 8000646:	f04f 0c01 	mov.w	ip, #1
 800064a:	336c      	adds	r3, #108	; 0x6c
 800064c:	428f      	cmp	r7, r1
 800064e:	d10a      	bne.n	8000666 <igmp_handle+0x4e>
 8000650:	b003      	add	sp, #12
 8000652:	e8bd 83f0 	ldmia.w	sp!, {r4, r5, r6, r7, r8, r9, pc}
 8000656:	f812 1b01 	ldrb.w	r1, [r2], #1
 800065a:	f813 4f01 	ldrb.w	r4, [r3, #1]!
 800065e:	428c      	cmp	r4, r1
 8000660:	d0eb      	beq.n	800063a <igmp_handle+0x22>
 8000662:	2400      	movs	r4, #0
 8000664:	e7ec      	b.n	8000640 <igmp_handle+0x28>
 8000666:	681a      	ldr	r2, [r3, #0]
 8000668:	9201      	str	r2, [sp, #4]
 800066a:	b924      	cbnz	r4, 8000676 <igmp_handle+0x5e>
 800066c:	f10d 0e04 	add.w	lr, sp, #4
 8000670:	462a      	mov	r2, r5
 8000672:	42b2      	cmp	r2, r6
 8000674:	d10e      	bne.n	8000694 <igmp_handle+0x7c>
 8000676:	f893 e005 	ldrb.w	lr, [r3, #5]
 800067a:	f890 2023 	ldrb.w	r2, [r0, #35]	; 0x23
 800067e:	f1be 0f01 	cmp.w	lr, #1
 8000682:	d110      	bne.n	80006a6 <igmp_handle+0x8e>
 8000684:	f893 e004 	ldrb.w	lr, [r3, #4]
 8000688:	4596      	cmp	lr, r2
 800068a:	d909      	bls.n	80006a0 <igmp_handle+0x88>
 800068c:	0852      	lsrs	r2, r2, #1
 800068e:	3201      	adds	r2, #1
 8000690:	711a      	strb	r2, [r3, #4]
 8000692:	e005      	b.n	80006a0 <igmp_handle+0x88>
 8000694:	f81e 8b01 	ldrb.w	r8, [lr], #1
 8000698:	f812 9f01 	ldrb.w	r9, [r2, #1]!
 800069c:	45c1      	cmp	r9, r8
 800069e:	d0e8      	beq.n	8000672 <igmp_handle+0x5a>
 80006a0:	3101      	adds	r1, #1
 80006a2:	3308      	adds	r3, #8
 80006a4:	e7d2      	b.n	800064c <igmp_handle+0x34>
 80006a6:	f883 c005 	strb.w	ip, [r3, #5]
 80006aa:	e7ef      	b.n	800068c <igmp_handle+0x74>
 80006ac:	010000e0 	smlatteq	r0, r0, r0, r0
 80006b0:	10001328 	andne	r1, r0, r8, lsr #6

080006b4 <ip_handle>:
 80006b4:	7b82      	ldrb	r2, [r0, #14]
 80006b6:	7dc3      	ldrb	r3, [r0, #23]
 80006b8:	2a45      	cmp	r2, #69	; 0x45
 80006ba:	d003      	beq.n	80006c4 <ip_handle+0x10>
 80006bc:	2b02      	cmp	r3, #2
 80006be:	d10b      	bne.n	80006d8 <ip_handle+0x24>
 80006c0:	f7ff bfaa 	b.w	8000618 <igmp_handle>
 80006c4:	2b02      	cmp	r3, #2
 80006c6:	d0fb      	beq.n	80006c0 <ip_handle+0xc>
 80006c8:	2b11      	cmp	r3, #17
 80006ca:	d003      	beq.n	80006d4 <ip_handle+0x20>
 80006cc:	2b01      	cmp	r3, #1
 80006ce:	d103      	bne.n	80006d8 <ip_handle+0x24>
 80006d0:	f000 b804 	b.w	80006dc <icmp_handle>
 80006d4:	f7ff bf3e 	b.w	8000554 <udp_handle>
 80006d8:	4770      	bx	lr
	...

080006dc <icmp_handle>:
 80006dc:	b573      	push	{r0, r1, r4, r5, r6, lr}
 80006de:	f890 3022 	ldrb.w	r3, [r0, #34]	; 0x22
 80006e2:	2b08      	cmp	r3, #8
 80006e4:	4604      	mov	r4, r0
 80006e6:	d13e      	bne.n	8000766 <icmp_handle+0x8a>
 80006e8:	f890 5023 	ldrb.w	r5, [r0, #35]	; 0x23
 80006ec:	2d00      	cmp	r5, #0
 80006ee:	d13a      	bne.n	8000766 <icmp_handle+0x8a>
 80006f0:	1d86      	adds	r6, r0, #6
 80006f2:	4631      	mov	r1, r6
 80006f4:	2206      	movs	r2, #6
 80006f6:	f003 fa42 	bl	8003b7e <memcpy.isra.0>
 80006fa:	4630      	mov	r0, r6
 80006fc:	491b      	ldr	r1, [pc, #108]	; (800076c <icmp_handle+0x90>)
 80006fe:	2206      	movs	r2, #6
 8000700:	f003 fa3d 	bl	8003b7e <memcpy.isra.0>
 8000704:	8a63      	ldrh	r3, [r4, #18]
 8000706:	f104 061a 	add.w	r6, r4, #26
 800070a:	43db      	mvns	r3, r3
 800070c:	4631      	mov	r1, r6
 800070e:	8263      	strh	r3, [r4, #18]
 8000710:	2204      	movs	r2, #4
 8000712:	f104 001e 	add.w	r0, r4, #30
 8000716:	f003 fa32 	bl	8003b7e <memcpy.isra.0>
 800071a:	4b15      	ldr	r3, [pc, #84]	; (8000770 <icmp_handle+0x94>)
 800071c:	2204      	movs	r2, #4
 800071e:	681b      	ldr	r3, [r3, #0]
 8000720:	9301      	str	r3, [sp, #4]
 8000722:	eb0d 0102 	add.w	r1, sp, r2
 8000726:	4630      	mov	r0, r6
 8000728:	f104 060e 	add.w	r6, r4, #14
 800072c:	f003 fa27 	bl	8003b7e <memcpy.isra.0>
 8000730:	2114      	movs	r1, #20
 8000732:	7625      	strb	r5, [r4, #24]
 8000734:	7665      	strb	r5, [r4, #25]
 8000736:	4630      	mov	r0, r6
 8000738:	f003 fa07 	bl	8003b4a <net_chksum>
 800073c:	8a21      	ldrh	r1, [r4, #16]
 800073e:	8320      	strh	r0, [r4, #24]
 8000740:	ba49      	rev16	r1, r1
 8000742:	b289      	uxth	r1, r1
 8000744:	f884 5022 	strb.w	r5, [r4, #34]	; 0x22
 8000748:	f884 5024 	strb.w	r5, [r4, #36]	; 0x24
 800074c:	f884 5025 	strb.w	r5, [r4, #37]	; 0x25
 8000750:	4630      	mov	r0, r6
 8000752:	f003 f9fa 	bl	8003b4a <net_chksum>
 8000756:	8a21      	ldrh	r1, [r4, #16]
 8000758:	84a0      	strh	r0, [r4, #36]	; 0x24
 800075a:	ba49      	rev16	r1, r1
 800075c:	b289      	uxth	r1, r1
 800075e:	310e      	adds	r1, #14
 8000760:	4620      	mov	r0, r4
 8000762:	f004 fa19 	bl	8004b98 <emac_eth_send>
 8000766:	b002      	add	sp, #8
 8000768:	bd70      	pop	{r4, r5, r6, pc}
 800076a:	bf00      	nop
 800076c:	20001160 	andcs	r1, r0, r0, ror #2
 8000770:	20001154 	andcs	r1, r0, r4, asr r1
 8000774:	08006bf8 	stmdaeq	r0, {r3, r4, r5, r6, r7, r8, r9, fp, sp, lr}
 8000778:	20000000 	andcs	r0, r0, r0
 800077c:	20000070 	andcs	r0, r0, r0, ror r0
 8000780:	20000070 	andcs	r0, r0, r0, ror r0
 8000784:	2000443c 	andcs	r4, r0, ip, lsr r4

08000788 <Reset_Handler>:
 8000788:	2100      	movs	r1, #0
 800078a:	e003      	b.n	8000794 <DataInit>

0800078c <CopyData>:
 800078c:	4b0a      	ldr	r3, [pc, #40]	; (80007b8 <Zerobss+0x10>)
 800078e:	585b      	ldr	r3, [r3, r1]
 8000790:	5043      	str	r3, [r0, r1]
 8000792:	3104      	adds	r1, #4

08000794 <DataInit>:
 8000794:	4809      	ldr	r0, [pc, #36]	; (80007bc <Zerobss+0x14>)
 8000796:	4b0a      	ldr	r3, [pc, #40]	; (80007c0 <Zerobss+0x18>)
 8000798:	1842      	adds	r2, r0, r1
 800079a:	429a      	cmp	r2, r3
 800079c:	d3f6      	bcc.n	800078c <CopyData>
 800079e:	4a09      	ldr	r2, [pc, #36]	; (80007c4 <Zerobss+0x1c>)
 80007a0:	e002      	b.n	80007a8 <Zerobss>

080007a2 <FillZerobss>:
 80007a2:	2300      	movs	r3, #0
 80007a4:	f842 3b04 	str.w	r3, [r2], #4

080007a8 <Zerobss>:
 80007a8:	4b07      	ldr	r3, [pc, #28]	; (80007c8 <Zerobss+0x20>)
 80007aa:	429a      	cmp	r2, r3
 80007ac:	d3f9      	bcc.n	80007a2 <FillZerobss>
 80007ae:	f003 fd41 	bl	8004234 <SystemInit>
 80007b2:	f000 f843 	bl	800083c <main>
 80007b6:	4770      	bx	lr
 80007b8:	08006bf8 	stmdaeq	r0, {r3, r4, r5, r6, r7, r8, r9, fp, sp, lr}
 80007bc:	20000000 	andcs	r0, r0, r0
 80007c0:	20000070 	andcs	r0, r0, r0, ror r0
 80007c4:	20000070 	andcs	r0, r0, r0, ror r0
 80007c8:	2000443c 	andcs	r4, r0, ip, lsr r4

080007cc <__aeabi_uldivmod>:
 80007cc:	b953      	cbnz	r3, 80007e4 <__aeabi_uldivmod+0x18>
 80007ce:	b94a      	cbnz	r2, 80007e4 <__aeabi_uldivmod+0x18>
 80007d0:	2900      	cmp	r1, #0
 80007d2:	bf08      	it	eq
 80007d4:	2800      	cmpeq	r0, #0
 80007d6:	bf1c      	itt	ne
 80007d8:	f04f 31ff 	movne.w	r1, #4294967295	; 0xffffffff
 80007dc:	f04f 30ff 	movne.w	r0, #4294967295	; 0xffffffff
 80007e0:	f000 b80c 	b.w	80007fc <__aeabi_idiv0>
 80007e4:	f1ad 0c08 	sub.w	ip, sp, #8
 80007e8:	e96d ce04 	strd	ip, lr, [sp, #-16]!
 80007ec:	f000 fc0c 	bl	8001008 <__udivmoddi4>
 80007f0:	f8dd e004 	ldr.w	lr, [sp, #4]
 80007f4:	e9dd 2302 	ldrd	r2, r3, [sp, #8]
 80007f8:	b004      	add	sp, #16
 80007fa:	4770      	bx	lr

080007fc <__aeabi_idiv0>:
 80007fc:	4770      	bx	lr
 80007fe:	bf00      	nop

08000800 <ADC_IRQHandler>:
 8000800:	e7fe      	b.n	8000800 <ADC_IRQHandler>

08000802 <Display::Printf(unsigned char, char const*, ...)>:
 8000802:	b40c      	push	{r2, r3}
 8000804:	b570      	push	{r4, r5, r6, lr}
 8000806:	6984      	ldr	r4, [r0, #24]
 8000808:	b08a      	sub	sp, #40	; 0x28
 800080a:	4605      	mov	r5, r0
 800080c:	460e      	mov	r6, r1
 800080e:	b174      	cbz	r4, 800082e <Display::Printf(unsigned char, char const*, ...)+0x2c>
 8000810:	ab0f      	add	r3, sp, #60	; 0x3c
 8000812:	9a0e      	ldr	r2, [sp, #56]	; 0x38
 8000814:	9301      	str	r3, [sp, #4]
 8000816:	2120      	movs	r1, #32
 8000818:	a802      	add	r0, sp, #8
 800081a:	f000 fbe5 	bl	8000fe8 <vsnprintf>
 800081e:	4604      	mov	r4, r0
 8000820:	69a8      	ldr	r0, [r5, #24]
 8000822:	6803      	ldr	r3, [r0, #0]
 8000824:	aa02      	add	r2, sp, #8
 8000826:	69dd      	ldr	r5, [r3, #28]
 8000828:	4631      	mov	r1, r6
 800082a:	b2a3      	uxth	r3, r4
 800082c:	47a8      	blx	r5
 800082e:	4620      	mov	r0, r4
 8000830:	b00a      	add	sp, #40	; 0x28
 8000832:	e8bd 4070 	ldmia.w	sp!, {r4, r5, r6, lr}
 8000836:	b002      	add	sp, #8
 8000838:	4770      	bx	lr

0800083a <Hardware::RebootHandler()>:
 800083a:	4770      	bx	lr

0800083c <main>:
 800083c:	b570      	push	{r4, r5, r6, lr}
 800083e:	f640 4001 	movw	r0, #3073	; 0xc01
 8000842:	b0e2      	sub	sp, #392	; 0x188
 8000844:	f003 ff14 	bl	8004670 <rcu_periph_clock_enable>
 8000848:	f241 001c 	movw	r0, #4124	; 0x101c
 800084c:	f003 ff10 	bl	8004670 <rcu_periph_clock_enable>
 8000850:	f44f 7000 	mov.w	r0, #512	; 0x200
 8000854:	f003 fef8 	bl	8004648 <pmu_backup_ldo_config>
 8000858:	f640 4012 	movw	r0, #3090	; 0xc12
 800085c:	f003 ff08 	bl	8004670 <rcu_periph_clock_enable>
 8000860:	f003 fefe 	bl	8004660 <pmu_backup_write_enable>
 8000864:	485e      	ldr	r0, [pc, #376]	; (80009e0 <main+0x1a4>)
 8000866:	f44f 4280 	mov.w	r2, #16384	; 0x4000
 800086a:	2100      	movs	r1, #0
 800086c:	f003 febf 	bl	80045ee <gpio_af_set>
 8000870:	f44f 4380 	mov.w	r3, #16384	; 0x4000
 8000874:	485a      	ldr	r0, [pc, #360]	; (80009e0 <main+0x1a4>)
 8000876:	2201      	movs	r2, #1
 8000878:	2100      	movs	r1, #0
 800087a:	f003 fe77 	bl	800456c <gpio_mode_set>
 800087e:	2001      	movs	r0, #1
 8000880:	f004 f994 	bl	8004bac <bkp_data_read(bkp_data_register_enum)>
 8000884:	f24a 53a5 	movw	r3, #42405	; 0xa5a5
 8000888:	4298      	cmp	r0, r3
 800088a:	d02e      	beq.n	80008ea <main+0xae>
 800088c:	4854      	ldr	r0, [pc, #336]	; (80009e0 <main+0x1a4>)
 800088e:	f44f 4180 	mov.w	r1, #16384	; 0x4000
 8000892:	f003 fea6 	bl	80045e2 <gpio_input_bit_get>
 8000896:	b340      	cbz	r0, 80008ea <main+0xae>
 8000898:	b672      	cpsid	i
 800089a:	4b52      	ldr	r3, [pc, #328]	; (80009e4 <main+0x1a8>)
 800089c:	4a52      	ldr	r2, [pc, #328]	; (80009e8 <main+0x1ac>)
 800089e:	20ff      	movs	r0, #255	; 0xff
 80008a0:	4619      	mov	r1, r3
 80008a2:	3301      	adds	r3, #1
 80008a4:	4293      	cmp	r3, r2
 80008a6:	7008      	strb	r0, [r1, #0]
 80008a8:	d1fa      	bne.n	80008a0 <main+0x64>
 80008aa:	4b50      	ldr	r3, [pc, #320]	; (80009ec <main+0x1b0>)
 80008ac:	4a50      	ldr	r2, [pc, #320]	; (80009f0 <main+0x1b4>)
 80008ae:	20ff      	movs	r0, #255	; 0xff
 80008b0:	4619      	mov	r1, r3
 80008b2:	3301      	adds	r3, #1
 80008b4:	4293      	cmp	r3, r2
 80008b6:	7008      	strb	r0, [r1, #0]
 80008b8:	d1fa      	bne.n	80008b0 <main+0x74>
 80008ba:	f04f 23e0 	mov.w	r3, #3758153728	; 0xe000e000
 80008be:	2100      	movs	r1, #0
 80008c0:	6119      	str	r1, [r3, #16]
 80008c2:	f8d3 2d04 	ldr.w	r2, [r3, #3332]	; 0xd04
 80008c6:	f042 7200 	orr.w	r2, r2, #33554432	; 0x2000000
 80008ca:	f8c3 2d04 	str.w	r2, [r3, #3332]	; 0xd04
 80008ce:	4a49      	ldr	r2, [pc, #292]	; (80009f4 <main+0x1b8>)
 80008d0:	f8c3 2d08 	str.w	r2, [r3, #3336]	; 0xd08
 80008d4:	f503 6350 	add.w	r3, r3, #3328	; 0xd00
 80008d8:	689b      	ldr	r3, [r3, #8]
 80008da:	681b      	ldr	r3, [r3, #0]
 80008dc:	f383 8808 	msr	MSP, r3
 80008e0:	f381 8814 	msr	CONTROL, r1
 80008e4:	b662      	cpsie	i
 80008e6:	6853      	ldr	r3, [r2, #4]
 80008e8:	4718      	bx	r3
 80008ea:	a801      	add	r0, sp, #4
 80008ec:	f003 fa44 	bl	8003d78 <Hardware::Hardware()>
 80008f0:	a82f      	add	r0, sp, #188	; 0xbc
 80008f2:	f002 fb85 	bl	8003000 <Network::Network()>
 80008f6:	2104      	movs	r1, #4
 80008f8:	a813      	add	r0, sp, #76	; 0x4c
 80008fa:	f000 fd6b 	bl	80013d4 <Display::Display(unsigned int)>
 80008fe:	a807      	add	r0, sp, #28
 8000900:	f003 f9de 	bl	8003cc0 <LedBlink::LedBlink()>
 8000904:	4a3c      	ldr	r2, [pc, #240]	; (80009f8 <main+0x1bc>)
 8000906:	4b3d      	ldr	r3, [pc, #244]	; (80009fc <main+0x1c0>)
 8000908:	493d      	ldr	r1, [pc, #244]	; (8000a00 <main+0x1c4>)
 800090a:	a802      	add	r0, sp, #8
 800090c:	f003 f992 	bl	8003c34 <FirmwareVersion::FirmwareVersion(char const*, char const*, char const*)>
 8000910:	493c      	ldr	r1, [pc, #240]	; (8000a04 <main+0x1c8>)
 8000912:	a802      	add	r0, sp, #8
 8000914:	f003 f9c6 	bl	8003ca4 <FirmwareVersion::Print(char const*)>
 8000918:	a80d      	add	r0, sp, #52	; 0x34
 800091a:	f001 fdf1 	bl	8002500 <SpiFlashInstall::SpiFlashInstall()>
 800091e:	a803      	add	r0, sp, #12
 8000920:	f001 f81a 	bl	8001958 <SpiFlashStore::SpiFlashStore()>
 8000924:	a805      	add	r0, sp, #20
 8000926:	f001 f99d 	bl	8001c64 <StoreNetwork::StoreNetwork()>
 800092a:	ab06      	add	r3, sp, #24
 800092c:	a905      	add	r1, sp, #20
 800092e:	a82f      	add	r0, sp, #188	; 0xbc
 8000930:	935d      	str	r3, [sp, #372]	; 0x174
 8000932:	f002 fbb9 	bl	80030a8 <Network::Init(NetworkParamsStore*)>
 8000936:	a82f      	add	r0, sp, #188	; 0xbc
 8000938:	f002 fd02 	bl	8003340 <Network::Print()>
 800093c:	2101      	movs	r1, #1
 800093e:	a807      	add	r0, sp, #28
 8000940:	f003 f9e8 	bl	8003d14 <LedBlink::SetMode(ledblink::Mode)>
 8000944:	2300      	movs	r3, #0
 8000946:	2206      	movs	r2, #6
 8000948:	2109      	movs	r1, #9
 800094a:	a823      	add	r0, sp, #140	; 0x8c
 800094c:	f001 fb92 	bl	8002074 <RemoteConfig::RemoteConfig(remoteconfig::Node, remoteconfig::Output, unsigned int)>
 8000950:	a804      	add	r0, sp, #16
 8000952:	f001 f9bd 	bl	8001cd0 <StoreRemoteConfig::StoreRemoteConfig()>
 8000956:	a904      	add	r1, sp, #16
 8000958:	a81a      	add	r0, sp, #104	; 0x68
 800095a:	f001 fc9d 	bl	8002298 <RemoteConfigParams::RemoteConfigParams(RemoteConfigParamsStore*)>
 800095e:	a81a      	add	r0, sp, #104	; 0x68
 8000960:	f001 fca4 	bl	80022ac <RemoteConfigParams::Load()>
 8000964:	b118      	cbz	r0, 800096e <main+0x132>
 8000966:	a923      	add	r1, sp, #140	; 0x8c
 8000968:	a81a      	add	r0, sp, #104	; 0x68
 800096a:	f001 fcab 	bl	80022c4 <RemoteConfigParams::Set(RemoteConfig*)>
 800096e:	2301      	movs	r3, #1
 8000970:	2104      	movs	r1, #4
 8000972:	a807      	add	r0, sp, #28
 8000974:	f88d 309a 	strb.w	r3, [sp, #154]	; 0x9a
 8000978:	f003 f9cc 	bl	8003d14 <LedBlink::SetMode(ledblink::Mode)>
 800097c:	4a22      	ldr	r2, [pc, #136]	; (8000a08 <main+0x1cc>)
 800097e:	2103      	movs	r1, #3
 8000980:	a813      	add	r0, sp, #76	; 0x4c
 8000982:	f7ff ff3e 	bl	8000802 <Display::Printf(unsigned char, char const*, ...)>
 8000986:	2102      	movs	r1, #2
 8000988:	f64f 70ff 	movw	r0, #65535	; 0xffff
 800098c:	f003 fdc4 	bl	8004518 <fwdgt_config>
 8000990:	2801      	cmp	r0, #1
 8000992:	bf0c      	ite	eq
 8000994:	2301      	moveq	r3, #1
 8000996:	2300      	movne	r3, #0
 8000998:	f88d 3004 	strb.w	r3, [sp, #4]
 800099c:	d101      	bne.n	80009a2 <main+0x166>
 800099e:	f003 fdab 	bl	80044f8 <fwdgt_enable>
 80009a2:	4d1a      	ldr	r5, [pc, #104]	; (8000a0c <main+0x1d0>)
 80009a4:	4c1a      	ldr	r4, [pc, #104]	; (8000a10 <main+0x1d4>)
 80009a6:	2601      	movs	r6, #1
 80009a8:	f003 fdae 	bl	8004508 <fwdgt_counter_reload>
 80009ac:	f7ff fdb6 	bl	800051c <net_handle>
 80009b0:	a823      	add	r0, sp, #140	; 0x8c
 80009b2:	f001 fbcd 	bl	8002150 <RemoteConfig::Run()>
 80009b6:	9a0a      	ldr	r2, [sp, #40]	; 0x28
 80009b8:	2a00      	cmp	r2, #0
 80009ba:	d0f5      	beq.n	80009a8 <main+0x16c>
 80009bc:	682b      	ldr	r3, [r5, #0]
 80009be:	990c      	ldr	r1, [sp, #48]	; 0x30
 80009c0:	1a5b      	subs	r3, r3, r1
 80009c2:	429a      	cmp	r2, r3
 80009c4:	d8f0      	bhi.n	80009a8 <main+0x16c>
 80009c6:	682b      	ldr	r3, [r5, #0]
 80009c8:	930c      	str	r3, [sp, #48]	; 0x30
 80009ca:	9b0b      	ldr	r3, [sp, #44]	; 0x2c
 80009cc:	2b01      	cmp	r3, #1
 80009ce:	f083 0201 	eor.w	r2, r3, #1
 80009d2:	920b      	str	r2, [sp, #44]	; 0x2c
 80009d4:	bf14      	ite	ne
 80009d6:	f8c4 6818 	strne.w	r6, [r4, #2072]	; 0x818
 80009da:	f8c4 3828 	streq.w	r3, [r4, #2088]	; 0x828
 80009de:	e7e3      	b.n	80009a8 <main+0x16c>
 80009e0:	40020400 	andmi	r0, r2, r0, lsl #8
 80009e4:	e000e180 	and	lr, r0, r0, lsl #3
 80009e8:	e000e1a0 	and	lr, r0, r0, lsr #3
 80009ec:	e000e280 	and	lr, r0, r0, lsl #5
 80009f0:	e000e2a0 	and	lr, r0, r0, lsr #5
 80009f4:	08008000 	stmdaeq	r0, {pc}
 80009f8:	08006109 	stmdaeq	r0, {r0, r3, r8, sp, lr}
 80009fc:	08006100 	stmdaeq	r0, {r8, sp, lr}
 8000a00:	08006141 	stmdaeq	r0, {r0, r6, r8, sp, lr}
 8000a04:	08006115 	stmdaeq	r0, {r0, r2, r4, r8, sp, lr}
 8000a08:	0800612c 	stmdaeq	r0, {r2, r3, r5, r8, sp, lr}
 8000a0c:	200031dc 	ldrdcs	r3, [r0], -ip
 8000a10:	40020000 	andmi	r0, r2, r0

08000a14 <Display::PutString(char const*) [clone .isra.0]>:
 8000a14:	b110      	cbz	r0, 8000a1c <Display::PutString(char const*) [clone .isra.0]+0x8>
 8000a16:	6803      	ldr	r3, [r0, #0]
 8000a18:	699b      	ldr	r3, [r3, #24]
 8000a1a:	4718      	bx	r3
 8000a1c:	4770      	bx	lr

08000a1e <Display::ClearLine(unsigned char) [clone .isra.0]>:
 8000a1e:	b110      	cbz	r0, 8000a26 <Display::ClearLine(unsigned char) [clone .isra.0]+0x8>
 8000a20:	6803      	ldr	r3, [r0, #0]
 8000a22:	691b      	ldr	r3, [r3, #16]
 8000a24:	4718      	bx	r3
 8000a26:	4770      	bx	lr

08000a28 <Display::Status(Display7SegmentMessage)>:
 8000a28:	7c43      	ldrb	r3, [r0, #17]
 8000a2a:	b513      	push	{r0, r1, r4, lr}
 8000a2c:	4604      	mov	r4, r0
 8000a2e:	b19b      	cbz	r3, 8000a58 <Display::Status(Display7SegmentMessage)+0x30>
 8000a30:	43c9      	mvns	r1, r1
 8000a32:	2312      	movs	r3, #18
 8000a34:	7a00      	ldrb	r0, [r0, #8]
 8000a36:	f88d 3004 	strb.w	r3, [sp, #4]
 8000a3a:	f3c1 2307 	ubfx	r3, r1, #8, #8
 8000a3e:	f88d 1006 	strb.w	r1, [sp, #6]
 8000a42:	f88d 3005 	strb.w	r3, [sp, #5]
 8000a46:	f004 f96d 	bl	8004d24 <gd32_i2c_set_address>
 8000a4a:	68e0      	ldr	r0, [r4, #12]
 8000a4c:	f004 f962 	bl	8004d14 <gd32_i2c_set_baudrate>
 8000a50:	2103      	movs	r1, #3
 8000a52:	a801      	add	r0, sp, #4
 8000a54:	f004 f96c 	bl	8004d30 <gd32_i2c_write>
 8000a58:	b002      	add	sp, #8
 8000a5a:	bd10      	pop	{r4, pc}

08000a5c <NetworkDisplay::ShowEmacStart()>:
 8000a5c:	b510      	push	{r4, lr}
 8000a5e:	4c06      	ldr	r4, [pc, #24]	; (8000a78 <NetworkDisplay::ShowEmacStart()+0x1c>)
 8000a60:	6823      	ldr	r3, [r4, #0]
 8000a62:	2102      	movs	r1, #2
 8000a64:	6998      	ldr	r0, [r3, #24]
 8000a66:	f7ff ffda 	bl	8000a1e <Display::ClearLine(unsigned char) [clone .isra.0]>
 8000a6a:	6823      	ldr	r3, [r4, #0]
 8000a6c:	4903      	ldr	r1, [pc, #12]	; (8000a7c <NetworkDisplay::ShowEmacStart()+0x20>)
 8000a6e:	6998      	ldr	r0, [r3, #24]
 8000a70:	e8bd 4010 	ldmia.w	sp!, {r4, lr}
 8000a74:	f7ff bfce 	b.w	8000a14 <Display::PutString(char const*) [clone .isra.0]>
 8000a78:	20000074 	andcs	r0, r0, r4, ror r0
 8000a7c:	08006145 	stmdaeq	r0, {r0, r2, r6, r8, sp, lr}

08000a80 <NetworkDisplay::ShowIp()>:
 8000a80:	e92d 41f0 	stmdb	sp!, {r4, r5, r6, r7, r8, lr}
 8000a84:	4c15      	ldr	r4, [pc, #84]	; (8000adc <NetworkDisplay::ShowIp()+0x5c>)
 8000a86:	6823      	ldr	r3, [r4, #0]
 8000a88:	b088      	sub	sp, #32
 8000a8a:	6998      	ldr	r0, [r3, #24]
 8000a8c:	2102      	movs	r1, #2
 8000a8e:	f7ff ffc6 	bl	8000a1e <Display::ClearLine(unsigned char) [clone .isra.0]>
 8000a92:	4b13      	ldr	r3, [pc, #76]	; (8000ae0 <NetworkDisplay::ShowIp()+0x60>)
 8000a94:	6826      	ldr	r6, [r4, #0]
 8000a96:	681d      	ldr	r5, [r3, #0]
 8000a98:	696c      	ldr	r4, [r5, #20]
 8000a9a:	69e8      	ldr	r0, [r5, #28]
 8000a9c:	b2e3      	uxtb	r3, r4
 8000a9e:	9307      	str	r3, [sp, #28]
 8000aa0:	f000 f86c 	bl	8000b7c <__popcountsi2>
 8000aa4:	79ea      	ldrb	r2, [r5, #7]
 8000aa6:	9b07      	ldr	r3, [sp, #28]
 8000aa8:	f3c4 2707 	ubfx	r7, r4, #8, #8
 8000aac:	f3c4 4807 	ubfx	r8, r4, #16, #8
 8000ab0:	0e24      	lsrs	r4, r4, #24
 8000ab2:	b98a      	cbnz	r2, 8000ad8 <NetworkDisplay::ShowIp()+0x58>
 8000ab4:	796a      	ldrb	r2, [r5, #5]
 8000ab6:	2a00      	cmp	r2, #0
 8000ab8:	bf14      	ite	ne
 8000aba:	2244      	movne	r2, #68	; 0x44
 8000abc:	2253      	moveq	r2, #83	; 0x53
 8000abe:	e9cd 0203 	strd	r0, r2, [sp, #12]
 8000ac2:	e9cd 8401 	strd	r8, r4, [sp, #4]
 8000ac6:	4a07      	ldr	r2, [pc, #28]	; (8000ae4 <NetworkDisplay::ShowIp()+0x64>)
 8000ac8:	9700      	str	r7, [sp, #0]
 8000aca:	2102      	movs	r1, #2
 8000acc:	4630      	mov	r0, r6
 8000ace:	f7ff fe98 	bl	8000802 <Display::Printf(unsigned char, char const*, ...)>
 8000ad2:	b008      	add	sp, #32
 8000ad4:	e8bd 81f0 	ldmia.w	sp!, {r4, r5, r6, r7, r8, pc}
 8000ad8:	225a      	movs	r2, #90	; 0x5a
 8000ada:	e7f0      	b.n	8000abe <NetworkDisplay::ShowIp()+0x3e>
 8000adc:	20000074 	andcs	r0, r0, r4, ror r0
 8000ae0:	20002eb0 			; <UNDEFINED> instruction: 0x20002eb0
 8000ae4:	08006154 	stmdaeq	r0, {r2, r4, r6, r8, sp, lr}

08000ae8 <NetworkDisplay::ShowShutdown()>:
 8000ae8:	b510      	push	{r4, lr}
 8000aea:	4c06      	ldr	r4, [pc, #24]	; (8000b04 <NetworkDisplay::ShowShutdown()+0x1c>)
 8000aec:	6823      	ldr	r3, [r4, #0]
 8000aee:	2102      	movs	r1, #2
 8000af0:	6998      	ldr	r0, [r3, #24]
 8000af2:	f7ff ff94 	bl	8000a1e <Display::ClearLine(unsigned char) [clone .isra.0]>
 8000af6:	6823      	ldr	r3, [r4, #0]
 8000af8:	4903      	ldr	r1, [pc, #12]	; (8000b08 <NetworkDisplay::ShowShutdown()+0x20>)
 8000afa:	6998      	ldr	r0, [r3, #24]
 8000afc:	e8bd 4010 	ldmia.w	sp!, {r4, lr}
 8000b00:	f7ff bf88 	b.w	8000a14 <Display::PutString(char const*) [clone .isra.0]>
 8000b04:	20000074 	andcs	r0, r0, r4, ror r0
 8000b08:	08006166 	stmdaeq	r0, {r1, r2, r5, r6, r8, sp, lr}

08000b0c <NetworkDisplay::ShowDhcpStatus(network::dhcp::ClientStatus)>:
 8000b0c:	b538      	push	{r3, r4, r5, lr}
 8000b0e:	4c16      	ldr	r4, [pc, #88]	; (8000b68 <NetworkDisplay::ShowDhcpStatus(network::dhcp::ClientStatus)+0x5c>)
 8000b10:	6823      	ldr	r3, [r4, #0]
 8000b12:	460d      	mov	r5, r1
 8000b14:	6998      	ldr	r0, [r3, #24]
 8000b16:	2102      	movs	r1, #2
 8000b18:	f7ff ff81 	bl	8000a1e <Display::ClearLine(unsigned char) [clone .isra.0]>
 8000b1c:	1e69      	subs	r1, r5, #1
 8000b1e:	2903      	cmp	r1, #3
 8000b20:	d815      	bhi.n	8000b4e <NetworkDisplay::ShowDhcpStatus(network::dhcp::ClientStatus)+0x42>
 8000b22:	e8df f001 	tbb	[pc, r1]
 8000b26:	18150a02 	ldmdane	r5, {r1, r9, fp}
 8000b2a:	6823      	ldr	r3, [r4, #0]
 8000b2c:	490f      	ldr	r1, [pc, #60]	; (8000b6c <NetworkDisplay::ShowDhcpStatus(network::dhcp::ClientStatus)+0x60>)
 8000b2e:	6998      	ldr	r0, [r3, #24]
 8000b30:	f7ff ff70 	bl	8000a14 <Display::PutString(char const*) [clone .isra.0]>
 8000b34:	f44f 41b6 	mov.w	r1, #23296	; 0x5b00
 8000b38:	e006      	b.n	8000b48 <NetworkDisplay::ShowDhcpStatus(network::dhcp::ClientStatus)+0x3c>
 8000b3a:	6823      	ldr	r3, [r4, #0]
 8000b3c:	490c      	ldr	r1, [pc, #48]	; (8000b70 <NetworkDisplay::ShowDhcpStatus(network::dhcp::ClientStatus)+0x64>)
 8000b3e:	6998      	ldr	r0, [r3, #24]
 8000b40:	f7ff ff68 	bl	8000a14 <Display::PutString(char const*) [clone .isra.0]>
 8000b44:	f248 0180 	movw	r1, #32896	; 0x8080
 8000b48:	6820      	ldr	r0, [r4, #0]
 8000b4a:	f7ff ff6d 	bl	8000a28 <Display::Status(Display7SegmentMessage)>
 8000b4e:	bd38      	pop	{r3, r4, r5, pc}
 8000b50:	6823      	ldr	r3, [r4, #0]
 8000b52:	4908      	ldr	r1, [pc, #32]	; (8000b74 <NetworkDisplay::ShowDhcpStatus(network::dhcp::ClientStatus)+0x68>)
 8000b54:	e7eb      	b.n	8000b2e <NetworkDisplay::ShowDhcpStatus(network::dhcp::ClientStatus)+0x22>
 8000b56:	6823      	ldr	r3, [r4, #0]
 8000b58:	4907      	ldr	r1, [pc, #28]	; (8000b78 <NetworkDisplay::ShowDhcpStatus(network::dhcp::ClientStatus)+0x6c>)
 8000b5a:	6998      	ldr	r0, [r3, #24]
 8000b5c:	f7ff ff5a 	bl	8000a14 <Display::PutString(char const*) [clone .isra.0]>
 8000b60:	f645 3179 	movw	r1, #23417	; 0x5b79
 8000b64:	e7f0      	b.n	8000b48 <NetworkDisplay::ShowDhcpStatus(network::dhcp::ClientStatus)+0x3c>
 8000b66:	bf00      	nop
 8000b68:	20000074 	andcs	r0, r0, r4, ror r0
 8000b6c:	08006178 	stmdaeq	r0, {r3, r4, r5, r6, r8, sp, lr}
 8000b70:	08006186 	stmdaeq	r0, {r1, r2, r7, r8, sp, lr}
 8000b74:	0800618d 	stmdaeq	r0, {r0, r2, r3, r7, r8, sp, lr}
 8000b78:	0800619b 	stmdaeq	r0, {r0, r1, r3, r4, r7, r8, sp, lr}

08000b7c <__popcountsi2>:
 8000b7c:	0843      	lsrs	r3, r0, #1
 8000b7e:	f003 3355 	and.w	r3, r3, #1431655765	; 0x55555555
 8000b82:	1ac0      	subs	r0, r0, r3
 8000b84:	0883      	lsrs	r3, r0, #2
 8000b86:	f003 3333 	and.w	r3, r3, #858993459	; 0x33333333
 8000b8a:	f000 3033 	and.w	r0, r0, #858993459	; 0x33333333
 8000b8e:	4418      	add	r0, r3
 8000b90:	eb00 1010 	add.w	r0, r0, r0, lsr #4
 8000b94:	f000 300f 	and.w	r0, r0, #252645135	; 0xf0f0f0f
 8000b98:	eb00 2000 	add.w	r0, r0, r0, lsl #8
 8000b9c:	eb00 4000 	add.w	r0, r0, r0, lsl #16
 8000ba0:	0e00      	lsrs	r0, r0, #24
 8000ba2:	4770      	bx	lr

08000ba4 <_xputch>:
 8000ba4:	4603      	mov	r3, r0
 8000ba6:	b410      	push	{r4}
 8000ba8:	4c09      	ldr	r4, [pc, #36]	; (8000bd0 <_xputch+0x2c>)
 8000baa:	68da      	ldr	r2, [r3, #12]
 8000bac:	4608      	mov	r0, r1
 8000bae:	6821      	ldr	r1, [r4, #0]
 8000bb0:	3201      	adds	r2, #1
 8000bb2:	60da      	str	r2, [r3, #12]
 8000bb4:	b141      	cbz	r1, 8000bc8 <_xputch+0x24>
 8000bb6:	691b      	ldr	r3, [r3, #16]
 8000bb8:	429a      	cmp	r2, r3
 8000bba:	da02      	bge.n	8000bc2 <_xputch+0x1e>
 8000bbc:	1c4b      	adds	r3, r1, #1
 8000bbe:	6023      	str	r3, [r4, #0]
 8000bc0:	7008      	strb	r0, [r1, #0]
 8000bc2:	f85d 4b04 	ldr.w	r4, [sp], #4
 8000bc6:	4770      	bx	lr
 8000bc8:	f85d 4b04 	ldr.w	r4, [sp], #4
 8000bcc:	f002 bfe1 	b.w	8003b92 <console_putc>
 8000bd0:	20000070 	andcs	r0, r0, r0, ror r0

08000bd4 <_format_int>:
 8000bd4:	e92d 43f0 	stmdb	sp!, {r4, r5, r6, r7, r8, r9, lr}
 8000bd8:	4698      	mov	r8, r3
 8000bda:	b091      	sub	sp, #68	; 0x44
 8000bdc:	ea52 0308 	orrs.w	r3, r2, r8
 8000be0:	4606      	mov	r6, r0
 8000be2:	4617      	mov	r7, r2
 8000be4:	f10d 053f 	add.w	r5, sp, #63	; 0x3f
 8000be8:	d133      	bne.n	8000c52 <_format_int+0x7e>
 8000bea:	2330      	movs	r3, #48	; 0x30
 8000bec:	f88d 303f 	strb.w	r3, [sp, #63]	; 0x3f
 8000bf0:	f10d 043e 	add.w	r4, sp, #62	; 0x3e
 8000bf4:	6833      	ldr	r3, [r6, #0]
 8000bf6:	07d8      	lsls	r0, r3, #31
 8000bf8:	d507      	bpl.n	8000c0a <_format_int+0x36>
 8000bfa:	6871      	ldr	r1, [r6, #4]
 8000bfc:	466a      	mov	r2, sp
 8000bfe:	2030      	movs	r0, #48	; 0x30
 8000c00:	1b2f      	subs	r7, r5, r4
 8000c02:	428f      	cmp	r7, r1
 8000c04:	da01      	bge.n	8000c0a <_format_int+0x36>
 8000c06:	4294      	cmp	r4, r2
 8000c08:	d839      	bhi.n	8000c7e <_format_int+0xaa>
 8000c0a:	0699      	lsls	r1, r3, #26
 8000c0c:	d507      	bpl.n	8000c1e <_format_int+0x4a>
 8000c0e:	68b1      	ldr	r1, [r6, #8]
 8000c10:	466a      	mov	r2, sp
 8000c12:	2030      	movs	r0, #48	; 0x30
 8000c14:	1b2f      	subs	r7, r5, r4
 8000c16:	428f      	cmp	r7, r1
 8000c18:	da01      	bge.n	8000c1e <_format_int+0x4a>
 8000c1a:	4294      	cmp	r4, r2
 8000c1c:	d832      	bhi.n	8000c84 <_format_int+0xb0>
 8000c1e:	071a      	lsls	r2, r3, #28
 8000c20:	bf44      	itt	mi
 8000c22:	222d      	movmi	r2, #45	; 0x2d
 8000c24:	f804 2901 	strbmi.w	r2, [r4], #-1
 8000c28:	065b      	lsls	r3, r3, #25
 8000c2a:	d407      	bmi.n	8000c3c <_format_int+0x68>
 8000c2c:	68b2      	ldr	r2, [r6, #8]
 8000c2e:	466b      	mov	r3, sp
 8000c30:	2120      	movs	r1, #32
 8000c32:	1b28      	subs	r0, r5, r4
 8000c34:	4290      	cmp	r0, r2
 8000c36:	da01      	bge.n	8000c3c <_format_int+0x68>
 8000c38:	429c      	cmp	r4, r3
 8000c3a:	d826      	bhi.n	8000c8a <_format_int+0xb6>
 8000c3c:	1b2d      	subs	r5, r5, r4
 8000c3e:	3401      	adds	r4, #1
 8000c40:	ab10      	add	r3, sp, #64	; 0x40
 8000c42:	429c      	cmp	r4, r3
 8000c44:	d324      	bcc.n	8000c90 <_format_int+0xbc>
 8000c46:	68b3      	ldr	r3, [r6, #8]
 8000c48:	42ab      	cmp	r3, r5
 8000c4a:	dc27      	bgt.n	8000c9c <_format_int+0xc8>
 8000c4c:	b011      	add	sp, #68	; 0x44
 8000c4e:	e8bd 83f0 	ldmia.w	sp!, {r4, r5, r6, r7, r8, r9, pc}
 8000c52:	462c      	mov	r4, r5
 8000c54:	46e9      	mov	r9, sp
 8000c56:	4638      	mov	r0, r7
 8000c58:	4641      	mov	r1, r8
 8000c5a:	220a      	movs	r2, #10
 8000c5c:	2300      	movs	r3, #0
 8000c5e:	f7ff fdb5 	bl	80007cc <__aeabi_uldivmod>
 8000c62:	3230      	adds	r2, #48	; 0x30
 8000c64:	f804 2901 	strb.w	r2, [r4], #-1
 8000c68:	463a      	mov	r2, r7
 8000c6a:	4643      	mov	r3, r8
 8000c6c:	2a0a      	cmp	r2, #10
 8000c6e:	f173 0300 	sbcs.w	r3, r3, #0
 8000c72:	4607      	mov	r7, r0
 8000c74:	4688      	mov	r8, r1
 8000c76:	d3bd      	bcc.n	8000bf4 <_format_int+0x20>
 8000c78:	454c      	cmp	r4, r9
 8000c7a:	d1ec      	bne.n	8000c56 <_format_int+0x82>
 8000c7c:	e7ba      	b.n	8000bf4 <_format_int+0x20>
 8000c7e:	f804 0901 	strb.w	r0, [r4], #-1
 8000c82:	e7bd      	b.n	8000c00 <_format_int+0x2c>
 8000c84:	f804 0901 	strb.w	r0, [r4], #-1
 8000c88:	e7c4      	b.n	8000c14 <_format_int+0x40>
 8000c8a:	f804 1901 	strb.w	r1, [r4], #-1
 8000c8e:	e7d0      	b.n	8000c32 <_format_int+0x5e>
 8000c90:	f814 1b01 	ldrb.w	r1, [r4], #1
 8000c94:	4630      	mov	r0, r6
 8000c96:	f7ff ff85 	bl	8000ba4 <_xputch>
 8000c9a:	e7d1      	b.n	8000c40 <_format_int+0x6c>
 8000c9c:	2120      	movs	r1, #32
 8000c9e:	4630      	mov	r0, r6
 8000ca0:	f7ff ff80 	bl	8000ba4 <_xputch>
 8000ca4:	3501      	adds	r5, #1
 8000ca6:	e7ce      	b.n	8000c46 <_format_int+0x72>

08000ca8 <_format_hex>:
 8000ca8:	b5f0      	push	{r4, r5, r6, r7, lr}
 8000caa:	b091      	sub	sp, #68	; 0x44
 8000cac:	6804      	ldr	r4, [r0, #0]
 8000cae:	4606      	mov	r6, r0
 8000cb0:	f10d 023f 	add.w	r2, sp, #63	; 0x3f
 8000cb4:	bb61      	cbnz	r1, 8000d10 <_format_hex+0x68>
 8000cb6:	2330      	movs	r3, #48	; 0x30
 8000cb8:	f88d 303f 	strb.w	r3, [sp, #63]	; 0x3f
 8000cbc:	f10d 033e 	add.w	r3, sp, #62	; 0x3e
 8000cc0:	07e5      	lsls	r5, r4, #31
 8000cc2:	d507      	bpl.n	8000cd4 <_format_hex+0x2c>
 8000cc4:	6870      	ldr	r0, [r6, #4]
 8000cc6:	4669      	mov	r1, sp
 8000cc8:	2530      	movs	r5, #48	; 0x30
 8000cca:	1ad7      	subs	r7, r2, r3
 8000ccc:	4287      	cmp	r7, r0
 8000cce:	da01      	bge.n	8000cd4 <_format_hex+0x2c>
 8000cd0:	428b      	cmp	r3, r1
 8000cd2:	d831      	bhi.n	8000d38 <_format_hex+0x90>
 8000cd4:	06a0      	lsls	r0, r4, #26
 8000cd6:	d507      	bpl.n	8000ce8 <_format_hex+0x40>
 8000cd8:	68b0      	ldr	r0, [r6, #8]
 8000cda:	4669      	mov	r1, sp
 8000cdc:	2530      	movs	r5, #48	; 0x30
 8000cde:	1ad7      	subs	r7, r2, r3
 8000ce0:	4287      	cmp	r7, r0
 8000ce2:	da01      	bge.n	8000ce8 <_format_hex+0x40>
 8000ce4:	428b      	cmp	r3, r1
 8000ce6:	d82a      	bhi.n	8000d3e <_format_hex+0x96>
 8000ce8:	0661      	lsls	r1, r4, #25
 8000cea:	d407      	bmi.n	8000cfc <_format_hex+0x54>
 8000cec:	68b0      	ldr	r0, [r6, #8]
 8000cee:	4669      	mov	r1, sp
 8000cf0:	2420      	movs	r4, #32
 8000cf2:	1ad5      	subs	r5, r2, r3
 8000cf4:	4285      	cmp	r5, r0
 8000cf6:	da01      	bge.n	8000cfc <_format_hex+0x54>
 8000cf8:	428b      	cmp	r3, r1
 8000cfa:	d823      	bhi.n	8000d44 <_format_hex+0x9c>
 8000cfc:	1ad5      	subs	r5, r2, r3
 8000cfe:	1c5c      	adds	r4, r3, #1
 8000d00:	ab10      	add	r3, sp, #64	; 0x40
 8000d02:	429c      	cmp	r4, r3
 8000d04:	d321      	bcc.n	8000d4a <_format_hex+0xa2>
 8000d06:	68b3      	ldr	r3, [r6, #8]
 8000d08:	429d      	cmp	r5, r3
 8000d0a:	db24      	blt.n	8000d56 <_format_hex+0xae>
 8000d0c:	b011      	add	sp, #68	; 0x44
 8000d0e:	bdf0      	pop	{r4, r5, r6, r7, pc}
 8000d10:	f014 0f02 	tst.w	r4, #2
 8000d14:	bf0c      	ite	eq
 8000d16:	2757      	moveq	r7, #87	; 0x57
 8000d18:	2737      	movne	r7, #55	; 0x37
 8000d1a:	4613      	mov	r3, r2
 8000d1c:	466d      	mov	r5, sp
 8000d1e:	f001 000f 	and.w	r0, r1, #15
 8000d22:	2809      	cmp	r0, #9
 8000d24:	bf94      	ite	ls
 8000d26:	3030      	addls	r0, #48	; 0x30
 8000d28:	19c0      	addhi	r0, r0, r7
 8000d2a:	0909      	lsrs	r1, r1, #4
 8000d2c:	f803 0901 	strb.w	r0, [r3], #-1
 8000d30:	d0c6      	beq.n	8000cc0 <_format_hex+0x18>
 8000d32:	42ab      	cmp	r3, r5
 8000d34:	d1f3      	bne.n	8000d1e <_format_hex+0x76>
 8000d36:	e7c3      	b.n	8000cc0 <_format_hex+0x18>
 8000d38:	f803 5901 	strb.w	r5, [r3], #-1
 8000d3c:	e7c5      	b.n	8000cca <_format_hex+0x22>
 8000d3e:	f803 5901 	strb.w	r5, [r3], #-1
 8000d42:	e7cc      	b.n	8000cde <_format_hex+0x36>
 8000d44:	f803 4901 	strb.w	r4, [r3], #-1
 8000d48:	e7d3      	b.n	8000cf2 <_format_hex+0x4a>
 8000d4a:	f814 1b01 	ldrb.w	r1, [r4], #1
 8000d4e:	4630      	mov	r0, r6
 8000d50:	f7ff ff28 	bl	8000ba4 <_xputch>
 8000d54:	e7d4      	b.n	8000d00 <_format_hex+0x58>
 8000d56:	2120      	movs	r1, #32
 8000d58:	4630      	mov	r0, r6
 8000d5a:	f7ff ff23 	bl	8000ba4 <_xputch>
 8000d5e:	3501      	adds	r5, #1
 8000d60:	e7d1      	b.n	8000d06 <_format_hex+0x5e>
	...

08000d64 <_vprintf>:
 8000d64:	e92d 47f0 	stmdb	sp!, {r4, r5, r6, r7, r8, r9, sl, lr}
 8000d68:	2700      	movs	r7, #0
 8000d6a:	b086      	sub	sp, #24
 8000d6c:	e9cd 7004 	strd	r7, r0, [sp, #16]
 8000d70:	4614      	mov	r4, r2
 8000d72:	f04f 080a 	mov.w	r8, #10
 8000d76:	780b      	ldrb	r3, [r1, #0]
 8000d78:	b91b      	cbnz	r3, 8000d82 <_vprintf+0x1e>
 8000d7a:	9804      	ldr	r0, [sp, #16]
 8000d7c:	b006      	add	sp, #24
 8000d7e:	e8bd 87f0 	ldmia.w	sp!, {r4, r5, r6, r7, r8, r9, sl, pc}
 8000d82:	2b25      	cmp	r3, #37	; 0x25
 8000d84:	f101 0601 	add.w	r6, r1, #1
 8000d88:	d005      	beq.n	8000d96 <_vprintf+0x32>
 8000d8a:	4619      	mov	r1, r3
 8000d8c:	a801      	add	r0, sp, #4
 8000d8e:	f7ff ff09 	bl	8000ba4 <_xputch>
 8000d92:	4631      	mov	r1, r6
 8000d94:	e7ef      	b.n	8000d76 <_vprintf+0x12>
 8000d96:	784b      	ldrb	r3, [r1, #1]
 8000d98:	9703      	str	r7, [sp, #12]
 8000d9a:	2b30      	cmp	r3, #48	; 0x30
 8000d9c:	e9cd 7701 	strd	r7, r7, [sp, #4]
 8000da0:	d126      	bne.n	8000df0 <_vprintf+0x8c>
 8000da2:	2320      	movs	r3, #32
 8000da4:	9301      	str	r3, [sp, #4]
 8000da6:	1c8e      	adds	r6, r1, #2
 8000da8:	2200      	movs	r2, #0
 8000daa:	4635      	mov	r5, r6
 8000dac:	4613      	mov	r3, r2
 8000dae:	7829      	ldrb	r1, [r5, #0]
 8000db0:	f1a1 0030 	sub.w	r0, r1, #48	; 0x30
 8000db4:	2809      	cmp	r0, #9
 8000db6:	462e      	mov	r6, r5
 8000db8:	f105 0501 	add.w	r5, r5, #1
 8000dbc:	d91c      	bls.n	8000df8 <_vprintf+0x94>
 8000dbe:	b12a      	cbz	r2, 8000dcc <_vprintf+0x68>
 8000dc0:	9303      	str	r3, [sp, #12]
 8000dc2:	b11b      	cbz	r3, 8000dcc <_vprintf+0x68>
 8000dc4:	9b01      	ldr	r3, [sp, #4]
 8000dc6:	f043 0310 	orr.w	r3, r3, #16
 8000dca:	9301      	str	r3, [sp, #4]
 8000dcc:	292e      	cmp	r1, #46	; 0x2e
 8000dce:	d122      	bne.n	8000e16 <_vprintf+0xb2>
 8000dd0:	7873      	ldrb	r3, [r6, #1]
 8000dd2:	2b2a      	cmp	r3, #42	; 0x2a
 8000dd4:	d014      	beq.n	8000e00 <_vprintf+0x9c>
 8000dd6:	2100      	movs	r1, #0
 8000dd8:	1c70      	adds	r0, r6, #1
 8000dda:	460a      	mov	r2, r1
 8000ddc:	7803      	ldrb	r3, [r0, #0]
 8000dde:	3b30      	subs	r3, #48	; 0x30
 8000de0:	2b09      	cmp	r3, #9
 8000de2:	4606      	mov	r6, r0
 8000de4:	f100 0001 	add.w	r0, r0, #1
 8000de8:	d930      	bls.n	8000e4c <_vprintf+0xe8>
 8000dea:	b181      	cbz	r1, 8000e0e <_vprintf+0xaa>
 8000dec:	9202      	str	r2, [sp, #8]
 8000dee:	e00e      	b.n	8000e0e <_vprintf+0xaa>
 8000df0:	2b2d      	cmp	r3, #45	; 0x2d
 8000df2:	d1d9      	bne.n	8000da8 <_vprintf+0x44>
 8000df4:	2340      	movs	r3, #64	; 0x40
 8000df6:	e7d5      	b.n	8000da4 <_vprintf+0x40>
 8000df8:	fb08 0303 	mla	r3, r8, r3, r0
 8000dfc:	2201      	movs	r2, #1
 8000dfe:	e7d6      	b.n	8000dae <_vprintf+0x4a>
 8000e00:	f854 3b04 	ldr.w	r3, [r4], #4
 8000e04:	2b00      	cmp	r3, #0
 8000e06:	bfb8      	it	lt
 8000e08:	425b      	neglt	r3, r3
 8000e0a:	3602      	adds	r6, #2
 8000e0c:	9302      	str	r3, [sp, #8]
 8000e0e:	9b01      	ldr	r3, [sp, #4]
 8000e10:	f043 0301 	orr.w	r3, r3, #1
 8000e14:	9301      	str	r3, [sp, #4]
 8000e16:	7833      	ldrb	r3, [r6, #0]
 8000e18:	2b6c      	cmp	r3, #108	; 0x6c
 8000e1a:	bf04      	itt	eq
 8000e1c:	3601      	addeq	r6, #1
 8000e1e:	9b01      	ldreq	r3, [sp, #4]
 8000e20:	7831      	ldrb	r1, [r6, #0]
 8000e22:	bf04      	itt	eq
 8000e24:	f043 0304 	orreq.w	r3, r3, #4
 8000e28:	9301      	streq	r3, [sp, #4]
 8000e2a:	2978      	cmp	r1, #120	; 0x78
 8000e2c:	d8ae      	bhi.n	8000d8c <_vprintf+0x28>
 8000e2e:	296f      	cmp	r1, #111	; 0x6f
 8000e30:	d810      	bhi.n	8000e54 <_vprintf+0xf0>
 8000e32:	2963      	cmp	r1, #99	; 0x63
 8000e34:	d048      	beq.n	8000ec8 <_vprintf+0x164>
 8000e36:	d827      	bhi.n	8000e88 <_vprintf+0x124>
 8000e38:	2958      	cmp	r1, #88	; 0x58
 8000e3a:	d1a7      	bne.n	8000d8c <_vprintf+0x28>
 8000e3c:	9b01      	ldr	r3, [sp, #4]
 8000e3e:	f043 0302 	orr.w	r3, r3, #2
 8000e42:	9301      	str	r3, [sp, #4]
 8000e44:	4625      	mov	r5, r4
 8000e46:	f855 1b04 	ldr.w	r1, [r5], #4
 8000e4a:	e056      	b.n	8000efa <_vprintf+0x196>
 8000e4c:	fb08 3202 	mla	r2, r8, r2, r3
 8000e50:	2101      	movs	r1, #1
 8000e52:	e7c3      	b.n	8000ddc <_vprintf+0x78>
 8000e54:	f1a1 0370 	sub.w	r3, r1, #112	; 0x70
 8000e58:	2b08      	cmp	r3, #8
 8000e5a:	d897      	bhi.n	8000d8c <_vprintf+0x28>
 8000e5c:	a201      	add	r2, pc, #4	; (adr r2, 8000e64 <_vprintf+0x100>)
 8000e5e:	f852 f023 	ldr.w	pc, [r2, r3, lsl #2]
 8000e62:	bf00      	nop
 8000e64:	08000edb 	stmdaeq	r0, {r0, r1, r3, r4, r6, r7, r9, sl, fp}
 8000e68:	08000d8d 	stmdaeq	r0, {r0, r2, r3, r7, r8, sl, fp}
 8000e6c:	08000d8d 	stmdaeq	r0, {r0, r2, r3, r7, r8, sl, fp}
 8000e70:	08000f03 	stmdaeq	r0, {r0, r1, r8, r9, sl, fp}
 8000e74:	08000d8d 	stmdaeq	r0, {r0, r2, r3, r7, r8, sl, fp}
 8000e78:	08000f77 	stmdaeq	r0, {r0, r1, r2, r4, r5, r6, r8, r9, sl, fp}
 8000e7c:	08000d8d 	stmdaeq	r0, {r0, r2, r3, r7, r8, sl, fp}
 8000e80:	08000d8d 	stmdaeq	r0, {r0, r2, r3, r7, r8, sl, fp}
 8000e84:	08000e45 	stmdaeq	r0, {r0, r2, r6, r9, sl, fp}
 8000e88:	2964      	cmp	r1, #100	; 0x64
 8000e8a:	d002      	beq.n	8000e92 <_vprintf+0x12e>
 8000e8c:	2969      	cmp	r1, #105	; 0x69
 8000e8e:	f47f af7d 	bne.w	8000d8c <_vprintf+0x28>
 8000e92:	9901      	ldr	r1, [sp, #4]
 8000e94:	074d      	lsls	r5, r1, #29
 8000e96:	bf4b      	itete	mi
 8000e98:	3407      	addmi	r4, #7
 8000e9a:	4625      	movpl	r5, r4
 8000e9c:	f024 0407 	bicmi.w	r4, r4, #7
 8000ea0:	f855 2b04 	ldrpl.w	r2, [r5], #4
 8000ea4:	bf45      	ittet	mi
 8000ea6:	6863      	ldrmi	r3, [r4, #4]
 8000ea8:	4625      	movmi	r5, r4
 8000eaa:	17d3      	asrpl	r3, r2, #31
 8000eac:	f855 2b08 	ldrmi.w	r2, [r5], #8
 8000eb0:	2b00      	cmp	r3, #0
 8000eb2:	da05      	bge.n	8000ec0 <_vprintf+0x15c>
 8000eb4:	f041 0108 	orr.w	r1, r1, #8
 8000eb8:	4252      	negs	r2, r2
 8000eba:	9101      	str	r1, [sp, #4]
 8000ebc:	eb63 0343 	sbc.w	r3, r3, r3, lsl #1
 8000ec0:	a801      	add	r0, sp, #4
 8000ec2:	f7ff fe87 	bl	8000bd4 <_format_int>
 8000ec6:	e005      	b.n	8000ed4 <_vprintf+0x170>
 8000ec8:	4625      	mov	r5, r4
 8000eca:	a801      	add	r0, sp, #4
 8000ecc:	f855 1b04 	ldr.w	r1, [r5], #4
 8000ed0:	f7ff fe68 	bl	8000ba4 <_xputch>
 8000ed4:	3601      	adds	r6, #1
 8000ed6:	462c      	mov	r4, r5
 8000ed8:	e75b      	b.n	8000d92 <_vprintf+0x2e>
 8000eda:	4625      	mov	r5, r4
 8000edc:	2308      	movs	r3, #8
 8000ede:	f855 4b04 	ldr.w	r4, [r5], #4
 8000ee2:	9303      	str	r3, [sp, #12]
 8000ee4:	2130      	movs	r1, #48	; 0x30
 8000ee6:	2320      	movs	r3, #32
 8000ee8:	a801      	add	r0, sp, #4
 8000eea:	9301      	str	r3, [sp, #4]
 8000eec:	f7ff fe5a 	bl	8000ba4 <_xputch>
 8000ef0:	2178      	movs	r1, #120	; 0x78
 8000ef2:	a801      	add	r0, sp, #4
 8000ef4:	f7ff fe56 	bl	8000ba4 <_xputch>
 8000ef8:	4621      	mov	r1, r4
 8000efa:	a801      	add	r0, sp, #4
 8000efc:	f7ff fed4 	bl	8000ca8 <_format_hex>
 8000f00:	e7e8      	b.n	8000ed4 <_vprintf+0x170>
 8000f02:	4625      	mov	r5, r4
 8000f04:	2400      	movs	r4, #0
 8000f06:	f855 9b04 	ldr.w	r9, [r5], #4
 8000f0a:	f819 3004 	ldrb.w	r3, [r9, r4]
 8000f0e:	b993      	cbnz	r3, 8000f36 <_vprintf+0x1d2>
 8000f10:	9b01      	ldr	r3, [sp, #4]
 8000f12:	07d9      	lsls	r1, r3, #31
 8000f14:	d503      	bpl.n	8000f1e <_vprintf+0x1ba>
 8000f16:	9b02      	ldr	r3, [sp, #8]
 8000f18:	429c      	cmp	r4, r3
 8000f1a:	bfa8      	it	ge
 8000f1c:	461c      	movge	r4, r3
 8000f1e:	9b01      	ldr	r3, [sp, #4]
 8000f20:	065a      	lsls	r2, r3, #25
 8000f22:	f104 0a01 	add.w	sl, r4, #1
 8000f26:	d403      	bmi.n	8000f30 <_vprintf+0x1cc>
 8000f28:	9b03      	ldr	r3, [sp, #12]
 8000f2a:	429c      	cmp	r4, r3
 8000f2c:	db05      	blt.n	8000f3a <_vprintf+0x1d6>
 8000f2e:	4654      	mov	r4, sl
 8000f30:	f109 39ff 	add.w	r9, r9, #4294967295	; 0xffffffff
 8000f34:	e00d      	b.n	8000f52 <_vprintf+0x1ee>
 8000f36:	3401      	adds	r4, #1
 8000f38:	e7e7      	b.n	8000f0a <_vprintf+0x1a6>
 8000f3a:	2120      	movs	r1, #32
 8000f3c:	a801      	add	r0, sp, #4
 8000f3e:	f7ff fe31 	bl	8000ba4 <_xputch>
 8000f42:	4654      	mov	r4, sl
 8000f44:	e7eb      	b.n	8000f1e <_vprintf+0x1ba>
 8000f46:	a801      	add	r0, sp, #4
 8000f48:	f7ff fe2c 	bl	8000ba4 <_xputch>
 8000f4c:	9b02      	ldr	r3, [sp, #8]
 8000f4e:	3b01      	subs	r3, #1
 8000f50:	9302      	str	r3, [sp, #8]
 8000f52:	9b01      	ldr	r3, [sp, #4]
 8000f54:	07db      	lsls	r3, r3, #31
 8000f56:	d501      	bpl.n	8000f5c <_vprintf+0x1f8>
 8000f58:	9b02      	ldr	r3, [sp, #8]
 8000f5a:	b11b      	cbz	r3, 8000f64 <_vprintf+0x200>
 8000f5c:	f819 1f01 	ldrb.w	r1, [r9, #1]!
 8000f60:	2900      	cmp	r1, #0
 8000f62:	d1f0      	bne.n	8000f46 <_vprintf+0x1e2>
 8000f64:	9b03      	ldr	r3, [sp, #12]
 8000f66:	42a3      	cmp	r3, r4
 8000f68:	ddb4      	ble.n	8000ed4 <_vprintf+0x170>
 8000f6a:	2120      	movs	r1, #32
 8000f6c:	a801      	add	r0, sp, #4
 8000f6e:	f7ff fe19 	bl	8000ba4 <_xputch>
 8000f72:	3401      	adds	r4, #1
 8000f74:	e7f6      	b.n	8000f64 <_vprintf+0x200>
 8000f76:	9b01      	ldr	r3, [sp, #4]
 8000f78:	f013 0304 	ands.w	r3, r3, #4
 8000f7c:	bf1d      	ittte	ne
 8000f7e:	3407      	addne	r4, #7
 8000f80:	f024 0407 	bicne.w	r4, r4, #7
 8000f84:	4625      	movne	r5, r4
 8000f86:	4625      	moveq	r5, r4
 8000f88:	bf1a      	itte	ne
 8000f8a:	f855 2b08 	ldrne.w	r2, [r5], #8
 8000f8e:	6863      	ldrne	r3, [r4, #4]
 8000f90:	f855 2b04 	ldreq.w	r2, [r5], #4
 8000f94:	e794      	b.n	8000ec0 <_vprintf+0x15c>
 8000f96:	bf00      	nop

08000f98 <printf>:
 8000f98:	b40f      	push	{r0, r1, r2, r3}
 8000f9a:	b507      	push	{r0, r1, r2, lr}
 8000f9c:	aa04      	add	r2, sp, #16
 8000f9e:	f06f 4000 	mvn.w	r0, #2147483648	; 0x80000000
 8000fa2:	f852 1b04 	ldr.w	r1, [r2], #4
 8000fa6:	9201      	str	r2, [sp, #4]
 8000fa8:	f7ff fedc 	bl	8000d64 <_vprintf>
 8000fac:	b003      	add	sp, #12
 8000fae:	f85d eb04 	ldr.w	lr, [sp], #4
 8000fb2:	b004      	add	sp, #16
 8000fb4:	4770      	bx	lr
	...

08000fb8 <snprintf>:
 8000fb8:	b40c      	push	{r2, r3}
 8000fba:	b513      	push	{r0, r1, r4, lr}
 8000fbc:	4c09      	ldr	r4, [pc, #36]	; (8000fe4 <snprintf+0x2c>)
 8000fbe:	aa04      	add	r2, sp, #16
 8000fc0:	460b      	mov	r3, r1
 8000fc2:	6020      	str	r0, [r4, #0]
 8000fc4:	f852 1b04 	ldr.w	r1, [r2], #4
 8000fc8:	9201      	str	r2, [sp, #4]
 8000fca:	4618      	mov	r0, r3
 8000fcc:	f7ff feca 	bl	8000d64 <_vprintf>
 8000fd0:	6822      	ldr	r2, [r4, #0]
 8000fd2:	2300      	movs	r3, #0
 8000fd4:	7013      	strb	r3, [r2, #0]
 8000fd6:	6023      	str	r3, [r4, #0]
 8000fd8:	b002      	add	sp, #8
 8000fda:	e8bd 4010 	ldmia.w	sp!, {r4, lr}
 8000fde:	b002      	add	sp, #8
 8000fe0:	4770      	bx	lr
 8000fe2:	bf00      	nop
 8000fe4:	20000070 	andcs	r0, r0, r0, ror r0

08000fe8 <vsnprintf>:
 8000fe8:	b538      	push	{r3, r4, r5, lr}
 8000fea:	4c06      	ldr	r4, [pc, #24]	; (8001004 <vsnprintf+0x1c>)
 8000fec:	4605      	mov	r5, r0
 8000fee:	4608      	mov	r0, r1
 8000ff0:	4611      	mov	r1, r2
 8000ff2:	461a      	mov	r2, r3
 8000ff4:	6025      	str	r5, [r4, #0]
 8000ff6:	f7ff feb5 	bl	8000d64 <_vprintf>
 8000ffa:	6822      	ldr	r2, [r4, #0]
 8000ffc:	2300      	movs	r3, #0
 8000ffe:	7013      	strb	r3, [r2, #0]
 8001000:	6023      	str	r3, [r4, #0]
 8001002:	bd38      	pop	{r3, r4, r5, pc}
 8001004:	20000070 	andcs	r0, r0, r0, ror r0

08001008 <__udivmoddi4>:
 8001008:	e92d 47f0 	stmdb	sp!, {r4, r5, r6, r7, r8, r9, sl, lr}
 800100c:	9e08      	ldr	r6, [sp, #32]
 800100e:	460d      	mov	r5, r1
 8001010:	4604      	mov	r4, r0
 8001012:	460f      	mov	r7, r1
 8001014:	2b00      	cmp	r3, #0
 8001016:	d14a      	bne.n	80010ae <__udivmoddi4+0xa6>
 8001018:	428a      	cmp	r2, r1
 800101a:	4694      	mov	ip, r2
 800101c:	d965      	bls.n	80010ea <__udivmoddi4+0xe2>
 800101e:	fab2 f382 	clz	r3, r2
 8001022:	b143      	cbz	r3, 8001036 <__udivmoddi4+0x2e>
 8001024:	fa02 fc03 	lsl.w	ip, r2, r3
 8001028:	f1c3 0220 	rsb	r2, r3, #32
 800102c:	409f      	lsls	r7, r3
 800102e:	fa20 f202 	lsr.w	r2, r0, r2
 8001032:	4317      	orrs	r7, r2
 8001034:	409c      	lsls	r4, r3
 8001036:	ea4f 4e1c 	mov.w	lr, ip, lsr #16
 800103a:	fa1f f58c 	uxth.w	r5, ip
 800103e:	fbb7 f1fe 	udiv	r1, r7, lr
 8001042:	0c22      	lsrs	r2, r4, #16
 8001044:	fb0e 7711 	mls	r7, lr, r1, r7
 8001048:	ea42 4207 	orr.w	r2, r2, r7, lsl #16
 800104c:	fb01 f005 	mul.w	r0, r1, r5
 8001050:	4290      	cmp	r0, r2
 8001052:	d90a      	bls.n	800106a <__udivmoddi4+0x62>
 8001054:	eb1c 0202 	adds.w	r2, ip, r2
 8001058:	f101 37ff 	add.w	r7, r1, #4294967295	; 0xffffffff
 800105c:	f080 811c 	bcs.w	8001298 <__udivmoddi4+0x290>
 8001060:	4290      	cmp	r0, r2
 8001062:	f240 8119 	bls.w	8001298 <__udivmoddi4+0x290>
 8001066:	3902      	subs	r1, #2
 8001068:	4462      	add	r2, ip
 800106a:	1a12      	subs	r2, r2, r0
 800106c:	b2a4      	uxth	r4, r4
 800106e:	fbb2 f0fe 	udiv	r0, r2, lr
 8001072:	fb0e 2210 	mls	r2, lr, r0, r2
 8001076:	ea44 4402 	orr.w	r4, r4, r2, lsl #16
 800107a:	fb00 f505 	mul.w	r5, r0, r5
 800107e:	42a5      	cmp	r5, r4
 8001080:	d90a      	bls.n	8001098 <__udivmoddi4+0x90>
 8001082:	eb1c 0404 	adds.w	r4, ip, r4
 8001086:	f100 32ff 	add.w	r2, r0, #4294967295	; 0xffffffff
 800108a:	f080 8107 	bcs.w	800129c <__udivmoddi4+0x294>
 800108e:	42a5      	cmp	r5, r4
 8001090:	f240 8104 	bls.w	800129c <__udivmoddi4+0x294>
 8001094:	4464      	add	r4, ip
 8001096:	3802      	subs	r0, #2
 8001098:	ea40 4001 	orr.w	r0, r0, r1, lsl #16
 800109c:	1b64      	subs	r4, r4, r5
 800109e:	2100      	movs	r1, #0
 80010a0:	b11e      	cbz	r6, 80010aa <__udivmoddi4+0xa2>
 80010a2:	40dc      	lsrs	r4, r3
 80010a4:	2300      	movs	r3, #0
 80010a6:	e9c6 4300 	strd	r4, r3, [r6]
 80010aa:	e8bd 87f0 	ldmia.w	sp!, {r4, r5, r6, r7, r8, r9, sl, pc}
 80010ae:	428b      	cmp	r3, r1
 80010b0:	d908      	bls.n	80010c4 <__udivmoddi4+0xbc>
 80010b2:	2e00      	cmp	r6, #0
 80010b4:	f000 80ed 	beq.w	8001292 <__udivmoddi4+0x28a>
 80010b8:	2100      	movs	r1, #0
 80010ba:	e9c6 0500 	strd	r0, r5, [r6]
 80010be:	4608      	mov	r0, r1
 80010c0:	e8bd 87f0 	ldmia.w	sp!, {r4, r5, r6, r7, r8, r9, sl, pc}
 80010c4:	fab3 f183 	clz	r1, r3
 80010c8:	2900      	cmp	r1, #0
 80010ca:	d149      	bne.n	8001160 <__udivmoddi4+0x158>
 80010cc:	42ab      	cmp	r3, r5
 80010ce:	d302      	bcc.n	80010d6 <__udivmoddi4+0xce>
 80010d0:	4282      	cmp	r2, r0
 80010d2:	f200 80f8 	bhi.w	80012c6 <__udivmoddi4+0x2be>
 80010d6:	1a84      	subs	r4, r0, r2
 80010d8:	eb65 0203 	sbc.w	r2, r5, r3
 80010dc:	2001      	movs	r0, #1
 80010de:	4617      	mov	r7, r2
 80010e0:	2e00      	cmp	r6, #0
 80010e2:	d0e2      	beq.n	80010aa <__udivmoddi4+0xa2>
 80010e4:	e9c6 4700 	strd	r4, r7, [r6]
 80010e8:	e7df      	b.n	80010aa <__udivmoddi4+0xa2>
 80010ea:	b902      	cbnz	r2, 80010ee <__udivmoddi4+0xe6>
 80010ec:	deff      	udf	#255	; 0xff
 80010ee:	fab2 f382 	clz	r3, r2
 80010f2:	2b00      	cmp	r3, #0
 80010f4:	f040 8090 	bne.w	8001218 <__udivmoddi4+0x210>
 80010f8:	1a8a      	subs	r2, r1, r2
 80010fa:	ea4f 471c 	mov.w	r7, ip, lsr #16
 80010fe:	fa1f fe8c 	uxth.w	lr, ip
 8001102:	2101      	movs	r1, #1
 8001104:	fbb2 f5f7 	udiv	r5, r2, r7
 8001108:	fb07 2015 	mls	r0, r7, r5, r2
 800110c:	0c22      	lsrs	r2, r4, #16
 800110e:	ea42 4200 	orr.w	r2, r2, r0, lsl #16
 8001112:	fb0e f005 	mul.w	r0, lr, r5
 8001116:	4290      	cmp	r0, r2
 8001118:	d908      	bls.n	800112c <__udivmoddi4+0x124>
 800111a:	eb1c 0202 	adds.w	r2, ip, r2
 800111e:	f105 38ff 	add.w	r8, r5, #4294967295	; 0xffffffff
 8001122:	d202      	bcs.n	800112a <__udivmoddi4+0x122>
 8001124:	4290      	cmp	r0, r2
 8001126:	f200 80cb 	bhi.w	80012c0 <__udivmoddi4+0x2b8>
 800112a:	4645      	mov	r5, r8
 800112c:	1a12      	subs	r2, r2, r0
 800112e:	b2a4      	uxth	r4, r4
 8001130:	fbb2 f0f7 	udiv	r0, r2, r7
 8001134:	fb07 2210 	mls	r2, r7, r0, r2
 8001138:	ea44 4402 	orr.w	r4, r4, r2, lsl #16
 800113c:	fb0e fe00 	mul.w	lr, lr, r0
 8001140:	45a6      	cmp	lr, r4
 8001142:	d908      	bls.n	8001156 <__udivmoddi4+0x14e>
 8001144:	eb1c 0404 	adds.w	r4, ip, r4
 8001148:	f100 32ff 	add.w	r2, r0, #4294967295	; 0xffffffff
 800114c:	d202      	bcs.n	8001154 <__udivmoddi4+0x14c>
 800114e:	45a6      	cmp	lr, r4
 8001150:	f200 80bb 	bhi.w	80012ca <__udivmoddi4+0x2c2>
 8001154:	4610      	mov	r0, r2
 8001156:	eba4 040e 	sub.w	r4, r4, lr
 800115a:	ea40 4005 	orr.w	r0, r0, r5, lsl #16
 800115e:	e79f      	b.n	80010a0 <__udivmoddi4+0x98>
 8001160:	f1c1 0720 	rsb	r7, r1, #32
 8001164:	408b      	lsls	r3, r1
 8001166:	fa22 fc07 	lsr.w	ip, r2, r7
 800116a:	ea4c 0c03 	orr.w	ip, ip, r3
 800116e:	fa05 f401 	lsl.w	r4, r5, r1
 8001172:	fa20 f307 	lsr.w	r3, r0, r7
 8001176:	40fd      	lsrs	r5, r7
 8001178:	ea4f 491c 	mov.w	r9, ip, lsr #16
 800117c:	4323      	orrs	r3, r4
 800117e:	fbb5 f8f9 	udiv	r8, r5, r9
 8001182:	fa1f fe8c 	uxth.w	lr, ip
 8001186:	fb09 5518 	mls	r5, r9, r8, r5
 800118a:	0c1c      	lsrs	r4, r3, #16
 800118c:	ea44 4405 	orr.w	r4, r4, r5, lsl #16
 8001190:	fb08 f50e 	mul.w	r5, r8, lr
 8001194:	42a5      	cmp	r5, r4
 8001196:	fa02 f201 	lsl.w	r2, r2, r1
 800119a:	fa00 f001 	lsl.w	r0, r0, r1
 800119e:	d90b      	bls.n	80011b8 <__udivmoddi4+0x1b0>
 80011a0:	eb1c 0404 	adds.w	r4, ip, r4
 80011a4:	f108 3aff 	add.w	sl, r8, #4294967295	; 0xffffffff
 80011a8:	f080 8088 	bcs.w	80012bc <__udivmoddi4+0x2b4>
 80011ac:	42a5      	cmp	r5, r4
 80011ae:	f240 8085 	bls.w	80012bc <__udivmoddi4+0x2b4>
 80011b2:	f1a8 0802 	sub.w	r8, r8, #2
 80011b6:	4464      	add	r4, ip
 80011b8:	1b64      	subs	r4, r4, r5
 80011ba:	b29d      	uxth	r5, r3
 80011bc:	fbb4 f3f9 	udiv	r3, r4, r9
 80011c0:	fb09 4413 	mls	r4, r9, r3, r4
 80011c4:	ea45 4404 	orr.w	r4, r5, r4, lsl #16
 80011c8:	fb03 fe0e 	mul.w	lr, r3, lr
 80011cc:	45a6      	cmp	lr, r4
 80011ce:	d908      	bls.n	80011e2 <__udivmoddi4+0x1da>
 80011d0:	eb1c 0404 	adds.w	r4, ip, r4
 80011d4:	f103 35ff 	add.w	r5, r3, #4294967295	; 0xffffffff
 80011d8:	d26c      	bcs.n	80012b4 <__udivmoddi4+0x2ac>
 80011da:	45a6      	cmp	lr, r4
 80011dc:	d96a      	bls.n	80012b4 <__udivmoddi4+0x2ac>
 80011de:	3b02      	subs	r3, #2
 80011e0:	4464      	add	r4, ip
 80011e2:	ea43 4308 	orr.w	r3, r3, r8, lsl #16
 80011e6:	fba3 9502 	umull	r9, r5, r3, r2
 80011ea:	eba4 040e 	sub.w	r4, r4, lr
 80011ee:	42ac      	cmp	r4, r5
 80011f0:	46c8      	mov	r8, r9
 80011f2:	46ae      	mov	lr, r5
 80011f4:	d356      	bcc.n	80012a4 <__udivmoddi4+0x29c>
 80011f6:	d053      	beq.n	80012a0 <__udivmoddi4+0x298>
 80011f8:	b156      	cbz	r6, 8001210 <__udivmoddi4+0x208>
 80011fa:	ebb0 0208 	subs.w	r2, r0, r8
 80011fe:	eb64 040e 	sbc.w	r4, r4, lr
 8001202:	fa04 f707 	lsl.w	r7, r4, r7
 8001206:	40ca      	lsrs	r2, r1
 8001208:	40cc      	lsrs	r4, r1
 800120a:	4317      	orrs	r7, r2
 800120c:	e9c6 7400 	strd	r7, r4, [r6]
 8001210:	4618      	mov	r0, r3
 8001212:	2100      	movs	r1, #0
 8001214:	e8bd 87f0 	ldmia.w	sp!, {r4, r5, r6, r7, r8, r9, sl, pc}
 8001218:	f1c3 0120 	rsb	r1, r3, #32
 800121c:	fa02 fc03 	lsl.w	ip, r2, r3
 8001220:	fa20 f201 	lsr.w	r2, r0, r1
 8001224:	fa25 f101 	lsr.w	r1, r5, r1
 8001228:	409d      	lsls	r5, r3
 800122a:	432a      	orrs	r2, r5
 800122c:	ea4f 471c 	mov.w	r7, ip, lsr #16
 8001230:	fa1f fe8c 	uxth.w	lr, ip
 8001234:	fbb1 f0f7 	udiv	r0, r1, r7
 8001238:	fb07 1510 	mls	r5, r7, r0, r1
 800123c:	0c11      	lsrs	r1, r2, #16
 800123e:	ea41 4105 	orr.w	r1, r1, r5, lsl #16
 8001242:	fb00 f50e 	mul.w	r5, r0, lr
 8001246:	428d      	cmp	r5, r1
 8001248:	fa04 f403 	lsl.w	r4, r4, r3
 800124c:	d908      	bls.n	8001260 <__udivmoddi4+0x258>
 800124e:	eb1c 0101 	adds.w	r1, ip, r1
 8001252:	f100 38ff 	add.w	r8, r0, #4294967295	; 0xffffffff
 8001256:	d22f      	bcs.n	80012b8 <__udivmoddi4+0x2b0>
 8001258:	428d      	cmp	r5, r1
 800125a:	d92d      	bls.n	80012b8 <__udivmoddi4+0x2b0>
 800125c:	3802      	subs	r0, #2
 800125e:	4461      	add	r1, ip
 8001260:	1b49      	subs	r1, r1, r5
 8001262:	b292      	uxth	r2, r2
 8001264:	fbb1 f5f7 	udiv	r5, r1, r7
 8001268:	fb07 1115 	mls	r1, r7, r5, r1
 800126c:	ea42 4201 	orr.w	r2, r2, r1, lsl #16
 8001270:	fb05 f10e 	mul.w	r1, r5, lr
 8001274:	4291      	cmp	r1, r2
 8001276:	d908      	bls.n	800128a <__udivmoddi4+0x282>
 8001278:	eb1c 0202 	adds.w	r2, ip, r2
 800127c:	f105 38ff 	add.w	r8, r5, #4294967295	; 0xffffffff
 8001280:	d216      	bcs.n	80012b0 <__udivmoddi4+0x2a8>
 8001282:	4291      	cmp	r1, r2
 8001284:	d914      	bls.n	80012b0 <__udivmoddi4+0x2a8>
 8001286:	3d02      	subs	r5, #2
 8001288:	4462      	add	r2, ip
 800128a:	1a52      	subs	r2, r2, r1
 800128c:	ea45 4100 	orr.w	r1, r5, r0, lsl #16
 8001290:	e738      	b.n	8001104 <__udivmoddi4+0xfc>
 8001292:	4631      	mov	r1, r6
 8001294:	4630      	mov	r0, r6
 8001296:	e708      	b.n	80010aa <__udivmoddi4+0xa2>
 8001298:	4639      	mov	r1, r7
 800129a:	e6e6      	b.n	800106a <__udivmoddi4+0x62>
 800129c:	4610      	mov	r0, r2
 800129e:	e6fb      	b.n	8001098 <__udivmoddi4+0x90>
 80012a0:	4548      	cmp	r0, r9
 80012a2:	d2a9      	bcs.n	80011f8 <__udivmoddi4+0x1f0>
 80012a4:	ebb9 0802 	subs.w	r8, r9, r2
 80012a8:	eb65 0e0c 	sbc.w	lr, r5, ip
 80012ac:	3b01      	subs	r3, #1
 80012ae:	e7a3      	b.n	80011f8 <__udivmoddi4+0x1f0>
 80012b0:	4645      	mov	r5, r8
 80012b2:	e7ea      	b.n	800128a <__udivmoddi4+0x282>
 80012b4:	462b      	mov	r3, r5
 80012b6:	e794      	b.n	80011e2 <__udivmoddi4+0x1da>
 80012b8:	4640      	mov	r0, r8
 80012ba:	e7d1      	b.n	8001260 <__udivmoddi4+0x258>
 80012bc:	46d0      	mov	r8, sl
 80012be:	e77b      	b.n	80011b8 <__udivmoddi4+0x1b0>
 80012c0:	3d02      	subs	r5, #2
 80012c2:	4462      	add	r2, ip
 80012c4:	e732      	b.n	800112c <__udivmoddi4+0x124>
 80012c6:	4608      	mov	r0, r1
 80012c8:	e70a      	b.n	80010e0 <__udivmoddi4+0xd8>
 80012ca:	4464      	add	r4, ip
 80012cc:	3802      	subs	r0, #2
 80012ce:	e742      	b.n	8001156 <__udivmoddi4+0x14e>

080012d0 <Display::PrintInfo() [clone .isra.0]>:
 80012d0:	b910      	cbnz	r0, 80012d8 <Display::PrintInfo() [clone .isra.0]+0x8>
 80012d2:	4803      	ldr	r0, [pc, #12]	; (80012e0 <Display::PrintInfo() [clone .isra.0]+0x10>)
 80012d4:	f002 be86 	b.w	8003fe4 <puts>
 80012d8:	6803      	ldr	r3, [r0, #0]
 80012da:	6b5b      	ldr	r3, [r3, #52]	; 0x34
 80012dc:	4718      	bx	r3
 80012de:	bf00      	nop
 80012e0:	080061a6 	stmdaeq	r0, {r1, r2, r5, r7, r8, sp, lr}

080012e4 <HAL_I2C::WriteRegister(unsigned char, unsigned short)>:
 80012e4:	b513      	push	{r0, r1, r4, lr}
 80012e6:	4604      	mov	r4, r0
 80012e8:	0a13      	lsrs	r3, r2, #8
 80012ea:	7800      	ldrb	r0, [r0, #0]
 80012ec:	f88d 1004 	strb.w	r1, [sp, #4]
 80012f0:	f88d 3005 	strb.w	r3, [sp, #5]
 80012f4:	f88d 2006 	strb.w	r2, [sp, #6]
 80012f8:	f003 fd14 	bl	8004d24 <gd32_i2c_set_address>
 80012fc:	6860      	ldr	r0, [r4, #4]
 80012fe:	f003 fd09 	bl	8004d14 <gd32_i2c_set_baudrate>
 8001302:	2103      	movs	r1, #3
 8001304:	a801      	add	r0, sp, #4
 8001306:	f003 fd13 	bl	8004d30 <gd32_i2c_write>
 800130a:	b002      	add	sp, #8
 800130c:	bd10      	pop	{r4, pc}

0800130e <HAL_I2C::IsConnected_(unsigned char, unsigned int)>:
 800130e:	b537      	push	{r0, r1, r2, r4, r5, lr}
 8001310:	460d      	mov	r5, r1
 8001312:	4604      	mov	r4, r0
 8001314:	f003 fd06 	bl	8004d24 <gd32_i2c_set_address>
 8001318:	4628      	mov	r0, r5
 800131a:	f003 fcfb 	bl	8004d14 <gd32_i2c_set_baudrate>
 800131e:	f1a4 0330 	sub.w	r3, r4, #48	; 0x30
 8001322:	2b07      	cmp	r3, #7
 8001324:	d902      	bls.n	800132c <HAL_I2C::IsConnected_(unsigned char, unsigned int)+0x1e>
 8001326:	3c50      	subs	r4, #80	; 0x50
 8001328:	2c0f      	cmp	r4, #15
 800132a:	d809      	bhi.n	8001340 <HAL_I2C::IsConnected_(unsigned char, unsigned int)+0x32>
 800132c:	2101      	movs	r1, #1
 800132e:	f10d 0007 	add.w	r0, sp, #7
 8001332:	f003 fd63 	bl	8004dfc <gd32_i2c_read>
 8001336:	fab0 f080 	clz	r0, r0
 800133a:	0940      	lsrs	r0, r0, #5
 800133c:	b003      	add	sp, #12
 800133e:	bd30      	pop	{r4, r5, pc}
 8001340:	2100      	movs	r1, #0
 8001342:	4608      	mov	r0, r1
 8001344:	f003 fcf4 	bl	8004d30 <gd32_i2c_write>
 8001348:	e7f5      	b.n	8001336 <HAL_I2C::IsConnected_(unsigned char, unsigned int)+0x28>

0800134a <Display::Detect7Segment()>:
 800134a:	b513      	push	{r0, r1, r4, lr}
 800134c:	68c1      	ldr	r1, [r0, #12]
 800134e:	4604      	mov	r4, r0
 8001350:	7a00      	ldrb	r0, [r0, #8]
 8001352:	f7ff ffdc 	bl	800130e <HAL_I2C::IsConnected_(unsigned char, unsigned int)>
 8001356:	7460      	strb	r0, [r4, #17]
 8001358:	b170      	cbz	r0, 8001378 <Display::Detect7Segment()+0x2e>
 800135a:	2200      	movs	r2, #0
 800135c:	f104 0008 	add.w	r0, r4, #8
 8001360:	4611      	mov	r1, r2
 8001362:	9001      	str	r0, [sp, #4]
 8001364:	f7ff ffbe 	bl	80012e4 <HAL_I2C::WriteRegister(unsigned char, unsigned short)>
 8001368:	7c63      	ldrb	r3, [r4, #17]
 800136a:	9801      	ldr	r0, [sp, #4]
 800136c:	b123      	cbz	r3, 8001378 <Display::Detect7Segment()+0x2e>
 800136e:	f24c 02ff 	movw	r2, #49407	; 0xc0ff
 8001372:	2112      	movs	r1, #18
 8001374:	f7ff ffb6 	bl	80012e4 <HAL_I2C::WriteRegister(unsigned char, unsigned short)>
 8001378:	b002      	add	sp, #8
 800137a:	bd10      	pop	{r4, pc}

0800137c <Display::Detect(unsigned int)>:
 800137c:	b538      	push	{r3, r4, r5, lr}
 800137e:	4605      	mov	r5, r0
 8001380:	460c      	mov	r4, r1
 8001382:	203c      	movs	r0, #60	; 0x3c
 8001384:	4911      	ldr	r1, [pc, #68]	; (80013cc <Display::Detect(unsigned int)+0x50>)
 8001386:	f7ff ffc2 	bl	800130e <HAL_I2C::IsConnected_(unsigned char, unsigned int)>
 800138a:	b1b0      	cbz	r0, 80013ba <Display::Detect(unsigned int)+0x3e>
 800138c:	2c04      	cmp	r4, #4
 800138e:	f04f 0018 	mov.w	r0, #24
 8001392:	d816      	bhi.n	80013c2 <Display::Detect(unsigned int)+0x46>
 8001394:	f002 fda2 	bl	8003edc <operator new(unsigned int)>
 8001398:	2101      	movs	r1, #1
 800139a:	4604      	mov	r4, r0
 800139c:	f000 f8ac 	bl	80014f8 <Ssd1306::Ssd1306(TOledPanel)>
 80013a0:	6823      	ldr	r3, [r4, #0]
 80013a2:	61ac      	str	r4, [r5, #24]
 80013a4:	689b      	ldr	r3, [r3, #8]
 80013a6:	4620      	mov	r0, r4
 80013a8:	4798      	blx	r3
 80013aa:	b130      	cbz	r0, 80013ba <Display::Detect(unsigned int)+0x3e>
 80013ac:	2302      	movs	r3, #2
 80013ae:	4a08      	ldr	r2, [pc, #32]	; (80013d0 <Display::Detect(unsigned int)+0x54>)
 80013b0:	602b      	str	r3, [r5, #0]
 80013b2:	2101      	movs	r1, #1
 80013b4:	4628      	mov	r0, r5
 80013b6:	f7ff fa24 	bl	8000802 <Display::Printf(unsigned char, char const*, ...)>
 80013ba:	69ab      	ldr	r3, [r5, #24]
 80013bc:	b903      	cbnz	r3, 80013c0 <Display::Detect(unsigned int)+0x44>
 80013be:	616b      	str	r3, [r5, #20]
 80013c0:	bd38      	pop	{r3, r4, r5, pc}
 80013c2:	f002 fd8b 	bl	8003edc <operator new(unsigned int)>
 80013c6:	2100      	movs	r1, #0
 80013c8:	4604      	mov	r4, r0
 80013ca:	e7e7      	b.n	800139c <Display::Detect(unsigned int)+0x20>
 80013cc:	000186a0 	andeq	r8, r1, r0, lsr #13
 80013d0:	080061b7 	stmdaeq	r0, {r0, r1, r2, r4, r5, r7, r8, sp, lr}

080013d4 <Display::Display(unsigned int)>:
 80013d4:	2304      	movs	r3, #4
 80013d6:	b510      	push	{r4, lr}
 80013d8:	6003      	str	r3, [r0, #0]
 80013da:	4b0e      	ldr	r3, [pc, #56]	; (8001414 <Display::Display(unsigned int)+0x40>)
 80013dc:	4a0e      	ldr	r2, [pc, #56]	; (8001418 <Display::Display(unsigned int)+0x44>)
 80013de:	681b      	ldr	r3, [r3, #0]
 80013e0:	6043      	str	r3, [r0, #4]
 80013e2:	2321      	movs	r3, #33	; 0x21
 80013e4:	7203      	strb	r3, [r0, #8]
 80013e6:	4b0d      	ldr	r3, [pc, #52]	; (800141c <Display::Display(unsigned int)+0x48>)
 80013e8:	60c3      	str	r3, [r0, #12]
 80013ea:	2300      	movs	r3, #0
 80013ec:	e9c0 2305 	strd	r2, r3, [r0, #20]
 80013f0:	8203      	strh	r3, [r0, #16]
 80013f2:	4b0b      	ldr	r3, [pc, #44]	; (8001420 <Display::Display(unsigned int)+0x4c>)
 80013f4:	4604      	mov	r4, r0
 80013f6:	6018      	str	r0, [r3, #0]
 80013f8:	f7ff ffc0 	bl	800137c <Display::Detect(unsigned int)>
 80013fc:	4620      	mov	r0, r4
 80013fe:	f7ff ffa4 	bl	800134a <Display::Detect7Segment()>
 8001402:	69a3      	ldr	r3, [r4, #24]
 8001404:	b10b      	cbz	r3, 800140a <Display::Display(unsigned int)+0x36>
 8001406:	f000 fa09 	bl	800181c <display::timeout::gpio_init()>
 800140a:	69a0      	ldr	r0, [r4, #24]
 800140c:	f7ff ff60 	bl	80012d0 <Display::PrintInfo() [clone .isra.0]>
 8001410:	4620      	mov	r0, r4
 8001412:	bd10      	pop	{r4, pc}
 8001414:	200031dc 	ldrdcs	r3, [r0], -ip
 8001418:	000493e0 	andeq	r9, r4, r0, ror #7
 800141c:	00061a80 	andeq	r1, r6, r0, lsl #21
 8001420:	20000074 	andcs	r0, r0, r4, ror r0

08001424 <Ssd1306::~Ssd1306()>:
 8001424:	4770      	bx	lr

08001426 <Ssd1306::SetCursor(unsigned int)>:
 8001426:	4770      	bx	lr

08001428 <Ssd1306::PrintInfo()>:
 8001428:	b410      	push	{r4}
 800142a:	4906      	ldr	r1, [pc, #24]	; (8001444 <Ssd1306::PrintInfo()+0x1c>)
 800142c:	7c44      	ldrb	r4, [r0, #17]
 800142e:	7903      	ldrb	r3, [r0, #4]
 8001430:	7942      	ldrb	r2, [r0, #5]
 8001432:	4805      	ldr	r0, [pc, #20]	; (8001448 <Ssd1306::PrintInfo()+0x20>)
 8001434:	2c00      	cmp	r4, #0
 8001436:	bf08      	it	eq
 8001438:	4601      	moveq	r1, r0
 800143a:	4804      	ldr	r0, [pc, #16]	; (800144c <Ssd1306::PrintInfo()+0x24>)
 800143c:	f85d 4b04 	ldr.w	r4, [sp], #4
 8001440:	f7ff bdaa 	b.w	8000f98 <printf>
 8001444:	080061bf 	stmdaeq	r0, {r0, r1, r2, r3, r4, r5, r7, r8, sp, lr}
 8001448:	080061b7 	stmdaeq	r0, {r0, r1, r2, r4, r5, r7, r8, sp, lr}
 800144c:	080061c6 	stmdaeq	r0, {r1, r2, r6, r7, r8, sp, lr}

08001450 <Ssd1306::~Ssd1306()>:
 8001450:	b510      	push	{r4, lr}
 8001452:	4604      	mov	r4, r0
 8001454:	f002 fd3e 	bl	8003ed4 <operator delete(void*)>
 8001458:	4620      	mov	r0, r4
 800145a:	bd10      	pop	{r4, pc}

0800145c <HAL_I2C::Setup()>:
 800145c:	b510      	push	{r4, lr}
 800145e:	4604      	mov	r4, r0
 8001460:	7800      	ldrb	r0, [r0, #0]
 8001462:	f003 fc5f 	bl	8004d24 <gd32_i2c_set_address>
 8001466:	6860      	ldr	r0, [r4, #4]
 8001468:	e8bd 4010 	ldmia.w	sp!, {r4, lr}
 800146c:	f003 bc52 	b.w	8004d14 <gd32_i2c_set_baudrate>

08001470 <Ssd1306::PutChar(int)>:
 8001470:	b510      	push	{r4, lr}
 8001472:	3920      	subs	r1, #32
 8001474:	295f      	cmp	r1, #95	; 0x5f
 8001476:	f100 0008 	add.w	r0, r0, #8
 800147a:	bf94      	ite	ls
 800147c:	460c      	movls	r4, r1
 800147e:	2400      	movhi	r4, #0
 8001480:	f7ff ffec 	bl	800145c <HAL_I2C::Setup()>
 8001484:	4804      	ldr	r0, [pc, #16]	; (8001498 <Ssd1306::PutChar(int)+0x28>)
 8001486:	ebc4 04c4 	rsb	r4, r4, r4, lsl #3
 800148a:	4420      	add	r0, r4
 800148c:	2107      	movs	r1, #7
 800148e:	e8bd 4010 	ldmia.w	sp!, {r4, lr}
 8001492:	f003 bc4d 	b.w	8004d30 <gd32_i2c_write>
 8001496:	bf00      	nop
 8001498:	080061d8 	stmdaeq	r0, {r3, r4, r6, r7, r8, sp, lr}

0800149c <Ssd1306::PutString(char const*)>:
 800149c:	b538      	push	{r3, r4, r5, lr}
 800149e:	4605      	mov	r5, r0
 80014a0:	1e4c      	subs	r4, r1, #1
 80014a2:	f814 1f01 	ldrb.w	r1, [r4, #1]!
 80014a6:	b901      	cbnz	r1, 80014aa <Ssd1306::PutString(char const*)+0xe>
 80014a8:	bd38      	pop	{r3, r4, r5, pc}
 80014aa:	4628      	mov	r0, r5
 80014ac:	f7ff ffe0 	bl	8001470 <Ssd1306::PutChar(int)>
 80014b0:	e7f7      	b.n	80014a2 <Ssd1306::PutString(char const*)+0x6>

080014b2 <Ssd1306::Text(char const*, unsigned int)>:
 80014b2:	b570      	push	{r4, r5, r6, lr}
 80014b4:	7903      	ldrb	r3, [r0, #4]
 80014b6:	4605      	mov	r5, r0
 80014b8:	460c      	mov	r4, r1
 80014ba:	4293      	cmp	r3, r2
 80014bc:	bf94      	ite	ls
 80014be:	18ce      	addls	r6, r1, r3
 80014c0:	188e      	addhi	r6, r1, r2
 80014c2:	42b4      	cmp	r4, r6
 80014c4:	d100      	bne.n	80014c8 <Ssd1306::Text(char const*, unsigned int)+0x16>
 80014c6:	bd70      	pop	{r4, r5, r6, pc}
 80014c8:	f814 1b01 	ldrb.w	r1, [r4], #1
 80014cc:	4628      	mov	r0, r5
 80014ce:	f7ff ffcf 	bl	8001470 <Ssd1306::PutChar(int)>
 80014d2:	e7f6      	b.n	80014c2 <Ssd1306::Text(char const*, unsigned int)+0x10>

080014d4 <Ssd1306::InitMembers()>:
 80014d4:	7c03      	ldrb	r3, [r0, #16]
 80014d6:	b14b      	cbz	r3, 80014ec <Ssd1306::InitMembers()+0x18>
 80014d8:	3b01      	subs	r3, #1
 80014da:	2b01      	cmp	r3, #1
 80014dc:	d909      	bls.n	80014f2 <Ssd1306::InitMembers()+0x1e>
 80014de:	2308      	movs	r3, #8
 80014e0:	2204      	movs	r2, #4
 80014e2:	2115      	movs	r1, #21
 80014e4:	7101      	strb	r1, [r0, #4]
 80014e6:	7143      	strb	r3, [r0, #5]
 80014e8:	6142      	str	r2, [r0, #20]
 80014ea:	4770      	bx	lr
 80014ec:	2308      	movs	r3, #8
 80014ee:	461a      	mov	r2, r3
 80014f0:	e7f7      	b.n	80014e2 <Ssd1306::InitMembers()+0xe>
 80014f2:	2304      	movs	r3, #4
 80014f4:	e7fb      	b.n	80014ee <Ssd1306::InitMembers()+0x1a>
	...

080014f8 <Ssd1306::Ssd1306(TOledPanel)>:
 80014f8:	4a08      	ldr	r2, [pc, #32]	; (800151c <Ssd1306::Ssd1306(TOledPanel)+0x24>)
 80014fa:	6002      	str	r2, [r0, #0]
 80014fc:	227f      	movs	r2, #127	; 0x7f
 80014fe:	b508      	push	{r3, lr}
 8001500:	80c2      	strh	r2, [r0, #6]
 8001502:	223c      	movs	r2, #60	; 0x3c
 8001504:	7202      	strb	r2, [r0, #8]
 8001506:	4a06      	ldr	r2, [pc, #24]	; (8001520 <Ssd1306::Ssd1306(TOledPanel)+0x28>)
 8001508:	60c2      	str	r2, [r0, #12]
 800150a:	2200      	movs	r2, #0
 800150c:	7442      	strb	r2, [r0, #17]
 800150e:	4a05      	ldr	r2, [pc, #20]	; (8001524 <Ssd1306::Ssd1306(TOledPanel)+0x2c>)
 8001510:	7401      	strb	r1, [r0, #16]
 8001512:	6010      	str	r0, [r2, #0]
 8001514:	f7ff ffde 	bl	80014d4 <Ssd1306::InitMembers()>
 8001518:	bd08      	pop	{r3, pc}
 800151a:	bf00      	nop
 800151c:	080064b0 	stmdaeq	r0, {r4, r5, r7, sl, sp, lr}
 8001520:	00061a80 	andeq	r1, r6, r0, lsl #21
 8001524:	20000100 	andcs	r0, r0, r0, lsl #2

08001528 <Ssd1306::SendCommand(unsigned char)>:
 8001528:	b507      	push	{r0, r1, r2, lr}
 800152a:	2300      	movs	r3, #0
 800152c:	3008      	adds	r0, #8
 800152e:	f88d 3004 	strb.w	r3, [sp, #4]
 8001532:	f88d 1005 	strb.w	r1, [sp, #5]
 8001536:	f7ff ff91 	bl	800145c <HAL_I2C::Setup()>
 800153a:	2102      	movs	r1, #2
 800153c:	a801      	add	r0, sp, #4
 800153e:	f003 fbf7 	bl	8004d30 <gd32_i2c_write>
 8001542:	b003      	add	sp, #12
 8001544:	f85d fb04 	ldr.w	pc, [sp], #4

08001548 <Ssd1306::SetCursorPos(unsigned char, unsigned char)>:
 8001548:	2914      	cmp	r1, #20
 800154a:	b537      	push	{r0, r1, r2, r4, r5, lr}
 800154c:	4615      	mov	r5, r2
 800154e:	d81d      	bhi.n	800158c <Ssd1306::SetCursorPos(unsigned char, unsigned char)+0x44>
 8001550:	7943      	ldrb	r3, [r0, #5]
 8001552:	4293      	cmp	r3, r2
 8001554:	d91a      	bls.n	800158c <Ssd1306::SetCursorPos(unsigned char, unsigned char)+0x44>
 8001556:	eb01 0141 	add.w	r1, r1, r1, lsl #1
 800155a:	7c43      	ldrb	r3, [r0, #17]
 800155c:	004c      	lsls	r4, r1, #1
 800155e:	b2e4      	uxtb	r4, r4
 8001560:	b10b      	cbz	r3, 8001566 <Ssd1306::SetCursorPos(unsigned char, unsigned char)+0x1e>
 8001562:	3404      	adds	r4, #4
 8001564:	b2e4      	uxtb	r4, r4
 8001566:	f004 010e 	and.w	r1, r4, #14
 800156a:	9001      	str	r0, [sp, #4]
 800156c:	f7ff ffdc 	bl	8001528 <Ssd1306::SendCommand(unsigned char)>
 8001570:	0921      	lsrs	r1, r4, #4
 8001572:	9801      	ldr	r0, [sp, #4]
 8001574:	f041 0110 	orr.w	r1, r1, #16
 8001578:	f7ff ffd6 	bl	8001528 <Ssd1306::SendCommand(unsigned char)>
 800157c:	9801      	ldr	r0, [sp, #4]
 800157e:	f045 01b0 	orr.w	r1, r5, #176	; 0xb0
 8001582:	b003      	add	sp, #12
 8001584:	e8bd 4030 	ldmia.w	sp!, {r4, r5, lr}
 8001588:	f7ff bfce 	b.w	8001528 <Ssd1306::SendCommand(unsigned char)>
 800158c:	b003      	add	sp, #12
 800158e:	bd30      	pop	{r4, r5, pc}

08001590 <Ssd1306::TextLine(unsigned char, char const*, unsigned int)>:
 8001590:	b5e0      	push	{r5, r6, r7, lr}
 8001592:	461f      	mov	r7, r3
 8001594:	7943      	ldrb	r3, [r0, #5]
 8001596:	428b      	cmp	r3, r1
 8001598:	4605      	mov	r5, r0
 800159a:	4616      	mov	r6, r2
 800159c:	d30b      	bcc.n	80015b6 <Ssd1306::TextLine(unsigned char, char const*, unsigned int)+0x26>
 800159e:	1e4a      	subs	r2, r1, #1
 80015a0:	b2d2      	uxtb	r2, r2
 80015a2:	2100      	movs	r1, #0
 80015a4:	f7ff ffd0 	bl	8001548 <Ssd1306::SetCursorPos(unsigned char, unsigned char)>
 80015a8:	463a      	mov	r2, r7
 80015aa:	4631      	mov	r1, r6
 80015ac:	4628      	mov	r0, r5
 80015ae:	e8bd 40e0 	ldmia.w	sp!, {r5, r6, r7, lr}
 80015b2:	f7ff bf7e 	b.w	80014b2 <Ssd1306::Text(char const*, unsigned int)>
 80015b6:	bde0      	pop	{r5, r6, r7, pc}

080015b8 <Ssd1306::ClearLine(unsigned char)>:
 80015b8:	b513      	push	{r0, r1, r4, lr}
 80015ba:	7943      	ldrb	r3, [r0, #5]
 80015bc:	428b      	cmp	r3, r1
 80015be:	4604      	mov	r4, r0
 80015c0:	d315      	bcc.n	80015ee <Ssd1306::ClearLine(unsigned char)+0x36>
 80015c2:	1e4a      	subs	r2, r1, #1
 80015c4:	b2d2      	uxtb	r2, r2
 80015c6:	2100      	movs	r1, #0
 80015c8:	9201      	str	r2, [sp, #4]
 80015ca:	f7ff ffbd 	bl	8001548 <Ssd1306::SetCursorPos(unsigned char, unsigned char)>
 80015ce:	f104 0008 	add.w	r0, r4, #8
 80015d2:	f7ff ff43 	bl	800145c <HAL_I2C::Setup()>
 80015d6:	2181      	movs	r1, #129	; 0x81
 80015d8:	4806      	ldr	r0, [pc, #24]	; (80015f4 <Ssd1306::ClearLine(unsigned char)+0x3c>)
 80015da:	f003 fba9 	bl	8004d30 <gd32_i2c_write>
 80015de:	9a01      	ldr	r2, [sp, #4]
 80015e0:	2100      	movs	r1, #0
 80015e2:	4620      	mov	r0, r4
 80015e4:	b002      	add	sp, #8
 80015e6:	e8bd 4010 	ldmia.w	sp!, {r4, lr}
 80015ea:	f7ff bfad 	b.w	8001548 <Ssd1306::SetCursorPos(unsigned char, unsigned char)>
 80015ee:	b002      	add	sp, #8
 80015f0:	bd10      	pop	{r4, pc}
 80015f2:	bf00      	nop
 80015f4:	20000078 	andcs	r0, r0, r8, ror r0

080015f8 <Ssd1306::SetSleep(bool)>:
 80015f8:	b111      	cbz	r1, 8001600 <Ssd1306::SetSleep(bool)+0x8>
 80015fa:	21ae      	movs	r1, #174	; 0xae
 80015fc:	f7ff bf94 	b.w	8001528 <Ssd1306::SendCommand(unsigned char)>
 8001600:	21af      	movs	r1, #175	; 0xaf
 8001602:	e7fb      	b.n	80015fc <Ssd1306::SetSleep(bool)+0x4>

08001604 <Ssd1306::SetContrast(unsigned char)>:
 8001604:	b538      	push	{r3, r4, r5, lr}
 8001606:	4604      	mov	r4, r0
 8001608:	460d      	mov	r5, r1
 800160a:	7181      	strb	r1, [r0, #6]
 800160c:	2181      	movs	r1, #129	; 0x81
 800160e:	f7ff ff8b 	bl	8001528 <Ssd1306::SendCommand(unsigned char)>
 8001612:	4629      	mov	r1, r5
 8001614:	4620      	mov	r0, r4
 8001616:	e8bd 4038 	ldmia.w	sp!, {r3, r4, r5, lr}
 800161a:	f7ff bf85 	b.w	8001528 <Ssd1306::SendCommand(unsigned char)>

0800161e <Ssd1306::SetFlipVertically(bool)>:
 800161e:	b510      	push	{r4, lr}
 8001620:	4604      	mov	r4, r0
 8001622:	71c1      	strb	r1, [r0, #7]
 8001624:	b141      	cbz	r1, 8001638 <Ssd1306::SetFlipVertically(bool)+0x1a>
 8001626:	21c0      	movs	r1, #192	; 0xc0
 8001628:	f7ff ff7e 	bl	8001528 <Ssd1306::SendCommand(unsigned char)>
 800162c:	21a0      	movs	r1, #160	; 0xa0
 800162e:	4620      	mov	r0, r4
 8001630:	e8bd 4010 	ldmia.w	sp!, {r4, lr}
 8001634:	f7ff bf78 	b.w	8001528 <Ssd1306::SendCommand(unsigned char)>
 8001638:	21c8      	movs	r1, #200	; 0xc8
 800163a:	f7ff ff75 	bl	8001528 <Ssd1306::SendCommand(unsigned char)>
 800163e:	21a1      	movs	r1, #161	; 0xa1
 8001640:	e7f5      	b.n	800162e <Ssd1306::SetFlipVertically(bool)+0x10>
	...

08001644 <Ssd1306::CheckSH1106()>:
 8001644:	b530      	push	{r4, r5, lr}
 8001646:	2100      	movs	r1, #0
 8001648:	b087      	sub	sp, #28
 800164a:	4604      	mov	r4, r0
 800164c:	f7ff ff6c 	bl	8001528 <Ssd1306::SendCommand(unsigned char)>
 8001650:	2190      	movs	r1, #144	; 0x90
 8001652:	4620      	mov	r0, r4
 8001654:	f7ff ff68 	bl	8001528 <Ssd1306::SendCommand(unsigned char)>
 8001658:	21b0      	movs	r1, #176	; 0xb0
 800165a:	4620      	mov	r0, r4
 800165c:	f7ff ff64 	bl	8001528 <Ssd1306::SendCommand(unsigned char)>
 8001660:	4b22      	ldr	r3, [pc, #136]	; (80016ec <Ssd1306::CheckSH1106()+0xa8>)
 8001662:	f104 0508 	add.w	r5, r4, #8
 8001666:	6818      	ldr	r0, [r3, #0]
 8001668:	9002      	str	r0, [sp, #8]
 800166a:	791b      	ldrb	r3, [r3, #4]
 800166c:	f88d 300c 	strb.w	r3, [sp, #12]
 8001670:	4628      	mov	r0, r5
 8001672:	f7ff fef3 	bl	800145c <HAL_I2C::Setup()>
 8001676:	2105      	movs	r1, #5
 8001678:	a802      	add	r0, sp, #8
 800167a:	f003 fb59 	bl	8004d30 <gd32_i2c_write>
 800167e:	2100      	movs	r1, #0
 8001680:	4620      	mov	r0, r4
 8001682:	f7ff ff51 	bl	8001528 <Ssd1306::SendCommand(unsigned char)>
 8001686:	2190      	movs	r1, #144	; 0x90
 8001688:	4620      	mov	r0, r4
 800168a:	f7ff ff4d 	bl	8001528 <Ssd1306::SendCommand(unsigned char)>
 800168e:	21b0      	movs	r1, #176	; 0xb0
 8001690:	4620      	mov	r0, r4
 8001692:	f7ff ff49 	bl	8001528 <Ssd1306::SendCommand(unsigned char)>
 8001696:	2300      	movs	r3, #0
 8001698:	9304      	str	r3, [sp, #16]
 800169a:	f88d 3014 	strb.w	r3, [sp, #20]
 800169e:	4628      	mov	r0, r5
 80016a0:	2340      	movs	r3, #64	; 0x40
 80016a2:	f88d 3007 	strb.w	r3, [sp, #7]
 80016a6:	f7ff fed9 	bl	800145c <HAL_I2C::Setup()>
 80016aa:	2101      	movs	r1, #1
 80016ac:	f10d 0007 	add.w	r0, sp, #7
 80016b0:	f003 fb3e 	bl	8004d30 <gd32_i2c_write>
 80016b4:	4628      	mov	r0, r5
 80016b6:	f7ff fed1 	bl	800145c <HAL_I2C::Setup()>
 80016ba:	2105      	movs	r1, #5
 80016bc:	a804      	add	r0, sp, #16
 80016be:	f003 fb9d 	bl	8004dfc <gd32_i2c_read>
 80016c2:	aa02      	add	r2, sp, #8
 80016c4:	a904      	add	r1, sp, #16
 80016c6:	2004      	movs	r0, #4
 80016c8:	3801      	subs	r0, #1
 80016ca:	d201      	bcs.n	80016d0 <Ssd1306::CheckSH1106()+0x8c>
 80016cc:	2300      	movs	r3, #0
 80016ce:	e006      	b.n	80016de <Ssd1306::CheckSH1106()+0x9a>
 80016d0:	f812 3f01 	ldrb.w	r3, [r2, #1]!
 80016d4:	f811 5f01 	ldrb.w	r5, [r1, #1]!
 80016d8:	42ab      	cmp	r3, r5
 80016da:	d0f5      	beq.n	80016c8 <Ssd1306::CheckSH1106()+0x84>
 80016dc:	1b5b      	subs	r3, r3, r5
 80016de:	fab3 f383 	clz	r3, r3
 80016e2:	095b      	lsrs	r3, r3, #5
 80016e4:	7463      	strb	r3, [r4, #17]
 80016e6:	b007      	add	sp, #28
 80016e8:	bd30      	pop	{r4, r5, pc}
 80016ea:	bf00      	nop
 80016ec:	080061d2 	stmdaeq	r0, {r1, r4, r6, r7, r8, sp, lr}

080016f0 <Ssd1306::Cls()>:
 80016f0:	e92d 41f0 	stmdb	sp!, {r4, r5, r6, r7, r8, lr}
 80016f4:	7c45      	ldrb	r5, [r0, #17]
 80016f6:	00ad      	lsls	r5, r5, #2
 80016f8:	b2ed      	uxtb	r5, r5
 80016fa:	f1a5 077f 	sub.w	r7, r5, #127	; 0x7f
 80016fe:	4604      	mov	r4, r0
 8001700:	2600      	movs	r6, #0
 8001702:	f045 0810 	orr.w	r8, r5, #16
 8001706:	b2ff      	uxtb	r7, r7
 8001708:	6963      	ldr	r3, [r4, #20]
 800170a:	42b3      	cmp	r3, r6
 800170c:	4629      	mov	r1, r5
 800170e:	4620      	mov	r0, r4
 8001710:	d80b      	bhi.n	800172a <Ssd1306::Cls()+0x3a>
 8001712:	f7ff ff09 	bl	8001528 <Ssd1306::SendCommand(unsigned char)>
 8001716:	4641      	mov	r1, r8
 8001718:	4620      	mov	r0, r4
 800171a:	f7ff ff05 	bl	8001528 <Ssd1306::SendCommand(unsigned char)>
 800171e:	4620      	mov	r0, r4
 8001720:	21b0      	movs	r1, #176	; 0xb0
 8001722:	e8bd 41f0 	ldmia.w	sp!, {r4, r5, r6, r7, r8, lr}
 8001726:	f7ff beff 	b.w	8001528 <Ssd1306::SendCommand(unsigned char)>
 800172a:	f7ff fefd 	bl	8001528 <Ssd1306::SendCommand(unsigned char)>
 800172e:	4641      	mov	r1, r8
 8001730:	4620      	mov	r0, r4
 8001732:	f7ff fef9 	bl	8001528 <Ssd1306::SendCommand(unsigned char)>
 8001736:	f066 014f 	orn	r1, r6, #79	; 0x4f
 800173a:	b2c9      	uxtb	r1, r1
 800173c:	4620      	mov	r0, r4
 800173e:	f7ff fef3 	bl	8001528 <Ssd1306::SendCommand(unsigned char)>
 8001742:	7c23      	ldrb	r3, [r4, #16]
 8001744:	b123      	cbz	r3, 8001750 <Ssd1306::Cls()+0x60>
 8001746:	3b01      	subs	r3, #1
 8001748:	2b01      	cmp	r3, #1
 800174a:	d901      	bls.n	8001750 <Ssd1306::Cls()+0x60>
 800174c:	3601      	adds	r6, #1
 800174e:	e7db      	b.n	8001708 <Ssd1306::Cls()+0x18>
 8001750:	f104 0008 	add.w	r0, r4, #8
 8001754:	f7ff fe82 	bl	800145c <HAL_I2C::Setup()>
 8001758:	4639      	mov	r1, r7
 800175a:	4802      	ldr	r0, [pc, #8]	; (8001764 <Ssd1306::Cls()+0x74>)
 800175c:	f003 fae8 	bl	8004d30 <gd32_i2c_write>
 8001760:	e7f4      	b.n	800174c <Ssd1306::Cls()+0x5c>
 8001762:	bf00      	nop
 8001764:	20000078 	andcs	r0, r0, r8, ror r0

08001768 <Ssd1306::Start()>:
 8001768:	b5f7      	push	{r0, r1, r2, r4, r5, r6, r7, lr}
 800176a:	7a04      	ldrb	r4, [r0, #8]
 800176c:	68c6      	ldr	r6, [r0, #12]
 800176e:	4605      	mov	r5, r0
 8001770:	4620      	mov	r0, r4
 8001772:	f003 fad7 	bl	8004d24 <gd32_i2c_set_address>
 8001776:	4630      	mov	r0, r6
 8001778:	f003 facc 	bl	8004d14 <gd32_i2c_set_baudrate>
 800177c:	f1a4 0330 	sub.w	r3, r4, #48	; 0x30
 8001780:	2b07      	cmp	r3, #7
 8001782:	d902      	bls.n	800178a <Ssd1306::Start()+0x22>
 8001784:	3c50      	subs	r4, #80	; 0x50
 8001786:	2c0f      	cmp	r4, #15
 8001788:	d80f      	bhi.n	80017aa <Ssd1306::Start()+0x42>
 800178a:	2101      	movs	r1, #1
 800178c:	f10d 0007 	add.w	r0, sp, #7
 8001790:	f003 fb34 	bl	8004dfc <gd32_i2c_read>
 8001794:	fab0 f480 	clz	r4, r0
 8001798:	0964      	lsrs	r4, r4, #5
 800179a:	b35c      	cbz	r4, 80017f4 <Ssd1306::Start()+0x8c>
 800179c:	7c2e      	ldrb	r6, [r5, #16]
 800179e:	b14e      	cbz	r6, 80017b4 <Ssd1306::Start()+0x4c>
 80017a0:	3e01      	subs	r6, #1
 80017a2:	2e01      	cmp	r6, #1
 80017a4:	d929      	bls.n	80017fa <Ssd1306::Start()+0x92>
 80017a6:	2400      	movs	r4, #0
 80017a8:	e024      	b.n	80017f4 <Ssd1306::Start()+0x8c>
 80017aa:	2100      	movs	r1, #0
 80017ac:	4608      	mov	r0, r1
 80017ae:	f003 fabf 	bl	8004d30 <gd32_i2c_write>
 80017b2:	e7ef      	b.n	8001794 <Ssd1306::Start()+0x2c>
 80017b4:	4f16      	ldr	r7, [pc, #88]	; (8001810 <Ssd1306::Start()+0xa8>)
 80017b6:	f817 1b01 	ldrb.w	r1, [r7], #1
 80017ba:	4628      	mov	r0, r5
 80017bc:	3601      	adds	r6, #1
 80017be:	f7ff feb3 	bl	8001528 <Ssd1306::SendCommand(unsigned char)>
 80017c2:	2e18      	cmp	r6, #24
 80017c4:	d1f7      	bne.n	80017b6 <Ssd1306::Start()+0x4e>
 80017c6:	4a13      	ldr	r2, [pc, #76]	; (8001814 <Ssd1306::Start()+0xac>)
 80017c8:	2300      	movs	r3, #0
 80017ca:	4611      	mov	r1, r2
 80017cc:	4618      	mov	r0, r3
 80017ce:	3301      	adds	r3, #1
 80017d0:	2b86      	cmp	r3, #134	; 0x86
 80017d2:	f802 0b01 	strb.w	r0, [r2], #1
 80017d6:	d1fa      	bne.n	80017ce <Ssd1306::Start()+0x66>
 80017d8:	2340      	movs	r3, #64	; 0x40
 80017da:	700b      	strb	r3, [r1, #0]
 80017dc:	4628      	mov	r0, r5
 80017de:	f7ff ff31 	bl	8001644 <Ssd1306::CheckSH1106()>
 80017e2:	4628      	mov	r0, r5
 80017e4:	f7ff ff84 	bl	80016f0 <Ssd1306::Cls()>
 80017e8:	21af      	movs	r1, #175	; 0xaf
 80017ea:	4628      	mov	r0, r5
 80017ec:	f7ff fe9c 	bl	8001528 <Ssd1306::SendCommand(unsigned char)>
 80017f0:	2301      	movs	r3, #1
 80017f2:	71eb      	strb	r3, [r5, #7]
 80017f4:	4620      	mov	r0, r4
 80017f6:	b003      	add	sp, #12
 80017f8:	bdf0      	pop	{r4, r5, r6, r7, pc}
 80017fa:	4f07      	ldr	r7, [pc, #28]	; (8001818 <Ssd1306::Start()+0xb0>)
 80017fc:	2600      	movs	r6, #0
 80017fe:	f817 1b01 	ldrb.w	r1, [r7], #1
 8001802:	4628      	mov	r0, r5
 8001804:	3601      	adds	r6, #1
 8001806:	f7ff fe8f 	bl	8001528 <Ssd1306::SendCommand(unsigned char)>
 800180a:	2e18      	cmp	r6, #24
 800180c:	d1f7      	bne.n	80017fe <Ssd1306::Start()+0x96>
 800180e:	e7da      	b.n	80017c6 <Ssd1306::Start()+0x5e>
 8001810:	08006490 	stmdaeq	r0, {r4, r7, sl, sp, lr}
 8001814:	20000078 	andcs	r0, r0, r8, ror r0
 8001818:	08006478 	stmdaeq	r0, {r3, r4, r5, r6, sl, sp, lr}

0800181c <display::timeout::gpio_init()>:
 800181c:	4770      	bx	lr
	...

08001820 <SpiFlashStore::GetStoreOffset(spiflashstore::Store)>:
 8001820:	b510      	push	{r4, lr}
 8001822:	4a05      	ldr	r2, [pc, #20]	; (8001838 <SpiFlashStore::GetStoreOffset(spiflashstore::Store)+0x18>)
 8001824:	2300      	movs	r3, #0
 8001826:	2020      	movs	r0, #32
 8001828:	428b      	cmp	r3, r1
 800182a:	d100      	bne.n	800182e <SpiFlashStore::GetStoreOffset(spiflashstore::Store)+0xe>
 800182c:	bd10      	pop	{r4, pc}
 800182e:	f852 4b04 	ldr.w	r4, [r2], #4
 8001832:	3301      	adds	r3, #1
 8001834:	4420      	add	r0, r4
 8001836:	e7f7      	b.n	8001828 <SpiFlashStore::GetStoreOffset(spiflashstore::Store)+0x8>
 8001838:	08006538 	stmdaeq	r0, {r3, r4, r5, r8, sl, sp, lr}

0800183c <SpiFlashStore::Init()>:
 800183c:	e92d 43f8 	stmdb	sp!, {r3, r4, r5, r6, r7, r8, r9, lr}
 8001840:	4607      	mov	r7, r0
 8001842:	f000 ff21 	bl	8002688 <spi_flash_get_sector_size>
 8001846:	f5b0 5f80 	cmp.w	r0, #4096	; 0x1000
 800184a:	4605      	mov	r5, r0
 800184c:	d003      	beq.n	8001856 <SpiFlashStore::Init()+0x1a>
 800184e:	2500      	movs	r5, #0
 8001850:	4628      	mov	r0, r5
 8001852:	e8bd 83f8 	ldmia.w	sp!, {r3, r4, r5, r6, r7, r8, r9, pc}
 8001856:	f000 ff11 	bl	800267c <spi_flash_get_size>
 800185a:	4b3a      	ldr	r3, [pc, #232]	; (8001944 <SpiFlashStore::Init()+0x108>)
 800185c:	f5a0 5080 	sub.w	r0, r0, #4096	; 0x1000
 8001860:	f3c0 060b 	ubfx	r6, r0, #0, #12
 8001864:	6018      	str	r0, [r3, #0]
 8001866:	2e00      	cmp	r6, #0
 8001868:	d1f1      	bne.n	800184e <SpiFlashStore::Init()+0x12>
 800186a:	4c37      	ldr	r4, [pc, #220]	; (8001948 <SpiFlashStore::Init()+0x10c>)
 800186c:	4629      	mov	r1, r5
 800186e:	4622      	mov	r2, r4
 8001870:	f000 ff0f 	bl	8002692 <spi_flash_cmd_read_fast>
 8001874:	7823      	ldrb	r3, [r4, #0]
 8001876:	2b41      	cmp	r3, #65	; 0x41
 8001878:	bf1c      	itt	ne
 800187a:	2341      	movne	r3, #65	; 0x41
 800187c:	7023      	strbne	r3, [r4, #0]
 800187e:	7863      	ldrb	r3, [r4, #1]
 8001880:	bf14      	ite	ne
 8001882:	4635      	movne	r5, r6
 8001884:	2501      	moveq	r5, #1
 8001886:	2b76      	cmp	r3, #118	; 0x76
 8001888:	bf1c      	itt	ne
 800188a:	2376      	movne	r3, #118	; 0x76
 800188c:	7063      	strbne	r3, [r4, #1]
 800188e:	78a3      	ldrb	r3, [r4, #2]
 8001890:	bf18      	it	ne
 8001892:	2500      	movne	r5, #0
 8001894:	2b56      	cmp	r3, #86	; 0x56
 8001896:	bf1c      	itt	ne
 8001898:	2356      	movne	r3, #86	; 0x56
 800189a:	70a3      	strbne	r3, [r4, #2]
 800189c:	78e3      	ldrb	r3, [r4, #3]
 800189e:	bf18      	it	ne
 80018a0:	2500      	movne	r5, #0
 80018a2:	2b10      	cmp	r3, #16
 80018a4:	d020      	beq.n	80018e8 <SpiFlashStore::Init()+0xac>
 80018a6:	2310      	movs	r3, #16
 80018a8:	70e3      	strb	r3, [r4, #3]
 80018aa:	4b28      	ldr	r3, [pc, #160]	; (800194c <SpiFlashStore::Init()+0x110>)
 80018ac:	f8df 80a4 	ldr.w	r8, [pc, #164]	; 8001954 <SpiFlashStore::Init()+0x118>
 80018b0:	2201      	movs	r2, #1
 80018b2:	701a      	strb	r2, [r3, #0]
 80018b4:	2500      	movs	r5, #0
 80018b6:	f04f 09ff 	mov.w	r9, #255	; 0xff
 80018ba:	4631      	mov	r1, r6
 80018bc:	4638      	mov	r0, r7
 80018be:	f7ff ffaf 	bl	8001820 <SpiFlashStore::GetStoreOffset(spiflashstore::Store)>
 80018c2:	1821      	adds	r1, r4, r0
 80018c4:	5425      	strb	r5, [r4, r0]
 80018c6:	704d      	strb	r5, [r1, #1]
 80018c8:	708d      	strb	r5, [r1, #2]
 80018ca:	70cd      	strb	r5, [r1, #3]
 80018cc:	f858 1b04 	ldr.w	r1, [r8], #4
 80018d0:	4603      	mov	r3, r0
 80018d2:	1d02      	adds	r2, r0, #4
 80018d4:	440b      	add	r3, r1
 80018d6:	429a      	cmp	r2, r3
 80018d8:	d32f      	bcc.n	800193a <SpiFlashStore::Init()+0xfe>
 80018da:	3601      	adds	r6, #1
 80018dc:	2e1c      	cmp	r6, #28
 80018de:	d1ec      	bne.n	80018ba <SpiFlashStore::Init()+0x7e>
 80018e0:	4b1b      	ldr	r3, [pc, #108]	; (8001950 <SpiFlashStore::Init()+0x114>)
 80018e2:	2501      	movs	r5, #1
 80018e4:	601d      	str	r5, [r3, #0]
 80018e6:	e7b3      	b.n	8001850 <SpiFlashStore::Init()+0x14>
 80018e8:	2d00      	cmp	r5, #0
 80018ea:	d0de      	beq.n	80018aa <SpiFlashStore::Init()+0x6e>
 80018ec:	f04f 0900 	mov.w	r9, #0
 80018f0:	46c8      	mov	r8, r9
 80018f2:	4631      	mov	r1, r6
 80018f4:	4638      	mov	r0, r7
 80018f6:	f7ff ff93 	bl	8001820 <SpiFlashStore::GetStoreOffset(spiflashstore::Store)>
 80018fa:	5c23      	ldrb	r3, [r4, r0]
 80018fc:	2bff      	cmp	r3, #255	; 0xff
 80018fe:	d112      	bne.n	8001926 <SpiFlashStore::Init()+0xea>
 8001900:	1823      	adds	r3, r4, r0
 8001902:	785a      	ldrb	r2, [r3, #1]
 8001904:	2aff      	cmp	r2, #255	; 0xff
 8001906:	d10e      	bne.n	8001926 <SpiFlashStore::Init()+0xea>
 8001908:	789a      	ldrb	r2, [r3, #2]
 800190a:	2aff      	cmp	r2, #255	; 0xff
 800190c:	d10b      	bne.n	8001926 <SpiFlashStore::Init()+0xea>
 800190e:	78da      	ldrb	r2, [r3, #3]
 8001910:	2aff      	cmp	r2, #255	; 0xff
 8001912:	d108      	bne.n	8001926 <SpiFlashStore::Init()+0xea>
 8001914:	f804 8000 	strb.w	r8, [r4, r0]
 8001918:	46a9      	mov	r9, r5
 800191a:	f883 8001 	strb.w	r8, [r3, #1]
 800191e:	f883 8002 	strb.w	r8, [r3, #2]
 8001922:	f883 8003 	strb.w	r8, [r3, #3]
 8001926:	3601      	adds	r6, #1
 8001928:	2e1c      	cmp	r6, #28
 800192a:	d1e2      	bne.n	80018f2 <SpiFlashStore::Init()+0xb6>
 800192c:	f1b9 0f00 	cmp.w	r9, #0
 8001930:	d08e      	beq.n	8001850 <SpiFlashStore::Init()+0x14>
 8001932:	4b07      	ldr	r3, [pc, #28]	; (8001950 <SpiFlashStore::Init()+0x114>)
 8001934:	2201      	movs	r2, #1
 8001936:	601a      	str	r2, [r3, #0]
 8001938:	e78a      	b.n	8001850 <SpiFlashStore::Init()+0x14>
 800193a:	f804 9002 	strb.w	r9, [r4, r2]
 800193e:	3201      	adds	r2, #1
 8001940:	e7c9      	b.n	80018d6 <SpiFlashStore::Init()+0x9a>
 8001942:	bf00      	nop
 8001944:	20001104 	andcs	r1, r0, r4, lsl #2
 8001948:	20000104 	andcs	r0, r0, r4, lsl #2
 800194c:	20001118 	andcs	r1, r0, r8, lsl r1
 8001950:	20001110 	andcs	r1, r0, r0, lsl r1
 8001954:	08006538 	stmdaeq	r0, {r3, r4, r5, r8, sl, sp, lr}

08001958 <SpiFlashStore::SpiFlashStore()>:
 8001958:	4b16      	ldr	r3, [pc, #88]	; (80019b4 <SpiFlashStore::SpiFlashStore()+0x5c>)
 800195a:	b537      	push	{r0, r1, r2, r4, r5, lr}
 800195c:	2200      	movs	r2, #0
 800195e:	6018      	str	r0, [r3, #0]
 8001960:	4604      	mov	r4, r0
 8001962:	4611      	mov	r1, r2
 8001964:	4610      	mov	r0, r2
 8001966:	f000 fe92 	bl	800268e <spi_flash_probe>
 800196a:	2800      	cmp	r0, #0
 800196c:	4d12      	ldr	r5, [pc, #72]	; (80019b8 <SpiFlashStore::SpiFlashStore()+0x60>)
 800196e:	db11      	blt.n	8001994 <SpiFlashStore::SpiFlashStore()+0x3c>
 8001970:	f000 fe80 	bl	8002674 <spi_flash_get_name>
 8001974:	9001      	str	r0, [sp, #4]
 8001976:	f000 fe87 	bl	8002688 <spi_flash_get_sector_size>
 800197a:	9000      	str	r0, [sp, #0]
 800197c:	f000 fe7e 	bl	800267c <spi_flash_get_size>
 8001980:	e9dd 2100 	ldrd	r2, r1, [sp]
 8001984:	4603      	mov	r3, r0
 8001986:	480d      	ldr	r0, [pc, #52]	; (80019bc <SpiFlashStore::SpiFlashStore()+0x64>)
 8001988:	f7ff fb06 	bl	8000f98 <printf>
 800198c:	4620      	mov	r0, r4
 800198e:	f7ff ff55 	bl	800183c <SpiFlashStore::Init()>
 8001992:	7028      	strb	r0, [r5, #0]
 8001994:	782b      	ldrb	r3, [r5, #0]
 8001996:	b153      	cbz	r3, 80019ae <SpiFlashStore::SpiFlashStore()+0x56>
 8001998:	4909      	ldr	r1, [pc, #36]	; (80019c0 <SpiFlashStore::SpiFlashStore()+0x68>)
 800199a:	2320      	movs	r3, #32
 800199c:	2200      	movs	r2, #0
 800199e:	f851 0b04 	ldr.w	r0, [r1], #4
 80019a2:	3201      	adds	r2, #1
 80019a4:	2a1c      	cmp	r2, #28
 80019a6:	4403      	add	r3, r0
 80019a8:	d1f9      	bne.n	800199e <SpiFlashStore::SpiFlashStore()+0x46>
 80019aa:	4a06      	ldr	r2, [pc, #24]	; (80019c4 <SpiFlashStore::SpiFlashStore()+0x6c>)
 80019ac:	6013      	str	r3, [r2, #0]
 80019ae:	4620      	mov	r0, r4
 80019b0:	b003      	add	sp, #12
 80019b2:	bd30      	pop	{r4, r5, pc}
 80019b4:	20001114 	andcs	r1, r0, r4, lsl r1
 80019b8:	20001108 	andcs	r1, r0, r8, lsl #2
 80019bc:	080064e8 	stmdaeq	r0, {r3, r5, r6, r7, sl, sp, lr}
 80019c0:	08006538 	stmdaeq	r0, {r3, r4, r5, r8, sl, sp, lr}
 80019c4:	2000110c 	andcs	r1, r0, ip, lsl #2

080019c8 <SpiFlashStore::ResetSetList(spiflashstore::Store)>:
 80019c8:	b508      	push	{r3, lr}
 80019ca:	f7ff ff29 	bl	8001820 <SpiFlashStore::GetStoreOffset(spiflashstore::Store)>
 80019ce:	4905      	ldr	r1, [pc, #20]	; (80019e4 <SpiFlashStore::ResetSetList(spiflashstore::Store)+0x1c>)
 80019d0:	1842      	adds	r2, r0, r1
 80019d2:	2300      	movs	r3, #0
 80019d4:	540b      	strb	r3, [r1, r0]
 80019d6:	7053      	strb	r3, [r2, #1]
 80019d8:	7093      	strb	r3, [r2, #2]
 80019da:	70d3      	strb	r3, [r2, #3]
 80019dc:	4b02      	ldr	r3, [pc, #8]	; (80019e8 <SpiFlashStore::ResetSetList(spiflashstore::Store)+0x20>)
 80019de:	2201      	movs	r2, #1
 80019e0:	601a      	str	r2, [r3, #0]
 80019e2:	bd08      	pop	{r3, pc}
 80019e4:	20000104 	andcs	r0, r0, r4, lsl #2
 80019e8:	20001110 	andcs	r1, r0, r0, lsl r1

080019ec <SpiFlashStore::Update(spiflashstore::Store, unsigned int, void const*, unsigned int, unsigned int, unsigned int)>:
 80019ec:	e92d 41f0 	stmdb	sp!, {r4, r5, r6, r7, r8, lr}
 80019f0:	461c      	mov	r4, r3
 80019f2:	4b17      	ldr	r3, [pc, #92]	; (8001a50 <SpiFlashStore::Update(spiflashstore::Store, unsigned int, void const*, unsigned int, unsigned int, unsigned int)+0x64>)
 80019f4:	9e07      	ldr	r6, [sp, #28]
 80019f6:	781f      	ldrb	r7, [r3, #0]
 80019f8:	4615      	mov	r5, r2
 80019fa:	b1df      	cbz	r7, 8001a34 <SpiFlashStore::Update(spiflashstore::Store, unsigned int, void const*, unsigned int, unsigned int, unsigned int)+0x48>
 80019fc:	f7ff ff10 	bl	8001820 <SpiFlashStore::GetStoreOffset(spiflashstore::Store)>
 8001a00:	4a14      	ldr	r2, [pc, #80]	; (8001a54 <SpiFlashStore::Update(spiflashstore::Store, unsigned int, void const*, unsigned int, unsigned int, unsigned int)+0x68>)
 8001a02:	1941      	adds	r1, r0, r5
 8001a04:	1e63      	subs	r3, r4, #1
 8001a06:	9c06      	ldr	r4, [sp, #24]
 8001a08:	4411      	add	r1, r2
 8001a0a:	440c      	add	r4, r1
 8001a0c:	f04f 0c00 	mov.w	ip, #0
 8001a10:	42a1      	cmp	r1, r4
 8001a12:	d111      	bne.n	8001a38 <SpiFlashStore::Update(spiflashstore::Store, unsigned int, void const*, unsigned int, unsigned int, unsigned int)+0x4c>
 8001a14:	f1bc 0f00 	cmp.w	ip, #0
 8001a18:	d00c      	beq.n	8001a34 <SpiFlashStore::Update(spiflashstore::Store, unsigned int, void const*, unsigned int, unsigned int, unsigned int)+0x48>
 8001a1a:	4b0f      	ldr	r3, [pc, #60]	; (8001a58 <SpiFlashStore::Update(spiflashstore::Store, unsigned int, void const*, unsigned int, unsigned int, unsigned int)+0x6c>)
 8001a1c:	6819      	ldr	r1, [r3, #0]
 8001a1e:	2902      	cmp	r1, #2
 8001a20:	d001      	beq.n	8001a26 <SpiFlashStore::Update(spiflashstore::Store, unsigned int, void const*, unsigned int, unsigned int, unsigned int)+0x3a>
 8001a22:	2101      	movs	r1, #1
 8001a24:	6019      	str	r1, [r3, #0]
 8001a26:	b12d      	cbz	r5, 8001a34 <SpiFlashStore::Update(spiflashstore::Store, unsigned int, void const*, unsigned int, unsigned int, unsigned int)+0x48>
 8001a28:	b126      	cbz	r6, 8001a34 <SpiFlashStore::Update(spiflashstore::Store, unsigned int, void const*, unsigned int, unsigned int, unsigned int)+0x48>
 8001a2a:	9b08      	ldr	r3, [sp, #32]
 8001a2c:	4403      	add	r3, r0
 8001a2e:	58d1      	ldr	r1, [r2, r3]
 8001a30:	4331      	orrs	r1, r6
 8001a32:	50d1      	str	r1, [r2, r3]
 8001a34:	e8bd 81f0 	ldmia.w	sp!, {r4, r5, r6, r7, r8, pc}
 8001a38:	f891 8000 	ldrb.w	r8, [r1]
 8001a3c:	f813 ef01 	ldrb.w	lr, [r3, #1]!
 8001a40:	45f0      	cmp	r8, lr
 8001a42:	bf1c      	itt	ne
 8001a44:	f881 e000 	strbne.w	lr, [r1]
 8001a48:	46bc      	movne	ip, r7
 8001a4a:	3101      	adds	r1, #1
 8001a4c:	e7e0      	b.n	8001a10 <SpiFlashStore::Update(spiflashstore::Store, unsigned int, void const*, unsigned int, unsigned int, unsigned int)+0x24>
 8001a4e:	bf00      	nop
 8001a50:	20001108 	andcs	r1, r0, r8, lsl #2
 8001a54:	20000104 	andcs	r0, r0, r4, lsl #2
 8001a58:	20001110 	andcs	r1, r0, r0, lsl r1

08001a5c <SpiFlashStore::Copy(spiflashstore::Store, void*, unsigned int, unsigned int)>:
 8001a5c:	e92d 43f0 	stmdb	sp!, {r4, r5, r6, r7, r8, r9, lr}
 8001a60:	461d      	mov	r5, r3
 8001a62:	4b15      	ldr	r3, [pc, #84]	; (8001ab8 <SpiFlashStore::Copy(spiflashstore::Store, void*, unsigned int, unsigned int)+0x5c>)
 8001a64:	b085      	sub	sp, #20
 8001a66:	781b      	ldrb	r3, [r3, #0]
 8001a68:	f8dd 9030 	ldr.w	r9, [sp, #48]	; 0x30
 8001a6c:	4607      	mov	r7, r0
 8001a6e:	4688      	mov	r8, r1
 8001a70:	4614      	mov	r4, r2
 8001a72:	b1eb      	cbz	r3, 8001ab0 <SpiFlashStore::Copy(spiflashstore::Store, void*, unsigned int, unsigned int)+0x54>
 8001a74:	f7ff fed4 	bl	8001820 <SpiFlashStore::GetStoreOffset(spiflashstore::Store)>
 8001a78:	4910      	ldr	r1, [pc, #64]	; (8001abc <SpiFlashStore::Copy(spiflashstore::Store, void*, unsigned int, unsigned int)+0x60>)
 8001a7a:	4a11      	ldr	r2, [pc, #68]	; (8001ac0 <SpiFlashStore::Copy(spiflashstore::Store, void*, unsigned int, unsigned int)+0x64>)
 8001a7c:	7809      	ldrb	r1, [r1, #0]
 8001a7e:	eb00 0609 	add.w	r6, r0, r9
 8001a82:	18b3      	adds	r3, r6, r2
 8001a84:	b951      	cbnz	r1, 8001a9c <SpiFlashStore::Copy(spiflashstore::Store, void*, unsigned int, unsigned int)+0x40>
 8001a86:	5992      	ldr	r2, [r2, r6]
 8001a88:	b142      	cbz	r2, 8001a9c <SpiFlashStore::Copy(spiflashstore::Store, void*, unsigned int, unsigned int)+0x40>
 8001a8a:	3c01      	subs	r4, #1
 8001a8c:	441d      	add	r5, r3
 8001a8e:	429d      	cmp	r5, r3
 8001a90:	d00e      	beq.n	8001ab0 <SpiFlashStore::Copy(spiflashstore::Store, void*, unsigned int, unsigned int)+0x54>
 8001a92:	f813 2b01 	ldrb.w	r2, [r3], #1
 8001a96:	f804 2f01 	strb.w	r2, [r4, #1]!
 8001a9a:	e7f8      	b.n	8001a8e <SpiFlashStore::Copy(spiflashstore::Store, void*, unsigned int, unsigned int)+0x32>
 8001a9c:	2300      	movs	r3, #0
 8001a9e:	e9cd 3301 	strd	r3, r3, [sp, #4]
 8001aa2:	9500      	str	r5, [sp, #0]
 8001aa4:	4623      	mov	r3, r4
 8001aa6:	464a      	mov	r2, r9
 8001aa8:	4641      	mov	r1, r8
 8001aaa:	4638      	mov	r0, r7
 8001aac:	f7ff ff9e 	bl	80019ec <SpiFlashStore::Update(spiflashstore::Store, unsigned int, void const*, unsigned int, unsigned int, unsigned int)>
 8001ab0:	b005      	add	sp, #20
 8001ab2:	e8bd 83f0 	ldmia.w	sp!, {r4, r5, r6, r7, r8, r9, pc}
 8001ab6:	bf00      	nop
 8001ab8:	20001108 	andcs	r1, r0, r8, lsl #2
 8001abc:	20001118 	andcs	r1, r0, r8, lsl r1
 8001ac0:	20000104 	andcs	r0, r0, r4, lsl #2

08001ac4 <SpiFlashStore::Flash()>:
 8001ac4:	b570      	push	{r4, r5, r6, lr}
 8001ac6:	4e10      	ldr	r6, [pc, #64]	; (8001b08 <SpiFlashStore::Flash()+0x44>)
 8001ac8:	6834      	ldr	r4, [r6, #0]
 8001aca:	b134      	cbz	r4, 8001ada <SpiFlashStore::Flash()+0x16>
 8001acc:	4b0f      	ldr	r3, [pc, #60]	; (8001b0c <SpiFlashStore::Flash()+0x48>)
 8001ace:	681d      	ldr	r5, [r3, #0]
 8001ad0:	b92d      	cbnz	r5, 8001ade <SpiFlashStore::Flash()+0x1a>
 8001ad2:	480f      	ldr	r0, [pc, #60]	; (8001b10 <SpiFlashStore::Flash()+0x4c>)
 8001ad4:	f7ff fa60 	bl	8000f98 <printf>
 8001ad8:	2400      	movs	r4, #0
 8001ada:	4620      	mov	r0, r4
 8001adc:	bd70      	pop	{r4, r5, r6, pc}
 8001ade:	2c01      	cmp	r4, #1
 8001ae0:	d00a      	beq.n	8001af8 <SpiFlashStore::Flash()+0x34>
 8001ae2:	2c02      	cmp	r4, #2
 8001ae4:	d1f8      	bne.n	8001ad8 <SpiFlashStore::Flash()+0x14>
 8001ae6:	4b0b      	ldr	r3, [pc, #44]	; (8001b14 <SpiFlashStore::Flash()+0x50>)
 8001ae8:	4a0b      	ldr	r2, [pc, #44]	; (8001b18 <SpiFlashStore::Flash()+0x54>)
 8001aea:	6819      	ldr	r1, [r3, #0]
 8001aec:	4628      	mov	r0, r5
 8001aee:	2400      	movs	r4, #0
 8001af0:	f000 fddb 	bl	80026aa <spi_flash_cmd_write_multi>
 8001af4:	6034      	str	r4, [r6, #0]
 8001af6:	e7f0      	b.n	8001ada <SpiFlashStore::Flash()+0x16>
 8001af8:	f44f 5180 	mov.w	r1, #4096	; 0x1000
 8001afc:	4628      	mov	r0, r5
 8001afe:	f000 fdf7 	bl	80026f0 <spi_flash_cmd_erase>
 8001b02:	2302      	movs	r3, #2
 8001b04:	6033      	str	r3, [r6, #0]
 8001b06:	e7e8      	b.n	8001ada <SpiFlashStore::Flash()+0x16>
 8001b08:	20001110 	andcs	r1, r0, r0, lsl r1
 8001b0c:	20001104 	andcs	r1, r0, r4, lsl #2
 8001b10:	08006518 	stmdaeq	r0, {r3, r4, r8, sl, sp, lr}
 8001b14:	2000110c 	andcs	r1, r0, ip, lsl #2
 8001b18:	20000104 	andcs	r0, r0, r4, lsl #2

08001b1c <StoreNetwork::~StoreNetwork()>:
 8001b1c:	4770      	bx	lr

08001b1e <non-virtual thunk to StoreNetwork::~StoreNetwork()>:
 8001b1e:	3804      	subs	r0, #4
 8001b20:	4770      	bx	lr
	...

08001b24 <StoreNetwork::Update(networkparams::Params const*)>:
 8001b24:	b51f      	push	{r0, r1, r2, r3, r4, lr}
 8001b26:	2200      	movs	r2, #0
 8001b28:	e9cd 2201 	strd	r2, r2, [sp, #4]
 8001b2c:	460b      	mov	r3, r1
 8001b2e:	4805      	ldr	r0, [pc, #20]	; (8001b44 <StoreNetwork::Update(networkparams::Params const*)+0x20>)
 8001b30:	215e      	movs	r1, #94	; 0x5e
 8001b32:	9100      	str	r1, [sp, #0]
 8001b34:	6800      	ldr	r0, [r0, #0]
 8001b36:	4611      	mov	r1, r2
 8001b38:	f7ff ff58 	bl	80019ec <SpiFlashStore::Update(spiflashstore::Store, unsigned int, void const*, unsigned int, unsigned int, unsigned int)>
 8001b3c:	b005      	add	sp, #20
 8001b3e:	f85d fb04 	ldr.w	pc, [sp], #4
 8001b42:	bf00      	nop
 8001b44:	20001114 	andcs	r1, r0, r4, lsl r1

08001b48 <StoreNetwork::SaveDhcp(bool)>:
 8001b48:	b57f      	push	{r0, r1, r2, r3, r4, r5, r6, lr}
 8001b4a:	2301      	movs	r3, #1
 8001b4c:	f88d 1017 	strb.w	r1, [sp, #23]
 8001b50:	2100      	movs	r1, #0
 8001b52:	e9cd 3101 	strd	r3, r1, [sp, #4]
 8001b56:	4805      	ldr	r0, [pc, #20]	; (8001b6c <StoreNetwork::SaveDhcp(bool)+0x24>)
 8001b58:	9300      	str	r3, [sp, #0]
 8001b5a:	6800      	ldr	r0, [r0, #0]
 8001b5c:	f10d 0317 	add.w	r3, sp, #23
 8001b60:	2214      	movs	r2, #20
 8001b62:	f7ff ff43 	bl	80019ec <SpiFlashStore::Update(spiflashstore::Store, unsigned int, void const*, unsigned int, unsigned int, unsigned int)>
 8001b66:	b007      	add	sp, #28
 8001b68:	f85d fb04 	ldr.w	pc, [sp], #4
 8001b6c:	20001114 	andcs	r1, r0, r4, lsl r1

08001b70 <non-virtual thunk to StoreNetwork::SaveDhcp(bool)>:
 8001b70:	f1a0 0004 	sub.w	r0, r0, #4
 8001b74:	e7e8      	b.n	8001b48 <StoreNetwork::SaveDhcp(bool)>
 8001b76:	bf00      	nop

08001b78 <StoreNetwork::SaveGatewayIp(unsigned int)>:
 8001b78:	b57f      	push	{r0, r1, r2, r3, r4, r5, r6, lr}
 8001b7a:	2308      	movs	r3, #8
 8001b7c:	9105      	str	r1, [sp, #20]
 8001b7e:	2100      	movs	r1, #0
 8001b80:	e9cd 3101 	strd	r3, r1, [sp, #4]
 8001b84:	4805      	ldr	r0, [pc, #20]	; (8001b9c <StoreNetwork::SaveGatewayIp(unsigned int)+0x24>)
 8001b86:	2304      	movs	r3, #4
 8001b88:	9300      	str	r3, [sp, #0]
 8001b8a:	6800      	ldr	r0, [r0, #0]
 8001b8c:	ab05      	add	r3, sp, #20
 8001b8e:	220c      	movs	r2, #12
 8001b90:	f7ff ff2c 	bl	80019ec <SpiFlashStore::Update(spiflashstore::Store, unsigned int, void const*, unsigned int, unsigned int, unsigned int)>
 8001b94:	b007      	add	sp, #28
 8001b96:	f85d fb04 	ldr.w	pc, [sp], #4
 8001b9a:	bf00      	nop
 8001b9c:	20001114 	andcs	r1, r0, r4, lsl r1

08001ba0 <non-virtual thunk to StoreNetwork::SaveGatewayIp(unsigned int)>:
 8001ba0:	f1a0 0004 	sub.w	r0, r0, #4
 8001ba4:	e7e8      	b.n	8001b78 <StoreNetwork::SaveGatewayIp(unsigned int)>
 8001ba6:	bf00      	nop

08001ba8 <StoreNetwork::SaveNetMask(unsigned int)>:
 8001ba8:	b57f      	push	{r0, r1, r2, r3, r4, r5, r6, lr}
 8001baa:	2304      	movs	r3, #4
 8001bac:	9105      	str	r1, [sp, #20]
 8001bae:	2100      	movs	r1, #0
 8001bb0:	e9cd 3101 	strd	r3, r1, [sp, #4]
 8001bb4:	4804      	ldr	r0, [pc, #16]	; (8001bc8 <StoreNetwork::SaveNetMask(unsigned int)+0x20>)
 8001bb6:	9300      	str	r3, [sp, #0]
 8001bb8:	6800      	ldr	r0, [r0, #0]
 8001bba:	ab05      	add	r3, sp, #20
 8001bbc:	2208      	movs	r2, #8
 8001bbe:	f7ff ff15 	bl	80019ec <SpiFlashStore::Update(spiflashstore::Store, unsigned int, void const*, unsigned int, unsigned int, unsigned int)>
 8001bc2:	b007      	add	sp, #28
 8001bc4:	f85d fb04 	ldr.w	pc, [sp], #4
 8001bc8:	20001114 	andcs	r1, r0, r4, lsl r1

08001bcc <non-virtual thunk to StoreNetwork::SaveNetMask(unsigned int)>:
 8001bcc:	f1a0 0004 	sub.w	r0, r0, #4
 8001bd0:	e7ea      	b.n	8001ba8 <StoreNetwork::SaveNetMask(unsigned int)>
 8001bd2:	bf00      	nop

08001bd4 <StoreNetwork::SaveIp(unsigned int)>:
 8001bd4:	b57f      	push	{r0, r1, r2, r3, r4, r5, r6, lr}
 8001bd6:	2302      	movs	r3, #2
 8001bd8:	9105      	str	r1, [sp, #20]
 8001bda:	2100      	movs	r1, #0
 8001bdc:	e9cd 3101 	strd	r3, r1, [sp, #4]
 8001be0:	2204      	movs	r2, #4
 8001be2:	4804      	ldr	r0, [pc, #16]	; (8001bf4 <StoreNetwork::SaveIp(unsigned int)+0x20>)
 8001be4:	9200      	str	r2, [sp, #0]
 8001be6:	6800      	ldr	r0, [r0, #0]
 8001be8:	ab05      	add	r3, sp, #20
 8001bea:	f7ff feff 	bl	80019ec <SpiFlashStore::Update(spiflashstore::Store, unsigned int, void const*, unsigned int, unsigned int, unsigned int)>
 8001bee:	b007      	add	sp, #28
 8001bf0:	f85d fb04 	ldr.w	pc, [sp], #4
 8001bf4:	20001114 	andcs	r1, r0, r4, lsl r1

08001bf8 <non-virtual thunk to StoreNetwork::SaveIp(unsigned int)>:
 8001bf8:	f1a0 0004 	sub.w	r0, r0, #4
 8001bfc:	e7ea      	b.n	8001bd4 <StoreNetwork::SaveIp(unsigned int)>
 8001bfe:	bf00      	nop

08001c00 <StoreNetwork::SaveHostName(char const*, unsigned int)>:
 8001c00:	b51f      	push	{r0, r1, r2, r3, r4, lr}
 8001c02:	460b      	mov	r3, r1
 8001c04:	2000      	movs	r0, #0
 8001c06:	2120      	movs	r1, #32
 8001c08:	e9cd 1001 	strd	r1, r0, [sp, #4]
 8001c0c:	2a40      	cmp	r2, #64	; 0x40
 8001c0e:	bf28      	it	cs
 8001c10:	2240      	movcs	r2, #64	; 0x40
 8001c12:	4601      	mov	r1, r0
 8001c14:	4804      	ldr	r0, [pc, #16]	; (8001c28 <StoreNetwork::SaveHostName(char const*, unsigned int)+0x28>)
 8001c16:	9200      	str	r2, [sp, #0]
 8001c18:	6800      	ldr	r0, [r0, #0]
 8001c1a:	2215      	movs	r2, #21
 8001c1c:	f7ff fee6 	bl	80019ec <SpiFlashStore::Update(spiflashstore::Store, unsigned int, void const*, unsigned int, unsigned int, unsigned int)>
 8001c20:	b005      	add	sp, #20
 8001c22:	f85d fb04 	ldr.w	pc, [sp], #4
 8001c26:	bf00      	nop
 8001c28:	20001114 	andcs	r1, r0, r4, lsl r1

08001c2c <non-virtual thunk to StoreNetwork::SaveHostName(char const*, unsigned int)>:
 8001c2c:	f1a0 0004 	sub.w	r0, r0, #4
 8001c30:	e7e6      	b.n	8001c00 <StoreNetwork::SaveHostName(char const*, unsigned int)>
 8001c32:	bf00      	nop

08001c34 <StoreNetwork::~StoreNetwork()>:
 8001c34:	b510      	push	{r4, lr}
 8001c36:	4604      	mov	r4, r0
 8001c38:	f002 f94c 	bl	8003ed4 <operator delete(void*)>
 8001c3c:	4620      	mov	r0, r4
 8001c3e:	bd10      	pop	{r4, pc}

08001c40 <non-virtual thunk to StoreNetwork::~StoreNetwork()>:
 8001c40:	f1a0 0004 	sub.w	r0, r0, #4
 8001c44:	e7f6      	b.n	8001c34 <StoreNetwork::~StoreNetwork()>
	...

08001c48 <StoreNetwork::Copy(networkparams::Params*)>:
 8001c48:	b507      	push	{r0, r1, r2, lr}
 8001c4a:	460a      	mov	r2, r1
 8001c4c:	4804      	ldr	r0, [pc, #16]	; (8001c60 <StoreNetwork::Copy(networkparams::Params*)+0x18>)
 8001c4e:	2100      	movs	r1, #0
 8001c50:	9100      	str	r1, [sp, #0]
 8001c52:	6800      	ldr	r0, [r0, #0]
 8001c54:	235e      	movs	r3, #94	; 0x5e
 8001c56:	f7ff ff01 	bl	8001a5c <SpiFlashStore::Copy(spiflashstore::Store, void*, unsigned int, unsigned int)>
 8001c5a:	b003      	add	sp, #12
 8001c5c:	f85d fb04 	ldr.w	pc, [sp], #4
 8001c60:	20001114 	andcs	r1, r0, r4, lsl r1

08001c64 <StoreNetwork::StoreNetwork()>:
 8001c64:	4a03      	ldr	r2, [pc, #12]	; (8001c74 <StoreNetwork::StoreNetwork()+0x10>)
 8001c66:	6002      	str	r2, [r0, #0]
 8001c68:	322c      	adds	r2, #44	; 0x2c
 8001c6a:	6042      	str	r2, [r0, #4]
 8001c6c:	4a02      	ldr	r2, [pc, #8]	; (8001c78 <StoreNetwork::StoreNetwork()+0x14>)
 8001c6e:	6010      	str	r0, [r2, #0]
 8001c70:	4770      	bx	lr
 8001c72:	bf00      	nop
 8001c74:	080065b0 	stmdaeq	r0, {r4, r5, r7, r8, sl, sp, lr}
 8001c78:	2000111c 	andcs	r1, r0, ip, lsl r1

08001c7c <StoreRemoteConfig::~StoreRemoteConfig()>:
 8001c7c:	4770      	bx	lr
	...

08001c80 <StoreRemoteConfig::Copy(TRemoteConfigParams*)>:
 8001c80:	b507      	push	{r0, r1, r2, lr}
 8001c82:	2300      	movs	r3, #0
 8001c84:	4805      	ldr	r0, [pc, #20]	; (8001c9c <StoreRemoteConfig::Copy(TRemoteConfigParams*)+0x1c>)
 8001c86:	9300      	str	r3, [sp, #0]
 8001c88:	460a      	mov	r2, r1
 8001c8a:	6800      	ldr	r0, [r0, #0]
 8001c8c:	2320      	movs	r3, #32
 8001c8e:	210c      	movs	r1, #12
 8001c90:	f7ff fee4 	bl	8001a5c <SpiFlashStore::Copy(spiflashstore::Store, void*, unsigned int, unsigned int)>
 8001c94:	b003      	add	sp, #12
 8001c96:	f85d fb04 	ldr.w	pc, [sp], #4
 8001c9a:	bf00      	nop
 8001c9c:	20001114 	andcs	r1, r0, r4, lsl r1

08001ca0 <StoreRemoteConfig::Update(TRemoteConfigParams const*)>:
 8001ca0:	b51f      	push	{r0, r1, r2, r3, r4, lr}
 8001ca2:	2200      	movs	r2, #0
 8001ca4:	e9cd 2201 	strd	r2, r2, [sp, #4]
 8001ca8:	460b      	mov	r3, r1
 8001caa:	4805      	ldr	r0, [pc, #20]	; (8001cc0 <StoreRemoteConfig::Update(TRemoteConfigParams const*)+0x20>)
 8001cac:	2120      	movs	r1, #32
 8001cae:	9100      	str	r1, [sp, #0]
 8001cb0:	6800      	ldr	r0, [r0, #0]
 8001cb2:	210c      	movs	r1, #12
 8001cb4:	f7ff fe9a 	bl	80019ec <SpiFlashStore::Update(spiflashstore::Store, unsigned int, void const*, unsigned int, unsigned int, unsigned int)>
 8001cb8:	b005      	add	sp, #20
 8001cba:	f85d fb04 	ldr.w	pc, [sp], #4
 8001cbe:	bf00      	nop
 8001cc0:	20001114 	andcs	r1, r0, r4, lsl r1

08001cc4 <StoreRemoteConfig::~StoreRemoteConfig()>:
 8001cc4:	b510      	push	{r4, lr}
 8001cc6:	4604      	mov	r4, r0
 8001cc8:	f002 f904 	bl	8003ed4 <operator delete(void*)>
 8001ccc:	4620      	mov	r0, r4
 8001cce:	bd10      	pop	{r4, pc}

08001cd0 <StoreRemoteConfig::StoreRemoteConfig()>:
 8001cd0:	4a02      	ldr	r2, [pc, #8]	; (8001cdc <StoreRemoteConfig::StoreRemoteConfig()+0xc>)
 8001cd2:	6002      	str	r2, [r0, #0]
 8001cd4:	4a02      	ldr	r2, [pc, #8]	; (8001ce0 <StoreRemoteConfig::StoreRemoteConfig()+0x10>)
 8001cd6:	6010      	str	r0, [r2, #0]
 8001cd8:	4770      	bx	lr
 8001cda:	bf00      	nop
 8001cdc:	08006600 	stmdaeq	r0, {r9, sl, sp, lr}
 8001ce0:	20001120 	andcs	r1, r0, r0, lsr #2

08001ce4 <RemoteConfig::HandleList()>:
 8001ce4:	e92d 43f0 	stmdb	sp!, {r4, r5, r6, r7, r8, r9, lr}
 8001ce8:	6801      	ldr	r1, [r0, #0]
 8001cea:	4a2b      	ldr	r2, [pc, #172]	; (8001d98 <RemoteConfig::HandleList()+0xb4>)
 8001cec:	4b2b      	ldr	r3, [pc, #172]	; (8001d9c <RemoteConfig::HandleList()+0xb8>)
 8001cee:	4e2c      	ldr	r6, [pc, #176]	; (8001da0 <RemoteConfig::HandleList()+0xbc>)
 8001cf0:	681b      	ldr	r3, [r3, #0]
 8001cf2:	6835      	ldr	r5, [r6, #0]
 8001cf4:	695f      	ldr	r7, [r3, #20]
 8001cf6:	4604      	mov	r4, r0
 8001cf8:	2012      	movs	r0, #18
 8001cfa:	fb00 2201 	mla	r2, r0, r1, r2
 8001cfe:	6860      	ldr	r0, [r4, #4]
 8001d00:	4928      	ldr	r1, [pc, #160]	; (8001da4 <RemoteConfig::HandleList()+0xc0>)
 8001d02:	f04f 080c 	mov.w	r8, #12
 8001d06:	fb08 1100 	mla	r1, r8, r0, r1
 8001d0a:	4827      	ldr	r0, [pc, #156]	; (8001da8 <RemoteConfig::HandleList()+0xc4>)
 8001d0c:	f8d4 8008 	ldr.w	r8, [r4, #8]
 8001d10:	f890 9009 	ldrb.w	r9, [r0, #9]
 8001d14:	b2fb      	uxtb	r3, r7
 8001d16:	f3c7 2c07 	ubfx	ip, r7, #8, #8
 8001d1a:	f3c7 4e07 	ubfx	lr, r7, #16, #8
 8001d1e:	b089      	sub	sp, #36	; 0x24
 8001d20:	3507      	adds	r5, #7
 8001d22:	0e3f      	lsrs	r7, r7, #24
 8001d24:	f1b9 0f00 	cmp.w	r9, #0
 8001d28:	d01d      	beq.n	8001d66 <RemoteConfig::HandleList()+0x82>
 8001d2a:	3009      	adds	r0, #9
 8001d2c:	e9cd 2103 	strd	r2, r1, [sp, #12]
 8001d30:	e9cd 8005 	strd	r8, r0, [sp, #20]
 8001d34:	e9cd e701 	strd	lr, r7, [sp, #4]
 8001d38:	4a1c      	ldr	r2, [pc, #112]	; (8001dac <RemoteConfig::HandleList()+0xc8>)
 8001d3a:	f8cd c000 	str.w	ip, [sp]
 8001d3e:	f44f 717e 	mov.w	r1, #1016	; 0x3f8
 8001d42:	4628      	mov	r0, r5
 8001d44:	f7ff f938 	bl	8000fb8 <snprintf>
 8001d48:	8ba3      	ldrh	r3, [r4, #28]
 8001d4a:	2b05      	cmp	r3, #5
 8001d4c:	d118      	bne.n	8001d80 <RemoteConfig::HandleList()+0x9c>
 8001d4e:	f642 1305 	movw	r3, #10501	; 0x2905
 8001d52:	9300      	str	r3, [sp, #0]
 8001d54:	69a3      	ldr	r3, [r4, #24]
 8001d56:	b282      	uxth	r2, r0
 8001d58:	4629      	mov	r1, r5
 8001d5a:	7d20      	ldrb	r0, [r4, #20]
 8001d5c:	f000 feaa 	bl	8002ab4 <udp_send>
 8001d60:	b009      	add	sp, #36	; 0x24
 8001d62:	e8bd 83f0 	ldmia.w	sp!, {r4, r5, r6, r7, r8, r9, pc}
 8001d66:	e9cd 1804 	strd	r1, r8, [sp, #16]
 8001d6a:	e9cd 7202 	strd	r7, r2, [sp, #8]
 8001d6e:	e9cd ce00 	strd	ip, lr, [sp]
 8001d72:	4a0f      	ldr	r2, [pc, #60]	; (8001db0 <RemoteConfig::HandleList()+0xcc>)
 8001d74:	f44f 717e 	mov.w	r1, #1016	; 0x3f8
 8001d78:	4628      	mov	r0, r5
 8001d7a:	f7ff f91d 	bl	8000fb8 <snprintf>
 8001d7e:	e7e3      	b.n	8001d48 <RemoteConfig::HandleList()+0x64>
 8001d80:	2b06      	cmp	r3, #6
 8001d82:	d1ed      	bne.n	8001d60 <RemoteConfig::HandleList()+0x7c>
 8001d84:	6833      	ldr	r3, [r6, #0]
 8001d86:	799b      	ldrb	r3, [r3, #6]
 8001d88:	2b2a      	cmp	r3, #42	; 0x2a
 8001d8a:	d1e9      	bne.n	8001d60 <RemoteConfig::HandleList()+0x7c>
 8001d8c:	f642 1305 	movw	r3, #10501	; 0x2905
 8001d90:	9300      	str	r3, [sp, #0]
 8001d92:	f04f 33ff 	mov.w	r3, #4294967295	; 0xffffffff
 8001d96:	e7de      	b.n	8001d56 <RemoteConfig::HandleList()+0x72>
 8001d98:	080066ec 	stmdaeq	r0, {r2, r3, r5, r6, r7, r9, sl, sp, lr}
 8001d9c:	20002eb0 			; <UNDEFINED> instruction: 0x20002eb0
 8001da0:	20001124 	andcs	r1, r0, r4, lsr #2
 8001da4:	080067a0 	stmdaeq	r0, {r5, r7, r8, r9, sl, sp, lr}
 8001da8:	20001128 	andcs	r1, r0, r8, lsr #2
 8001dac:	08006610 	stmdaeq	r0, {r4, r9, sl, sp, lr}
 8001db0:	08006629 	stmdaeq	r0, {r0, r3, r5, r9, sl, sp, lr}

08001db4 <RemoteConfig::HandleTftpGet()>:
 8001db4:	8b83      	ldrh	r3, [r0, #28]
 8001db6:	2b05      	cmp	r3, #5
 8001db8:	d11a      	bne.n	8001df0 <RemoteConfig::HandleTftpGet()+0x3c>
 8001dba:	b537      	push	{r0, r1, r2, r4, r5, lr}
 8001dbc:	4b0d      	ldr	r3, [pc, #52]	; (8001df4 <RemoteConfig::HandleTftpGet()+0x40>)
 8001dbe:	f890 102c 	ldrb.w	r1, [r0, #44]	; 0x2c
 8001dc2:	4d0d      	ldr	r5, [pc, #52]	; (8001df8 <RemoteConfig::HandleTftpGet()+0x44>)
 8001dc4:	4a0d      	ldr	r2, [pc, #52]	; (8001dfc <RemoteConfig::HandleTftpGet()+0x48>)
 8001dc6:	4604      	mov	r4, r0
 8001dc8:	2900      	cmp	r1, #0
 8001dca:	bf08      	it	eq
 8001dcc:	4613      	moveq	r3, r2
 8001dce:	6828      	ldr	r0, [r5, #0]
 8001dd0:	4a0b      	ldr	r2, [pc, #44]	; (8001e00 <RemoteConfig::HandleTftpGet()+0x4c>)
 8001dd2:	f240 31ff 	movw	r1, #1023	; 0x3ff
 8001dd6:	f7ff f8ef 	bl	8000fb8 <snprintf>
 8001dda:	f642 1305 	movw	r3, #10501	; 0x2905
 8001dde:	9300      	str	r3, [sp, #0]
 8001de0:	b282      	uxth	r2, r0
 8001de2:	69a3      	ldr	r3, [r4, #24]
 8001de4:	6829      	ldr	r1, [r5, #0]
 8001de6:	7d20      	ldrb	r0, [r4, #20]
 8001de8:	f000 fe64 	bl	8002ab4 <udp_send>
 8001dec:	b003      	add	sp, #12
 8001dee:	bd30      	pop	{r4, r5, pc}
 8001df0:	4770      	bx	lr
 8001df2:	bf00      	nop
 8001df4:	08006678 	stmdaeq	r0, {r3, r4, r5, r6, r9, sl, sp, lr}
 8001df8:	20001124 	andcs	r1, r0, r4, lsr #2
 8001dfc:	0800669f 	stmdaeq	r0, {r0, r1, r2, r3, r4, r7, r9, sl, sp, lr}
 8001e00:	0800663f 	stmdaeq	r0, {r0, r1, r2, r3, r4, r5, r9, sl, sp, lr}

08001e04 <RemoteConfig::HandleVersion()>:
 8001e04:	8b83      	ldrh	r3, [r0, #28]
 8001e06:	2b08      	cmp	r3, #8
 8001e08:	d114      	bne.n	8001e34 <RemoteConfig::HandleVersion()+0x30>
 8001e0a:	b537      	push	{r0, r1, r2, r4, r5, lr}
 8001e0c:	4d0a      	ldr	r5, [pc, #40]	; (8001e38 <RemoteConfig::HandleVersion()+0x34>)
 8001e0e:	4b0b      	ldr	r3, [pc, #44]	; (8001e3c <RemoteConfig::HandleVersion()+0x38>)
 8001e10:	4a0b      	ldr	r2, [pc, #44]	; (8001e40 <RemoteConfig::HandleVersion()+0x3c>)
 8001e12:	4604      	mov	r4, r0
 8001e14:	f240 31ff 	movw	r1, #1023	; 0x3ff
 8001e18:	6828      	ldr	r0, [r5, #0]
 8001e1a:	f7ff f8cd 	bl	8000fb8 <snprintf>
 8001e1e:	f642 1305 	movw	r3, #10501	; 0x2905
 8001e22:	9300      	str	r3, [sp, #0]
 8001e24:	b282      	uxth	r2, r0
 8001e26:	69a3      	ldr	r3, [r4, #24]
 8001e28:	6829      	ldr	r1, [r5, #0]
 8001e2a:	7d20      	ldrb	r0, [r4, #20]
 8001e2c:	f000 fe42 	bl	8002ab4 <udp_send>
 8001e30:	b003      	add	sp, #12
 8001e32:	bd30      	pop	{r4, r5, pc}
 8001e34:	4770      	bx	lr
 8001e36:	bf00      	nop
 8001e38:	20001124 	andcs	r1, r0, r4, lsr #2
 8001e3c:	20003182 	andcs	r3, r0, r2, lsl #3
 8001e40:	08006648 	stmdaeq	r0, {r3, r6, r9, sl, sp, lr}

08001e44 <RemoteConfig::HandleUptime()>:
 8001e44:	7bc3      	ldrb	r3, [r0, #15]
 8001e46:	b1e3      	cbz	r3, 8001e82 <RemoteConfig::HandleUptime()+0x3e>
 8001e48:	4b0e      	ldr	r3, [pc, #56]	; (8001e84 <RemoteConfig::HandleUptime()+0x40>)
 8001e4a:	b537      	push	{r0, r1, r2, r4, r5, lr}
 8001e4c:	681a      	ldr	r2, [r3, #0]
 8001e4e:	8b83      	ldrh	r3, [r0, #28]
 8001e50:	2b07      	cmp	r3, #7
 8001e52:	4604      	mov	r4, r0
 8001e54:	d113      	bne.n	8001e7e <RemoteConfig::HandleUptime()+0x3a>
 8001e56:	4d0c      	ldr	r5, [pc, #48]	; (8001e88 <RemoteConfig::HandleUptime()+0x44>)
 8001e58:	f240 31ff 	movw	r1, #1023	; 0x3ff
 8001e5c:	6828      	ldr	r0, [r5, #0]
 8001e5e:	f44f 737a 	mov.w	r3, #1000	; 0x3e8
 8001e62:	fbb2 f3f3 	udiv	r3, r2, r3
 8001e66:	4a09      	ldr	r2, [pc, #36]	; (8001e8c <RemoteConfig::HandleUptime()+0x48>)
 8001e68:	f7ff f8a6 	bl	8000fb8 <snprintf>
 8001e6c:	f642 1305 	movw	r3, #10501	; 0x2905
 8001e70:	9300      	str	r3, [sp, #0]
 8001e72:	b282      	uxth	r2, r0
 8001e74:	69a3      	ldr	r3, [r4, #24]
 8001e76:	6829      	ldr	r1, [r5, #0]
 8001e78:	7d20      	ldrb	r0, [r4, #20]
 8001e7a:	f000 fe1b 	bl	8002ab4 <udp_send>
 8001e7e:	b003      	add	sp, #12
 8001e80:	bd30      	pop	{r4, r5, pc}
 8001e82:	4770      	bx	lr
 8001e84:	200031dc 	ldrdcs	r3, [r0], -ip
 8001e88:	20001124 	andcs	r1, r0, r4, lsr #2
 8001e8c:	08006653 	stmdaeq	r0, {r0, r1, r4, r6, r9, sl, sp, lr}

08001e90 <Display::TextStatus(char const*)>:
 8001e90:	e92d 41f3 	stmdb	sp!, {r0, r1, r4, r5, r6, r7, r8, lr}
 8001e94:	4604      	mov	r4, r0
 8001e96:	6980      	ldr	r0, [r0, #24]
 8001e98:	2800      	cmp	r0, #0
 8001e9a:	d033      	beq.n	8001f04 <Display::TextStatus(char const*)+0x74>
 8001e9c:	7946      	ldrb	r6, [r0, #5]
 8001e9e:	6803      	ldr	r3, [r0, #0]
 8001ea0:	f890 8004 	ldrb.w	r8, [r0, #4]
 8001ea4:	6a1b      	ldr	r3, [r3, #32]
 8001ea6:	1e72      	subs	r2, r6, #1
 8001ea8:	b2d2      	uxtb	r2, r2
 8001eaa:	9201      	str	r2, [sp, #4]
 8001eac:	460d      	mov	r5, r1
 8001eae:	2100      	movs	r1, #0
 8001eb0:	4798      	blx	r3
 8001eb2:	9a01      	ldr	r2, [sp, #4]
 8001eb4:	2700      	movs	r7, #0
 8001eb6:	f108 38ff 	add.w	r8, r8, #4294967295	; 0xffffffff
 8001eba:	45b8      	cmp	r8, r7
 8001ebc:	69a0      	ldr	r0, [r4, #24]
 8001ebe:	d818      	bhi.n	8001ef2 <Display::TextStatus(char const*)+0x62>
 8001ec0:	b118      	cbz	r0, 8001eca <Display::TextStatus(char const*)+0x3a>
 8001ec2:	6803      	ldr	r3, [r0, #0]
 8001ec4:	2100      	movs	r1, #0
 8001ec6:	6a1b      	ldr	r3, [r3, #32]
 8001ec8:	4798      	blx	r3
 8001eca:	69a0      	ldr	r0, [r4, #24]
 8001ecc:	b1d0      	cbz	r0, 8001f04 <Display::TextStatus(char const*)+0x74>
 8001ece:	7901      	ldrb	r1, [r0, #4]
 8001ed0:	2300      	movs	r3, #0
 8001ed2:	5cea      	ldrb	r2, [r5, r3]
 8001ed4:	b11a      	cbz	r2, 8001ede <Display::TextStatus(char const*)+0x4e>
 8001ed6:	1c5a      	adds	r2, r3, #1
 8001ed8:	4299      	cmp	r1, r3
 8001eda:	4613      	mov	r3, r2
 8001edc:	dcf9      	bgt.n	8001ed2 <Display::TextStatus(char const*)+0x42>
 8001ede:	6802      	ldr	r2, [r0, #0]
 8001ee0:	69d4      	ldr	r4, [r2, #28]
 8001ee2:	b2db      	uxtb	r3, r3
 8001ee4:	462a      	mov	r2, r5
 8001ee6:	4631      	mov	r1, r6
 8001ee8:	46a4      	mov	ip, r4
 8001eea:	b002      	add	sp, #8
 8001eec:	e8bd 41f0 	ldmia.w	sp!, {r4, r5, r6, r7, r8, lr}
 8001ef0:	4760      	bx	ip
 8001ef2:	b128      	cbz	r0, 8001f00 <Display::TextStatus(char const*)+0x70>
 8001ef4:	6803      	ldr	r3, [r0, #0]
 8001ef6:	9201      	str	r2, [sp, #4]
 8001ef8:	695b      	ldr	r3, [r3, #20]
 8001efa:	2120      	movs	r1, #32
 8001efc:	4798      	blx	r3
 8001efe:	9a01      	ldr	r2, [sp, #4]
 8001f00:	3701      	adds	r7, #1
 8001f02:	e7da      	b.n	8001eba <Display::TextStatus(char const*)+0x2a>
 8001f04:	b002      	add	sp, #8
 8001f06:	e8bd 81f0 	ldmia.w	sp!, {r4, r5, r6, r7, r8, pc}

08001f0a <Display::TextStatus(char const*, Display7SegmentMessage, unsigned int)>:
 8001f0a:	b5f7      	push	{r0, r1, r2, r4, r5, r6, r7, lr}
 8001f0c:	4605      	mov	r5, r0
 8001f0e:	461e      	mov	r6, r3
 8001f10:	460f      	mov	r7, r1
 8001f12:	4614      	mov	r4, r2
 8001f14:	f7ff ffbc 	bl	8001e90 <Display::TextStatus(char const*)>
 8001f18:	7c6b      	ldrb	r3, [r5, #17]
 8001f1a:	b19b      	cbz	r3, 8001f44 <Display::TextStatus(char const*, Display7SegmentMessage, unsigned int)+0x3a>
 8001f1c:	43e2      	mvns	r2, r4
 8001f1e:	2312      	movs	r3, #18
 8001f20:	7a28      	ldrb	r0, [r5, #8]
 8001f22:	f88d 3004 	strb.w	r3, [sp, #4]
 8001f26:	f3c2 2307 	ubfx	r3, r2, #8, #8
 8001f2a:	f88d 3005 	strb.w	r3, [sp, #5]
 8001f2e:	f88d 2006 	strb.w	r2, [sp, #6]
 8001f32:	f002 fef7 	bl	8004d24 <gd32_i2c_set_address>
 8001f36:	68e8      	ldr	r0, [r5, #12]
 8001f38:	f002 feec 	bl	8004d14 <gd32_i2c_set_baudrate>
 8001f3c:	2103      	movs	r1, #3
 8001f3e:	a801      	add	r0, sp, #4
 8001f40:	f002 fef6 	bl	8004d30 <gd32_i2c_write>
 8001f44:	1c73      	adds	r3, r6, #1
 8001f46:	d006      	beq.n	8001f56 <Display::TextStatus(char const*, Display7SegmentMessage, unsigned int)+0x4c>
 8001f48:	4639      	mov	r1, r7
 8001f4a:	4630      	mov	r0, r6
 8001f4c:	b003      	add	sp, #12
 8001f4e:	e8bd 40f0 	ldmia.w	sp!, {r4, r5, r6, r7, lr}
 8001f52:	f001 be57 	b.w	8003c04 <console_status>
 8001f56:	b003      	add	sp, #12
 8001f58:	bdf0      	pop	{r4, r5, r6, r7, pc}
	...

08001f5c <RemoteConfig::HandleTftpSet()>:
 8001f5c:	8b83      	ldrh	r3, [r0, #28]
 8001f5e:	2b06      	cmp	r3, #6
 8001f60:	d172      	bne.n	8002048 <RemoteConfig::HandleTftpSet()+0xec>
 8001f62:	b570      	push	{r4, r5, r6, lr}
 8001f64:	4b39      	ldr	r3, [pc, #228]	; (800204c <RemoteConfig::HandleTftpSet()+0xf0>)
 8001f66:	681b      	ldr	r3, [r3, #0]
 8001f68:	799b      	ldrb	r3, [r3, #6]
 8001f6a:	2b30      	cmp	r3, #48	; 0x30
 8001f6c:	bf14      	ite	ne
 8001f6e:	2301      	movne	r3, #1
 8001f70:	2300      	moveq	r3, #0
 8001f72:	4604      	mov	r4, r0
 8001f74:	f880 302c 	strb.w	r3, [r0, #44]	; 0x2c
 8001f78:	d02d      	beq.n	8001fd6 <RemoteConfig::HandleTftpSet()+0x7a>
 8001f7a:	4e35      	ldr	r6, [pc, #212]	; (8002050 <RemoteConfig::HandleTftpSet()+0xf4>)
 8001f7c:	6835      	ldr	r5, [r6, #0]
 8001f7e:	69a8      	ldr	r0, [r5, #24]
 8001f80:	b9e8      	cbnz	r0, 8001fbe <RemoteConfig::HandleTftpSet()+0x62>
 8001f82:	6a63      	ldr	r3, [r4, #36]	; 0x24
 8001f84:	b9d3      	cbnz	r3, 8001fbc <RemoteConfig::HandleTftpSet()+0x60>
 8001f86:	4833      	ldr	r0, [pc, #204]	; (8002054 <RemoteConfig::HandleTftpSet()+0xf8>)
 8001f88:	f002 f82c 	bl	8003fe4 <puts>
 8001f8c:	f44f 30d4 	mov.w	r0, #108544	; 0x1a800
 8001f90:	f001 ffa6 	bl	8003ee0 <operator new[](unsigned int)>
 8001f94:	62a0      	str	r0, [r4, #40]	; 0x28
 8001f96:	f44f 7011 	mov.w	r0, #580	; 0x244
 8001f9a:	f001 ff9f 	bl	8003edc <operator new(unsigned int)>
 8001f9e:	6aa1      	ldr	r1, [r4, #40]	; 0x28
 8001fa0:	f44f 32d4 	mov.w	r2, #108544	; 0x1a800
 8001fa4:	4605      	mov	r5, r0
 8001fa6:	f000 fa95 	bl	80024d4 <TFTPFileServer::TFTPFileServer(unsigned char*, unsigned int)>
 8001faa:	492b      	ldr	r1, [pc, #172]	; (8002058 <RemoteConfig::HandleTftpSet()+0xfc>)
 8001fac:	6830      	ldr	r0, [r6, #0]
 8001fae:	6265      	str	r5, [r4, #36]	; 0x24
 8001fb0:	f04f 33ff 	mov.w	r3, #4294967295	; 0xffffffff
 8001fb4:	f244 0271 	movw	r2, #16497	; 0x4071
 8001fb8:	f7ff ffa7 	bl	8001f0a <Display::TextStatus(char const*, Display7SegmentMessage, unsigned int)>
 8001fbc:	bd70      	pop	{r4, r5, r6, pc}
 8001fbe:	6803      	ldr	r3, [r0, #0]
 8001fc0:	2100      	movs	r1, #0
 8001fc2:	6a9b      	ldr	r3, [r3, #40]	; 0x28
 8001fc4:	7429      	strb	r1, [r5, #16]
 8001fc6:	4798      	blx	r3
 8001fc8:	4b24      	ldr	r3, [pc, #144]	; (800205c <RemoteConfig::HandleTftpSet()+0x100>)
 8001fca:	681b      	ldr	r3, [r3, #0]
 8001fcc:	606b      	str	r3, [r5, #4]
 8001fce:	f894 302c 	ldrb.w	r3, [r4, #44]	; 0x2c
 8001fd2:	2b00      	cmp	r3, #0
 8001fd4:	d1d5      	bne.n	8001f82 <RemoteConfig::HandleTftpSet()+0x26>
 8001fd6:	6a63      	ldr	r3, [r4, #36]	; 0x24
 8001fd8:	2b00      	cmp	r3, #0
 8001fda:	d0ef      	beq.n	8001fbc <RemoteConfig::HandleTftpSet()+0x60>
 8001fdc:	f8d3 223c 	ldr.w	r2, [r3, #572]	; 0x23c
 8001fe0:	f893 3240 	ldrb.w	r3, [r3, #576]	; 0x240
 8001fe4:	b9f3      	cbnz	r3, 8002024 <RemoteConfig::HandleTftpSet()+0xc8>
 8001fe6:	2501      	movs	r5, #1
 8001fe8:	481d      	ldr	r0, [pc, #116]	; (8002060 <RemoteConfig::HandleTftpSet()+0x104>)
 8001fea:	f001 fffb 	bl	8003fe4 <puts>
 8001fee:	6a66      	ldr	r6, [r4, #36]	; 0x24
 8001ff0:	b13e      	cbz	r6, 8002002 <RemoteConfig::HandleTftpSet()+0xa6>
 8001ff2:	4b1c      	ldr	r3, [pc, #112]	; (8002064 <RemoteConfig::HandleTftpSet()+0x108>)
 8001ff4:	6033      	str	r3, [r6, #0]
 8001ff6:	4630      	mov	r0, r6
 8001ff8:	f000 fe3a 	bl	8002c70 <TFTPDaemon::~TFTPDaemon()>
 8001ffc:	4630      	mov	r0, r6
 8001ffe:	f001 ff69 	bl	8003ed4 <operator delete(void*)>
 8002002:	6aa0      	ldr	r0, [r4, #40]	; 0x28
 8002004:	2600      	movs	r6, #0
 8002006:	6266      	str	r6, [r4, #36]	; 0x24
 8002008:	b108      	cbz	r0, 800200e <RemoteConfig::HandleTftpSet()+0xb2>
 800200a:	f001 ff65 	bl	8003ed8 <operator delete[](void*)>
 800200e:	62a6      	str	r6, [r4, #40]	; 0x28
 8002010:	2d00      	cmp	r5, #0
 8002012:	d0d3      	beq.n	8001fbc <RemoteConfig::HandleTftpSet()+0x60>
 8002014:	480e      	ldr	r0, [pc, #56]	; (8002050 <RemoteConfig::HandleTftpSet()+0xf4>)
 8002016:	4914      	ldr	r1, [pc, #80]	; (8002068 <RemoteConfig::HandleTftpSet()+0x10c>)
 8002018:	6800      	ldr	r0, [r0, #0]
 800201a:	f04f 33ff 	mov.w	r3, #4294967295	; 0xffffffff
 800201e:	f248 0271 	movw	r2, #32881	; 0x8071
 8002022:	e7c9      	b.n	8001fb8 <RemoteConfig::HandleTftpSet()+0x5c>
 8002024:	4b11      	ldr	r3, [pc, #68]	; (800206c <RemoteConfig::HandleTftpSet()+0x110>)
 8002026:	6aa1      	ldr	r1, [r4, #40]	; 0x28
 8002028:	6818      	ldr	r0, [r3, #0]
 800202a:	f000 faa9 	bl	8002580 <SpiFlashInstall::WriteFirmware(unsigned char const*, unsigned int)>
 800202e:	4605      	mov	r5, r0
 8002030:	2800      	cmp	r0, #0
 8002032:	d1d8      	bne.n	8001fe6 <RemoteConfig::HandleTftpSet()+0x8a>
 8002034:	4806      	ldr	r0, [pc, #24]	; (8002050 <RemoteConfig::HandleTftpSet()+0xf4>)
 8002036:	490e      	ldr	r1, [pc, #56]	; (8002070 <RemoteConfig::HandleTftpSet()+0x114>)
 8002038:	6800      	ldr	r0, [r0, #0]
 800203a:	f04f 33ff 	mov.w	r3, #4294967295	; 0xffffffff
 800203e:	f247 1279 	movw	r2, #29049	; 0x7179
 8002042:	f7ff ff62 	bl	8001f0a <Display::TextStatus(char const*, Display7SegmentMessage, unsigned int)>
 8002046:	e7cf      	b.n	8001fe8 <RemoteConfig::HandleTftpSet()+0x8c>
 8002048:	4770      	bx	lr
 800204a:	bf00      	nop
 800204c:	20001124 	andcs	r1, r0, r4, lsr #2
 8002050:	20000074 	andcs	r0, r0, r4, ror r0
 8002054:	08006660 	stmdaeq	r0, {r5, r6, r9, sl, sp, lr}
 8002058:	08006673 	stmdaeq	r0, {r0, r1, r4, r5, r6, r9, sl, sp, lr}
 800205c:	200031dc 	ldrdcs	r3, [r0], -ip
 8002060:	08006687 	stmdaeq	r0, {r0, r1, r2, r7, r9, sl, sp, lr}
 8002064:	08006904 	stmdaeq	r0, {r2, r8, fp, sp, lr}
 8002068:	0800669a 	stmdaeq	r0, {r1, r3, r4, r7, r9, sl, sp, lr}
 800206c:	20001150 	andcs	r1, r0, r0, asr r1
 8002070:	0800667b 	stmdaeq	r0, {r0, r1, r3, r4, r5, r6, r9, sl, sp, lr}

08002074 <RemoteConfig::RemoteConfig(remoteconfig::Node, remoteconfig::Output, unsigned int)>:
 8002074:	e92d 47f0 	stmdb	sp!, {r4, r5, r6, r7, r8, r9, sl, lr}
 8002078:	2500      	movs	r5, #0
 800207a:	461f      	mov	r7, r3
 800207c:	6083      	str	r3, [r0, #8]
 800207e:	f04f 33ff 	mov.w	r3, #4294967295	; 0xffffffff
 8002082:	4e14      	ldr	r6, [pc, #80]	; (80020d4 <RemoteConfig::RemoteConfig(remoteconfig::Node, remoteconfig::Output, unsigned int)+0x60>)
 8002084:	f8df a054 	ldr.w	sl, [pc, #84]	; 80020dc <RemoteConfig::RemoteConfig(remoteconfig::Node, remoteconfig::Output, unsigned int)+0x68>
 8002088:	60c5      	str	r5, [r0, #12]
 800208a:	e9c0 3505 	strd	r3, r5, [r0, #20]
 800208e:	4b12      	ldr	r3, [pc, #72]	; (80020d8 <RemoteConfig::RemoteConfig(remoteconfig::Node, remoteconfig::Output, unsigned int)+0x64>)
 8002090:	8205      	strh	r5, [r0, #16]
 8002092:	e9c0 1200 	strd	r1, r2, [r0]
 8002096:	4604      	mov	r4, r0
 8002098:	6018      	str	r0, [r3, #0]
 800209a:	e9c0 5508 	strd	r5, r5, [r0, #32]
 800209e:	4689      	mov	r9, r1
 80020a0:	8385      	strh	r5, [r0, #28]
 80020a2:	6285      	str	r5, [r0, #40]	; 0x28
 80020a4:	f880 502c 	strb.w	r5, [r0, #44]	; 0x2c
 80020a8:	4631      	mov	r1, r6
 80020aa:	f8da 0000 	ldr.w	r0, [sl]
 80020ae:	4690      	mov	r8, r2
 80020b0:	f000 ffde 	bl	8003070 <Network::MacAddressCopyTo(unsigned char*)>
 80020b4:	f8da 0000 	ldr.w	r0, [sl]
 80020b8:	f886 9006 	strb.w	r9, [r6, #6]
 80020bc:	f642 1105 	movw	r1, #10501	; 0x2905
 80020c0:	f886 8007 	strb.w	r8, [r6, #7]
 80020c4:	7237      	strb	r7, [r6, #8]
 80020c6:	7275      	strb	r5, [r6, #9]
 80020c8:	f000 ffcc 	bl	8003064 <Network::Begin(unsigned short)>
 80020cc:	6160      	str	r0, [r4, #20]
 80020ce:	4620      	mov	r0, r4
 80020d0:	e8bd 87f0 	ldmia.w	sp!, {r4, r5, r6, r7, r8, r9, sl, pc}
 80020d4:	20001128 	andcs	r1, r0, r8, lsr #2
 80020d8:	2000114c 	andcs	r1, r0, ip, asr #2
 80020dc:	20002eb0 			; <UNDEFINED> instruction: 0x20002eb0

080020e0 <RemoteConfig::SetDisable(bool)>:
 80020e0:	b538      	push	{r3, r4, r5, lr}
 80020e2:	7b03      	ldrb	r3, [r0, #12]
 80020e4:	4604      	mov	r4, r0
 80020e6:	b161      	cbz	r1, 8002102 <RemoteConfig::SetDisable(bool)+0x22>
 80020e8:	b953      	cbnz	r3, 8002100 <RemoteConfig::SetDisable(bool)+0x20>
 80020ea:	4b0c      	ldr	r3, [pc, #48]	; (800211c <RemoteConfig::SetDisable(bool)+0x3c>)
 80020ec:	f642 1105 	movw	r1, #10501	; 0x2905
 80020f0:	6818      	ldr	r0, [r3, #0]
 80020f2:	f000 ffba 	bl	800306a <Network::End(unsigned short)>
 80020f6:	f04f 33ff 	mov.w	r3, #4294967295	; 0xffffffff
 80020fa:	6163      	str	r3, [r4, #20]
 80020fc:	2301      	movs	r3, #1
 80020fe:	7323      	strb	r3, [r4, #12]
 8002100:	bd38      	pop	{r3, r4, r5, pc}
 8002102:	2b00      	cmp	r3, #0
 8002104:	d0fc      	beq.n	8002100 <RemoteConfig::SetDisable(bool)+0x20>
 8002106:	4b05      	ldr	r3, [pc, #20]	; (800211c <RemoteConfig::SetDisable(bool)+0x3c>)
 8002108:	460d      	mov	r5, r1
 800210a:	6818      	ldr	r0, [r3, #0]
 800210c:	f642 1105 	movw	r1, #10501	; 0x2905
 8002110:	f000 ffa8 	bl	8003064 <Network::Begin(unsigned short)>
 8002114:	7325      	strb	r5, [r4, #12]
 8002116:	6160      	str	r0, [r4, #20]
 8002118:	e7f2      	b.n	8002100 <RemoteConfig::SetDisable(bool)+0x20>
 800211a:	bf00      	nop
 800211c:	20002eb0 			; <UNDEFINED> instruction: 0x20002eb0

08002120 <RemoteConfig::SetDisplayName(char const*)>:
 8002120:	4809      	ldr	r0, [pc, #36]	; (8002148 <RemoteConfig::SetDisplayName(char const*)+0x28>)
 8002122:	b508      	push	{r3, lr}
 8002124:	2217      	movs	r2, #23
 8002126:	1e4b      	subs	r3, r1, #1
 8002128:	f813 1f01 	ldrb.w	r1, [r3, #1]!
 800212c:	b911      	cbnz	r1, 8002134 <RemoteConfig::SetDisplayName(char const*)+0x14>
 800212e:	f001 ff38 	bl	8003fa2 <memset>
 8002132:	e003      	b.n	800213c <RemoteConfig::SetDisplayName(char const*)+0x1c>
 8002134:	3a01      	subs	r2, #1
 8002136:	f800 1b01 	strb.w	r1, [r0], #1
 800213a:	d1f5      	bne.n	8002128 <RemoteConfig::SetDisplayName(char const*)+0x8>
 800213c:	4b03      	ldr	r3, [pc, #12]	; (800214c <RemoteConfig::SetDisplayName(char const*)+0x2c>)
 800213e:	2200      	movs	r2, #0
 8002140:	f883 2020 	strb.w	r2, [r3, #32]
 8002144:	bd08      	pop	{r3, pc}
 8002146:	bf00      	nop
 8002148:	20001131 	andcs	r1, r0, r1, lsr r1
 800214c:	20001128 	andcs	r1, r0, r8, lsr #2

08002150 <RemoteConfig::Run()>:
 8002150:	e92d 41ff 	stmdb	sp!, {r0, r1, r2, r3, r4, r5, r6, r7, r8, lr}
 8002154:	7b03      	ldrb	r3, [r0, #12]
 8002156:	2b00      	cmp	r3, #0
 8002158:	d14b      	bne.n	80021f2 <RemoteConfig::Run()+0xa2>
 800215a:	4604      	mov	r4, r0
 800215c:	6a40      	ldr	r0, [r0, #36]	; 0x24
 800215e:	b108      	cbz	r0, 8002164 <RemoteConfig::Run()+0x14>
 8002160:	f000 fee8 	bl	8002f34 <TFTPDaemon::Run()>
 8002164:	4d3b      	ldr	r5, [pc, #236]	; (8002254 <RemoteConfig::Run()+0x104>)
 8002166:	7d20      	ldrb	r0, [r4, #20]
 8002168:	f10d 030e 	add.w	r3, sp, #14
 800216c:	f104 0218 	add.w	r2, r4, #24
 8002170:	4629      	mov	r1, r5
 8002172:	f000 fc79 	bl	8002a68 <udp_recv2>
 8002176:	2803      	cmp	r0, #3
 8002178:	83a0      	strh	r0, [r4, #28]
 800217a:	d93a      	bls.n	80021f2 <RemoteConfig::Run()+0xa2>
 800217c:	682b      	ldr	r3, [r5, #0]
 800217e:	181a      	adds	r2, r3, r0
 8002180:	f812 2c01 	ldrb.w	r2, [r2, #-1]
 8002184:	2a0a      	cmp	r2, #10
 8002186:	bf04      	itt	eq
 8002188:	f100 30ff 	addeq.w	r0, r0, #4294967295	; 0xffffffff
 800218c:	83a0      	strheq	r0, [r4, #28]
 800218e:	781a      	ldrb	r2, [r3, #0]
 8002190:	2a3f      	cmp	r2, #63	; 0x3f
 8002192:	d13b      	bne.n	800220c <RemoteConfig::Run()+0xbc>
 8002194:	8ba1      	ldrh	r1, [r4, #28]
 8002196:	4830      	ldr	r0, [pc, #192]	; (8002258 <RemoteConfig::Run()+0x108>)
 8002198:	3901      	subs	r1, #1
 800219a:	b289      	uxth	r1, r1
 800219c:	83a1      	strh	r1, [r4, #28]
 800219e:	2200      	movs	r2, #0
 80021a0:	4684      	mov	ip, r0
 80021a2:	7b86      	ldrb	r6, [r0, #14]
 80021a4:	8985      	ldrh	r5, [r0, #12]
 80021a6:	b186      	cbz	r6, 80021ca <RemoteConfig::Run()+0x7a>
 80021a8:	42a9      	cmp	r1, r5
 80021aa:	d810      	bhi.n	80021ce <RemoteConfig::Run()+0x7e>
 80021ac:	3201      	adds	r2, #1
 80021ae:	2a07      	cmp	r2, #7
 80021b0:	f100 0010 	add.w	r0, r0, #16
 80021b4:	d1f5      	bne.n	80021a2 <RemoteConfig::Run()+0x52>
 80021b6:	f642 1305 	movw	r3, #10501	; 0x2905
 80021ba:	9300      	str	r3, [sp, #0]
 80021bc:	69a3      	ldr	r3, [r4, #24]
 80021be:	4927      	ldr	r1, [pc, #156]	; (800225c <RemoteConfig::Run()+0x10c>)
 80021c0:	2208      	movs	r2, #8
 80021c2:	7d20      	ldrb	r0, [r4, #20]
 80021c4:	f000 fc76 	bl	8002ab4 <udp_send>
 80021c8:	e013      	b.n	80021f2 <RemoteConfig::Run()+0xa2>
 80021ca:	42a9      	cmp	r1, r5
 80021cc:	d1ee      	bne.n	80021ac <RemoteConfig::Run()+0x5c>
 80021ce:	6886      	ldr	r6, [r0, #8]
 80021d0:	461f      	mov	r7, r3
 80021d2:	3e01      	subs	r6, #1
 80021d4:	441d      	add	r5, r3
 80021d6:	42af      	cmp	r7, r5
 80021d8:	d10e      	bne.n	80021f8 <RemoteConfig::Run()+0xa8>
 80021da:	0113      	lsls	r3, r2, #4
 80021dc:	eb0c 1202 	add.w	r2, ip, r2, lsl #4
 80021e0:	f85c 3003 	ldr.w	r3, [ip, r3]
 80021e4:	6852      	ldr	r2, [r2, #4]
 80021e6:	1051      	asrs	r1, r2, #1
 80021e8:	eb04 0062 	add.w	r0, r4, r2, asr #1
 80021ec:	07d2      	lsls	r2, r2, #31
 80021ee:	d40a      	bmi.n	8002206 <RemoteConfig::Run()+0xb6>
 80021f0:	4798      	blx	r3
 80021f2:	b004      	add	sp, #16
 80021f4:	e8bd 81f0 	ldmia.w	sp!, {r4, r5, r6, r7, r8, pc}
 80021f8:	f817 8f01 	ldrb.w	r8, [r7, #1]!
 80021fc:	f816 ef01 	ldrb.w	lr, [r6, #1]!
 8002200:	45f0      	cmp	r8, lr
 8002202:	d0e8      	beq.n	80021d6 <RemoteConfig::Run()+0x86>
 8002204:	e7d2      	b.n	80021ac <RemoteConfig::Run()+0x5c>
 8002206:	5862      	ldr	r2, [r4, r1]
 8002208:	58d3      	ldr	r3, [r2, r3]
 800220a:	e7f1      	b.n	80021f0 <RemoteConfig::Run()+0xa0>
 800220c:	7b61      	ldrb	r1, [r4, #13]
 800220e:	2900      	cmp	r1, #0
 8002210:	d1ef      	bne.n	80021f2 <RemoteConfig::Run()+0xa2>
 8002212:	2a23      	cmp	r2, #35	; 0x23
 8002214:	d101      	bne.n	800221a <RemoteConfig::Run()+0xca>
 8002216:	6221      	str	r1, [r4, #32]
 8002218:	e7eb      	b.n	80021f2 <RemoteConfig::Run()+0xa2>
 800221a:	2a21      	cmp	r2, #33	; 0x21
 800221c:	d1e9      	bne.n	80021f2 <RemoteConfig::Run()+0xa2>
 800221e:	8ba2      	ldrh	r2, [r4, #28]
 8002220:	3a01      	subs	r2, #1
 8002222:	b292      	uxth	r2, r2
 8002224:	2a05      	cmp	r2, #5
 8002226:	83a2      	strh	r2, [r4, #28]
 8002228:	d90d      	bls.n	8002246 <RemoteConfig::Run()+0xf6>
 800222a:	4a0d      	ldr	r2, [pc, #52]	; (8002260 <RemoteConfig::Run()+0x110>)
 800222c:	1d59      	adds	r1, r3, #5
 800222e:	4299      	cmp	r1, r3
 8002230:	d103      	bne.n	800223a <RemoteConfig::Run()+0xea>
 8002232:	4620      	mov	r0, r4
 8002234:	f7ff fe92 	bl	8001f5c <RemoteConfig::HandleTftpSet()>
 8002238:	e7db      	b.n	80021f2 <RemoteConfig::Run()+0xa2>
 800223a:	f812 0b01 	ldrb.w	r0, [r2], #1
 800223e:	f813 5f01 	ldrb.w	r5, [r3, #1]!
 8002242:	4285      	cmp	r5, r0
 8002244:	d0f3      	beq.n	800222e <RemoteConfig::Run()+0xde>
 8002246:	f642 1305 	movw	r3, #10501	; 0x2905
 800224a:	9300      	str	r3, [sp, #0]
 800224c:	69a3      	ldr	r3, [r4, #24]
 800224e:	4905      	ldr	r1, [pc, #20]	; (8002264 <RemoteConfig::Run()+0x114>)
 8002250:	2208      	movs	r2, #8
 8002252:	e7b6      	b.n	80021c2 <RemoteConfig::Run()+0x72>
 8002254:	20001124 	andcs	r1, r0, r4, lsr #2
 8002258:	08006830 	stmdaeq	r0, {r4, r5, fp, sp, lr}
 800225c:	080066a9 	stmdaeq	r0, {r0, r3, r5, r7, r9, sl, sp, lr}
 8002260:	080066a3 	stmdaeq	r0, {r0, r1, r5, r7, r9, sl, sp, lr}
 8002264:	080066b2 	stmdaeq	r0, {r1, r4, r5, r7, r9, sl, sp, lr}

08002268 <RemoteConfig::TftpExit()>:
 8002268:	2306      	movs	r3, #6
 800226a:	8383      	strh	r3, [r0, #28]
 800226c:	4b02      	ldr	r3, [pc, #8]	; (8002278 <RemoteConfig::TftpExit()+0x10>)
 800226e:	681b      	ldr	r3, [r3, #0]
 8002270:	2230      	movs	r2, #48	; 0x30
 8002272:	719a      	strb	r2, [r3, #6]
 8002274:	f7ff be72 	b.w	8001f5c <RemoteConfig::HandleTftpSet()>
 8002278:	20001124 	andcs	r1, r0, r4, lsr #2

0800227c <RemoteConfig::HandleFactory()>:
 800227c:	b538      	push	{r3, r4, r5, lr}
 800227e:	4d05      	ldr	r5, [pc, #20]	; (8002294 <RemoteConfig::HandleFactory()+0x18>)
 8002280:	2400      	movs	r4, #0
 8002282:	4621      	mov	r1, r4
 8002284:	6828      	ldr	r0, [r5, #0]
 8002286:	3401      	adds	r4, #1
 8002288:	f7ff fb9e 	bl	80019c8 <SpiFlashStore::ResetSetList(spiflashstore::Store)>
 800228c:	2c1c      	cmp	r4, #28
 800228e:	d1f8      	bne.n	8002282 <RemoteConfig::HandleFactory()+0x6>
 8002290:	bd38      	pop	{r3, r4, r5, pc}
 8002292:	bf00      	nop
 8002294:	20001114 	andcs	r1, r0, r4, lsl r1

08002298 <RemoteConfigParams::RemoteConfigParams(RemoteConfigParamsStore*)>:
 8002298:	b510      	push	{r4, lr}
 800229a:	2220      	movs	r2, #32
 800229c:	4604      	mov	r4, r0
 800229e:	f840 1b04 	str.w	r1, [r0], #4
 80022a2:	2100      	movs	r1, #0
 80022a4:	f001 fe7d 	bl	8003fa2 <memset>
 80022a8:	4620      	mov	r0, r4
 80022aa:	bd10      	pop	{r4, pc}

080022ac <RemoteConfigParams::Load()>:
 80022ac:	b508      	push	{r3, lr}
 80022ae:	2300      	movs	r3, #0
 80022b0:	4601      	mov	r1, r0
 80022b2:	6043      	str	r3, [r0, #4]
 80022b4:	6800      	ldr	r0, [r0, #0]
 80022b6:	b120      	cbz	r0, 80022c2 <RemoteConfigParams::Load()+0x16>
 80022b8:	6803      	ldr	r3, [r0, #0]
 80022ba:	3104      	adds	r1, #4
 80022bc:	68db      	ldr	r3, [r3, #12]
 80022be:	4798      	blx	r3
 80022c0:	2001      	movs	r0, #1
 80022c2:	bd08      	pop	{r3, pc}

080022c4 <RemoteConfigParams::Set(RemoteConfig*)>:
 80022c4:	b538      	push	{r3, r4, r5, lr}
 80022c6:	460c      	mov	r4, r1
 80022c8:	6841      	ldr	r1, [r0, #4]
 80022ca:	4605      	mov	r5, r0
 80022cc:	f001 0101 	and.w	r1, r1, #1
 80022d0:	4620      	mov	r0, r4
 80022d2:	f7ff ff05 	bl	80020e0 <RemoteConfig::SetDisable(bool)>
 80022d6:	686b      	ldr	r3, [r5, #4]
 80022d8:	f3c3 0240 	ubfx	r2, r3, #1, #1
 80022dc:	7362      	strb	r2, [r4, #13]
 80022de:	f3c3 0280 	ubfx	r2, r3, #2, #1
 80022e2:	73a2      	strb	r2, [r4, #14]
 80022e4:	f3c3 02c0 	ubfx	r2, r3, #3, #1
 80022e8:	73e2      	strb	r2, [r4, #15]
 80022ea:	f3c3 1240 	ubfx	r2, r3, #5, #1
 80022ee:	06db      	lsls	r3, r3, #27
 80022f0:	7422      	strb	r2, [r4, #16]
 80022f2:	d506      	bpl.n	8002302 <RemoteConfigParams::Set(RemoteConfig*)+0x3e>
 80022f4:	f105 010c 	add.w	r1, r5, #12
 80022f8:	4620      	mov	r0, r4
 80022fa:	e8bd 4038 	ldmia.w	sp!, {r3, r4, r5, lr}
 80022fe:	f7ff bf0f 	b.w	8002120 <RemoteConfig::SetDisplayName(char const*)>
 8002302:	bd38      	pop	{r3, r4, r5, pc}

08002304 <RemoteConfig::HandleReboot()>:
 8002304:	7b83      	ldrb	r3, [r0, #14]
 8002306:	b537      	push	{r0, r1, r2, r4, r5, lr}
 8002308:	2b00      	cmp	r3, #0
 800230a:	d03f      	beq.n	800238c <RemoteConfig::HandleReboot()+0x88>
 800230c:	4c20      	ldr	r4, [pc, #128]	; (8002390 <RemoteConfig::HandleReboot()+0x8c>)
 800230e:	6825      	ldr	r5, [r4, #0]
 8002310:	2301      	movs	r3, #1
 8002312:	7443      	strb	r3, [r0, #17]
 8002314:	69a8      	ldr	r0, [r5, #24]
 8002316:	b138      	cbz	r0, 8002328 <RemoteConfig::HandleReboot()+0x24>
 8002318:	6803      	ldr	r3, [r0, #0]
 800231a:	2100      	movs	r1, #0
 800231c:	6a9b      	ldr	r3, [r3, #40]	; 0x28
 800231e:	7429      	strb	r1, [r5, #16]
 8002320:	4798      	blx	r3
 8002322:	4b1c      	ldr	r3, [pc, #112]	; (8002394 <RemoteConfig::HandleReboot()+0x90>)
 8002324:	681b      	ldr	r3, [r3, #0]
 8002326:	606b      	str	r3, [r5, #4]
 8002328:	4d1b      	ldr	r5, [pc, #108]	; (8002398 <RemoteConfig::HandleReboot()+0x94>)
 800232a:	6828      	ldr	r0, [r5, #0]
 800232c:	f7ff fbca 	bl	8001ac4 <SpiFlashStore::Flash()>
 8002330:	2800      	cmp	r0, #0
 8002332:	d1fa      	bne.n	800232a <RemoteConfig::HandleReboot()+0x26>
 8002334:	4b19      	ldr	r3, [pc, #100]	; (800239c <RemoteConfig::HandleReboot()+0x98>)
 8002336:	6818      	ldr	r0, [r3, #0]
 8002338:	f000 fe8c 	bl	8003054 <Network::Shutdown()>
 800233c:	4818      	ldr	r0, [pc, #96]	; (80023a0 <RemoteConfig::HandleReboot()+0x9c>)
 800233e:	f7fe fe2b 	bl	8000f98 <printf>
 8002342:	6823      	ldr	r3, [r4, #0]
 8002344:	6998      	ldr	r0, [r3, #24]
 8002346:	b110      	cbz	r0, 800234e <RemoteConfig::HandleReboot()+0x4a>
 8002348:	6803      	ldr	r3, [r0, #0]
 800234a:	68db      	ldr	r3, [r3, #12]
 800234c:	4798      	blx	r3
 800234e:	6824      	ldr	r4, [r4, #0]
 8002350:	4914      	ldr	r1, [pc, #80]	; (80023a4 <RemoteConfig::HandleReboot()+0xa0>)
 8002352:	4620      	mov	r0, r4
 8002354:	f7ff fd9c 	bl	8001e90 <Display::TextStatus(char const*)>
 8002358:	7c63      	ldrb	r3, [r4, #17]
 800235a:	b183      	cbz	r3, 800237e <RemoteConfig::HandleReboot()+0x7a>
 800235c:	f64b 7312 	movw	r3, #48914	; 0xbf12
 8002360:	7a20      	ldrb	r0, [r4, #8]
 8002362:	f8ad 3004 	strh.w	r3, [sp, #4]
 8002366:	23bf      	movs	r3, #191	; 0xbf
 8002368:	f88d 3006 	strb.w	r3, [sp, #6]
 800236c:	f002 fcda 	bl	8004d24 <gd32_i2c_set_address>
 8002370:	68e0      	ldr	r0, [r4, #12]
 8002372:	f002 fccf 	bl	8004d14 <gd32_i2c_set_baudrate>
 8002376:	2103      	movs	r1, #3
 8002378:	a801      	add	r0, sp, #4
 800237a:	f002 fcd9 	bl	8004d30 <gd32_i2c_write>
 800237e:	4b0a      	ldr	r3, [pc, #40]	; (80023a8 <RemoteConfig::HandleReboot()+0xa4>)
 8002380:	6818      	ldr	r0, [r3, #0]
 8002382:	b003      	add	sp, #12
 8002384:	e8bd 4030 	ldmia.w	sp!, {r4, r5, lr}
 8002388:	f001 bd66 	b.w	8003e58 <Hardware::Reboot()>
 800238c:	b003      	add	sp, #12
 800238e:	bd30      	pop	{r4, r5, pc}
 8002390:	20000074 	andcs	r0, r0, r4, ror r0
 8002394:	200031dc 	ldrdcs	r3, [r0], -ip
 8002398:	20001114 	andcs	r1, r0, r4, lsl r1
 800239c:	20002eb0 			; <UNDEFINED> instruction: 0x20002eb0
 80023a0:	080068a0 	stmdaeq	r0, {r5, r7, fp, sp, lr}
 80023a4:	080068af 	stmdaeq	r0, {r0, r1, r2, r3, r5, r7, fp, sp, lr}
 80023a8:	200031cc 	andcs	r3, r0, ip, asr #3

080023ac <TFTPFileServer::FileOpen(char const*, TFTPMode)>:
 80023ac:	2000      	movs	r0, #0
 80023ae:	4770      	bx	lr

080023b0 <TFTPFileServer::FileRead(void*, unsigned int, unsigned int)>:
 80023b0:	2000      	movs	r0, #0
 80023b2:	4770      	bx	lr

080023b4 <TFTPFileServer::Exit()>:
 80023b4:	4b01      	ldr	r3, [pc, #4]	; (80023bc <TFTPFileServer::Exit()+0x8>)
 80023b6:	6818      	ldr	r0, [r3, #0]
 80023b8:	f7ff bf56 	b.w	8002268 <RemoteConfig::TftpExit()>
 80023bc:	2000114c 	andcs	r1, r0, ip, asr #2

080023c0 <TFTPFileServer::~TFTPFileServer()>:
 80023c0:	b510      	push	{r4, lr}
 80023c2:	4b03      	ldr	r3, [pc, #12]	; (80023d0 <TFTPFileServer::~TFTPFileServer()+0x10>)
 80023c4:	6003      	str	r3, [r0, #0]
 80023c6:	4604      	mov	r4, r0
 80023c8:	f000 fc52 	bl	8002c70 <TFTPDaemon::~TFTPDaemon()>
 80023cc:	4620      	mov	r0, r4
 80023ce:	bd10      	pop	{r4, pc}
 80023d0:	08006904 	stmdaeq	r0, {r2, r8, fp, sp, lr}

080023d4 <TFTPFileServer::~TFTPFileServer()>:
 80023d4:	b510      	push	{r4, lr}
 80023d6:	4604      	mov	r4, r0
 80023d8:	f7ff fff2 	bl	80023c0 <TFTPFileServer::~TFTPFileServer()>
 80023dc:	4620      	mov	r0, r4
 80023de:	f001 fd79 	bl	8003ed4 <operator delete(void*)>
 80023e2:	4620      	mov	r0, r4
 80023e4:	bd10      	pop	{r4, pc}

080023e6 <TFTPFileServer::FileWrite(void const*, unsigned int, unsigned int)>:
 80023e6:	b5f8      	push	{r3, r4, r5, r6, r7, lr}
 80023e8:	461d      	mov	r5, r3
 80023ea:	f8d0 3238 	ldr.w	r3, [r0, #568]	; 0x238
 80023ee:	ebb5 2f53 	cmp.w	r5, r3, lsr #9
 80023f2:	4606      	mov	r6, r0
 80023f4:	460f      	mov	r7, r1
 80023f6:	4614      	mov	r4, r2
 80023f8:	d904      	bls.n	8002404 <TFTPFileServer::FileWrite(void const*, unsigned int, unsigned int)+0x1e>
 80023fa:	2400      	movs	r4, #0
 80023fc:	f8c0 423c 	str.w	r4, [r0, #572]	; 0x23c
 8002400:	4620      	mov	r0, r4
 8002402:	bdf8      	pop	{r3, r4, r5, r6, r7, pc}
 8002404:	2d01      	cmp	r5, #1
 8002406:	d00f      	beq.n	8002428 <TFTPFileServer::FileWrite(void const*, unsigned int, unsigned int)+0x42>
 8002408:	f46f 7300 	mvn.w	r3, #512	; 0x200
 800240c:	026d      	lsls	r5, r5, #9
 800240e:	441d      	add	r5, r3
 8002410:	f8d6 3234 	ldr.w	r3, [r6, #564]	; 0x234
 8002414:	193a      	adds	r2, r7, r4
 8002416:	442b      	add	r3, r5
 8002418:	42ba      	cmp	r2, r7
 800241a:	d10c      	bne.n	8002436 <TFTPFileServer::FileWrite(void const*, unsigned int, unsigned int)+0x50>
 800241c:	f8d6 323c 	ldr.w	r3, [r6, #572]	; 0x23c
 8002420:	4423      	add	r3, r4
 8002422:	f8c6 323c 	str.w	r3, [r6, #572]	; 0x23c
 8002426:	e7eb      	b.n	8002400 <TFTPFileServer::FileWrite(void const*, unsigned int, unsigned int)+0x1a>
 8002428:	4608      	mov	r0, r1
 800242a:	f000 f867 	bl	80024fc <tftpfileserver::is_valid(void const*)>
 800242e:	2800      	cmp	r0, #0
 8002430:	d1ea      	bne.n	8002408 <TFTPFileServer::FileWrite(void const*, unsigned int, unsigned int)+0x22>
 8002432:	4604      	mov	r4, r0
 8002434:	e7e4      	b.n	8002400 <TFTPFileServer::FileWrite(void const*, unsigned int, unsigned int)+0x1a>
 8002436:	f817 1b01 	ldrb.w	r1, [r7], #1
 800243a:	f803 1f01 	strb.w	r1, [r3, #1]!
 800243e:	e7eb      	b.n	8002418 <TFTPFileServer::FileWrite(void const*, unsigned int, unsigned int)+0x32>

08002440 <TFTPFileServer::FileClose()>:
 8002440:	b513      	push	{r0, r1, r4, lr}
 8002442:	2401      	movs	r4, #1
 8002444:	f880 4240 	strb.w	r4, [r0, #576]	; 0x240
 8002448:	4808      	ldr	r0, [pc, #32]	; (800246c <TFTPFileServer::FileClose()+0x2c>)
 800244a:	f7fe fda5 	bl	8000f98 <printf>
 800244e:	4b08      	ldr	r3, [pc, #32]	; (8002470 <TFTPFileServer::FileClose()+0x30>)
 8002450:	4908      	ldr	r1, [pc, #32]	; (8002474 <TFTPFileServer::FileClose()+0x34>)
 8002452:	6818      	ldr	r0, [r3, #0]
 8002454:	9001      	str	r0, [sp, #4]
 8002456:	f7ff fd1b 	bl	8001e90 <Display::TextStatus(char const*)>
 800245a:	9801      	ldr	r0, [sp, #4]
 800245c:	f645 3171 	movw	r1, #23409	; 0x5b71
 8002460:	f7fe fae2 	bl	8000a28 <Display::Status(Display7SegmentMessage)>
 8002464:	4620      	mov	r0, r4
 8002466:	b002      	add	sp, #8
 8002468:	bd10      	pop	{r4, pc}
 800246a:	bf00      	nop
 800246c:	080068bd 	stmdaeq	r0, {r0, r2, r3, r4, r5, r7, fp, sp, lr}
 8002470:	20000074 	andcs	r0, r0, r4, ror r0
 8002474:	080068c9 	stmdaeq	r0, {r0, r3, r6, r7, fp, sp, lr}

08002478 <TFTPFileServer::FileCreate(char const*, TFTPMode)>:
 8002478:	b537      	push	{r0, r1, r2, r4, r5, lr}
 800247a:	4604      	mov	r4, r0
 800247c:	b9fa      	cbnz	r2, 80024be <TFTPFileServer::FileCreate(char const*, TFTPMode)+0x46>
 800247e:	4a11      	ldr	r2, [pc, #68]	; (80024c4 <TFTPFileServer::FileCreate(char const*, TFTPMode)+0x4c>)
 8002480:	1e4b      	subs	r3, r1, #1
 8002482:	310b      	adds	r1, #11
 8002484:	f812 5b01 	ldrb.w	r5, [r2], #1
 8002488:	f813 0f01 	ldrb.w	r0, [r3, #1]!
 800248c:	42a8      	cmp	r0, r5
 800248e:	d116      	bne.n	80024be <TFTPFileServer::FileCreate(char const*, TFTPMode)+0x46>
 8002490:	b108      	cbz	r0, 8002496 <TFTPFileServer::FileCreate(char const*, TFTPMode)+0x1e>
 8002492:	428b      	cmp	r3, r1
 8002494:	d1f6      	bne.n	8002484 <TFTPFileServer::FileCreate(char const*, TFTPMode)+0xc>
 8002496:	480c      	ldr	r0, [pc, #48]	; (80024c8 <TFTPFileServer::FileCreate(char const*, TFTPMode)+0x50>)
 8002498:	f7fe fd7e 	bl	8000f98 <printf>
 800249c:	4b0b      	ldr	r3, [pc, #44]	; (80024cc <TFTPFileServer::FileCreate(char const*, TFTPMode)+0x54>)
 800249e:	490c      	ldr	r1, [pc, #48]	; (80024d0 <TFTPFileServer::FileCreate(char const*, TFTPMode)+0x58>)
 80024a0:	6818      	ldr	r0, [r3, #0]
 80024a2:	9001      	str	r0, [sp, #4]
 80024a4:	f7ff fcf4 	bl	8001e90 <Display::TextStatus(char const*)>
 80024a8:	9801      	ldr	r0, [sp, #4]
 80024aa:	f240 6171 	movw	r1, #1649	; 0x671
 80024ae:	f7fe fabb 	bl	8000a28 <Display::Status(Display7SegmentMessage)>
 80024b2:	2300      	movs	r3, #0
 80024b4:	f8c4 323c 	str.w	r3, [r4, #572]	; 0x23c
 80024b8:	2001      	movs	r0, #1
 80024ba:	b003      	add	sp, #12
 80024bc:	bd30      	pop	{r4, r5, pc}
 80024be:	2000      	movs	r0, #0
 80024c0:	e7fb      	b.n	80024ba <TFTPFileServer::FileCreate(char const*, TFTPMode)+0x42>
 80024c2:	bf00      	nop
 80024c4:	080068ef 	stmdaeq	r0, {r0, r1, r2, r3, r5, r6, r7, fp, sp, lr}
 80024c8:	080068d4 	stmdaeq	r0, {r2, r4, r6, r7, fp, sp, lr}
 80024cc:	20000074 	andcs	r0, r0, r4, ror r0
 80024d0:	080068e2 	stmdaeq	r0, {r1, r5, r6, r7, fp, sp, lr}

080024d4 <TFTPFileServer::TFTPFileServer(unsigned char*, unsigned int)>:
 80024d4:	b570      	push	{r4, r5, r6, lr}
 80024d6:	4604      	mov	r4, r0
 80024d8:	460e      	mov	r6, r1
 80024da:	4615      	mov	r5, r2
 80024dc:	f000 fb9a 	bl	8002c14 <TFTPDaemon::TFTPDaemon()>
 80024e0:	4b05      	ldr	r3, [pc, #20]	; (80024f8 <TFTPFileServer::TFTPFileServer(unsigned char*, unsigned int)+0x24>)
 80024e2:	6023      	str	r3, [r4, #0]
 80024e4:	2300      	movs	r3, #0
 80024e6:	e9c4 658d 	strd	r6, r5, [r4, #564]	; 0x234
 80024ea:	f8c4 323c 	str.w	r3, [r4, #572]	; 0x23c
 80024ee:	f884 3240 	strb.w	r3, [r4, #576]	; 0x240
 80024f2:	4620      	mov	r0, r4
 80024f4:	bd70      	pop	{r4, r5, r6, pc}
 80024f6:	bf00      	nop
 80024f8:	08006904 	stmdaeq	r0, {r2, r8, fp, sp, lr}

080024fc <tftpfileserver::is_valid(void const*)>:
 80024fc:	2001      	movs	r0, #1
 80024fe:	4770      	bx	lr

08002500 <SpiFlashInstall::SpiFlashInstall()>:
 8002500:	b57f      	push	{r0, r1, r2, r3, r4, r5, r6, lr}
 8002502:	2300      	movs	r3, #0
 8002504:	e9c0 3300 	strd	r3, r3, [r0]
 8002508:	e9c0 3302 	strd	r3, r3, [r0, #8]
 800250c:	6103      	str	r3, [r0, #16]
 800250e:	7503      	strb	r3, [r0, #20]
 8002510:	4d18      	ldr	r5, [pc, #96]	; (8002574 <SpiFlashInstall::SpiFlashInstall()+0x74>)
 8002512:	4b19      	ldr	r3, [pc, #100]	; (8002578 <SpiFlashInstall::SpiFlashInstall()+0x78>)
 8002514:	6018      	str	r0, [r3, #0]
 8002516:	682b      	ldr	r3, [r5, #0]
 8002518:	4604      	mov	r4, r0
 800251a:	6998      	ldr	r0, [r3, #24]
 800251c:	b110      	cbz	r0, 8002524 <SpiFlashInstall::SpiFlashInstall()+0x24>
 800251e:	6803      	ldr	r3, [r0, #0]
 8002520:	68db      	ldr	r3, [r3, #12]
 8002522:	4798      	blx	r3
 8002524:	f000 f8aa 	bl	800267c <spi_flash_get_size>
 8002528:	6060      	str	r0, [r4, #4]
 800252a:	f000 f8a3 	bl	8002674 <spi_flash_get_name>
 800252e:	9003      	str	r0, [sp, #12]
 8002530:	f000 f8aa 	bl	8002688 <spi_flash_get_sector_size>
 8002534:	6863      	ldr	r3, [r4, #4]
 8002536:	9903      	ldr	r1, [sp, #12]
 8002538:	4602      	mov	r2, r0
 800253a:	0a98      	lsrs	r0, r3, #10
 800253c:	9000      	str	r0, [sp, #0]
 800253e:	480f      	ldr	r0, [pc, #60]	; (800257c <SpiFlashInstall::SpiFlashInstall()+0x7c>)
 8002540:	f7fe fd2a 	bl	8000f98 <printf>
 8002544:	682d      	ldr	r5, [r5, #0]
 8002546:	f000 f895 	bl	8002674 <spi_flash_get_name>
 800254a:	69ad      	ldr	r5, [r5, #24]
 800254c:	4602      	mov	r2, r0
 800254e:	b16d      	cbz	r5, 800256c <SpiFlashInstall::SpiFlashInstall()+0x6c>
 8002550:	7928      	ldrb	r0, [r5, #4]
 8002552:	2300      	movs	r3, #0
 8002554:	5cd1      	ldrb	r1, [r2, r3]
 8002556:	b119      	cbz	r1, 8002560 <SpiFlashInstall::SpiFlashInstall()+0x60>
 8002558:	1c59      	adds	r1, r3, #1
 800255a:	4298      	cmp	r0, r3
 800255c:	460b      	mov	r3, r1
 800255e:	dcf9      	bgt.n	8002554 <SpiFlashInstall::SpiFlashInstall()+0x54>
 8002560:	6829      	ldr	r1, [r5, #0]
 8002562:	b2db      	uxtb	r3, r3
 8002564:	69ce      	ldr	r6, [r1, #28]
 8002566:	4628      	mov	r0, r5
 8002568:	2101      	movs	r1, #1
 800256a:	47b0      	blx	r6
 800256c:	4620      	mov	r0, r4
 800256e:	b004      	add	sp, #16
 8002570:	bd70      	pop	{r4, r5, r6, pc}
 8002572:	bf00      	nop
 8002574:	20000074 	andcs	r0, r0, r4, ror r0
 8002578:	20001150 	andcs	r1, r0, r0, asr r1
 800257c:	08006924 	stmdaeq	r0, {r2, r5, r8, fp, sp, lr}

08002580 <SpiFlashInstall::WriteFirmware(unsigned char const*, unsigned int)>:
 8002580:	e92d 43f8 	stmdb	sp!, {r3, r4, r5, r6, r7, r8, r9, lr}
 8002584:	460e      	mov	r6, r1
 8002586:	4614      	mov	r4, r2
 8002588:	f502 4100 	add.w	r1, r2, #32768	; 0x8000
 800258c:	6842      	ldr	r2, [r0, #4]
 800258e:	4291      	cmp	r1, r2
 8002590:	d905      	bls.n	800259e <SpiFlashInstall::WriteFirmware(unsigned char const*, unsigned int)+0x1e>
 8002592:	482f      	ldr	r0, [pc, #188]	; (8002650 <SpiFlashInstall::WriteFirmware(unsigned char const*, unsigned int)+0xd0>)
 8002594:	f7fe fd00 	bl	8000f98 <printf>
 8002598:	2000      	movs	r0, #0
 800259a:	e8bd 83f8 	ldmia.w	sp!, {r3, r4, r5, r6, r7, r8, r9, pc}
 800259e:	4f2d      	ldr	r7, [pc, #180]	; (8002654 <SpiFlashInstall::WriteFirmware(unsigned char const*, unsigned int)+0xd4>)
 80025a0:	683b      	ldr	r3, [r7, #0]
 80025a2:	f893 8000 	ldrb.w	r8, [r3]
 80025a6:	f1b8 0f00 	cmp.w	r8, #0
 80025aa:	d006      	beq.n	80025ba <SpiFlashInstall::WriteFirmware(unsigned char const*, unsigned int)+0x3a>
 80025ac:	2200      	movs	r2, #0
 80025ae:	701a      	strb	r2, [r3, #0]
 80025b0:	2104      	movs	r1, #4
 80025b2:	f64f 70ff 	movw	r0, #65535	; 0xffff
 80025b6:	f001 ffaf 	bl	8004518 <fwdgt_config>
 80025ba:	4827      	ldr	r0, [pc, #156]	; (8002658 <SpiFlashInstall::WriteFirmware(unsigned char const*, unsigned int)+0xd8>)
 80025bc:	f8df 90b0 	ldr.w	r9, [pc, #176]	; 8002670 <SpiFlashInstall::WriteFirmware(unsigned char const*, unsigned int)+0xf0>
 80025c0:	f001 fd10 	bl	8003fe4 <puts>
 80025c4:	f000 f860 	bl	8002688 <spi_flash_get_sector_size>
 80025c8:	1e65      	subs	r5, r4, #1
 80025ca:	4405      	add	r5, r0
 80025cc:	4240      	negs	r0, r0
 80025ce:	4923      	ldr	r1, [pc, #140]	; (800265c <SpiFlashInstall::WriteFirmware(unsigned char const*, unsigned int)+0xdc>)
 80025d0:	4005      	ands	r5, r0
 80025d2:	2302      	movs	r3, #2
 80025d4:	f8d9 0000 	ldr.w	r0, [r9]
 80025d8:	f240 6239 	movw	r2, #1593	; 0x639
 80025dc:	f7ff fc95 	bl	8001f0a <Display::TextStatus(char const*, Display7SegmentMessage, unsigned int)>
 80025e0:	4629      	mov	r1, r5
 80025e2:	f44f 4000 	mov.w	r0, #32768	; 0x8000
 80025e6:	f000 f883 	bl	80026f0 <spi_flash_cmd_erase>
 80025ea:	2800      	cmp	r0, #0
 80025ec:	da03      	bge.n	80025f6 <SpiFlashInstall::WriteFirmware(unsigned char const*, unsigned int)+0x76>
 80025ee:	481c      	ldr	r0, [pc, #112]	; (8002660 <SpiFlashInstall::WriteFirmware(unsigned char const*, unsigned int)+0xe0>)
 80025f0:	f001 fcf8 	bl	8003fe4 <puts>
 80025f4:	e7d0      	b.n	8002598 <SpiFlashInstall::WriteFirmware(unsigned char const*, unsigned int)+0x18>
 80025f6:	491b      	ldr	r1, [pc, #108]	; (8002664 <SpiFlashInstall::WriteFirmware(unsigned char const*, unsigned int)+0xe4>)
 80025f8:	f8d9 0000 	ldr.w	r0, [r9]
 80025fc:	2302      	movs	r3, #2
 80025fe:	f645 3239 	movw	r2, #23353	; 0x5b39
 8002602:	f7ff fc82 	bl	8001f0a <Display::TextStatus(char const*, Display7SegmentMessage, unsigned int)>
 8002606:	4632      	mov	r2, r6
 8002608:	4621      	mov	r1, r4
 800260a:	f44f 4000 	mov.w	r0, #32768	; 0x8000
 800260e:	f000 f84c 	bl	80026aa <spi_flash_cmd_write_multi>
 8002612:	2800      	cmp	r0, #0
 8002614:	da01      	bge.n	800261a <SpiFlashInstall::WriteFirmware(unsigned char const*, unsigned int)+0x9a>
 8002616:	4814      	ldr	r0, [pc, #80]	; (8002668 <SpiFlashInstall::WriteFirmware(unsigned char const*, unsigned int)+0xe8>)
 8002618:	e7ea      	b.n	80025f0 <SpiFlashInstall::WriteFirmware(unsigned char const*, unsigned int)+0x70>
 800261a:	f1b8 0f00 	cmp.w	r8, #0
 800261e:	d00d      	beq.n	800263c <SpiFlashInstall::WriteFirmware(unsigned char const*, unsigned int)+0xbc>
 8002620:	2102      	movs	r1, #2
 8002622:	f64f 70ff 	movw	r0, #65535	; 0xffff
 8002626:	683c      	ldr	r4, [r7, #0]
 8002628:	f001 ff76 	bl	8004518 <fwdgt_config>
 800262c:	2801      	cmp	r0, #1
 800262e:	bf0c      	ite	eq
 8002630:	2301      	moveq	r3, #1
 8002632:	2300      	movne	r3, #0
 8002634:	7023      	strb	r3, [r4, #0]
 8002636:	d101      	bne.n	800263c <SpiFlashInstall::WriteFirmware(unsigned char const*, unsigned int)+0xbc>
 8002638:	f001 ff5e 	bl	80044f8 <fwdgt_enable>
 800263c:	f8d9 0000 	ldr.w	r0, [r9]
 8002640:	490a      	ldr	r1, [pc, #40]	; (800266c <SpiFlashInstall::WriteFirmware(unsigned char const*, unsigned int)+0xec>)
 8002642:	2302      	movs	r3, #2
 8002644:	f643 1239 	movw	r2, #14649	; 0x3939
 8002648:	f7ff fc5f 	bl	8001f0a <Display::TextStatus(char const*, Display7SegmentMessage, unsigned int)>
 800264c:	2001      	movs	r0, #1
 800264e:	e7a4      	b.n	800259a <SpiFlashInstall::WriteFirmware(unsigned char const*, unsigned int)+0x1a>
 8002650:	0800694a 	stmdaeq	r0, {r1, r3, r6, r8, fp, sp, lr}
 8002654:	200031cc 	andcs	r3, r0, ip, asr #3
 8002658:	08006965 	stmdaeq	r0, {r0, r2, r5, r6, r8, fp, sp, lr}
 800265c:	08006974 	stmdaeq	r0, {r2, r4, r5, r6, r8, fp, sp, lr}
 8002660:	0800697a 	stmdaeq	r0, {r1, r3, r4, r5, r6, r8, fp, sp, lr}
 8002664:	0800698d 	stmdaeq	r0, {r0, r2, r3, r7, r8, fp, sp, lr}
 8002668:	08006995 	stmdaeq	r0, {r0, r2, r4, r7, r8, fp, sp, lr}
 800266c:	080069a8 	stmdaeq	r0, {r3, r5, r7, r8, fp, sp, lr}
 8002670:	20000074 	andcs	r0, r0, r4, ror r0

08002674 <spi_flash_get_name>:
 8002674:	4800      	ldr	r0, [pc, #0]	; (8002678 <spi_flash_get_name+0x4>)
 8002676:	4770      	bx	lr
 8002678:	080069ad 	stmdaeq	r0, {r0, r2, r3, r5, r7, r8, fp, sp, lr}

0800267c <spi_flash_get_size>:
 800267c:	4b01      	ldr	r3, [pc, #4]	; (8002684 <spi_flash_get_size+0x8>)
 800267e:	8c58      	ldrh	r0, [r3, #34]	; 0x22
 8002680:	0280      	lsls	r0, r0, #10
 8002682:	4770      	bx	lr
 8002684:	1fff7a00 	svcne	0x00ff7a00

08002688 <spi_flash_get_sector_size>:
 8002688:	f44f 4080 	mov.w	r0, #16384	; 0x4000
 800268c:	4770      	bx	lr

0800268e <spi_flash_probe>:
 800268e:	2001      	movs	r0, #1
 8002690:	4770      	bx	lr

08002692 <spi_flash_cmd_read_fast>:
 8002692:	f100 6000 	add.w	r0, r0, #134217728	; 0x8000000
 8002696:	4411      	add	r1, r2
 8002698:	428a      	cmp	r2, r1
 800269a:	d101      	bne.n	80026a0 <spi_flash_cmd_read_fast+0xe>
 800269c:	2000      	movs	r0, #0
 800269e:	4770      	bx	lr
 80026a0:	f850 3b04 	ldr.w	r3, [r0], #4
 80026a4:	f842 3b04 	str.w	r3, [r2], #4
 80026a8:	e7f6      	b.n	8002698 <spi_flash_cmd_read_fast+0x6>

080026aa <spi_flash_cmd_write_multi>:
 80026aa:	b570      	push	{r4, r5, r6, lr}
 80026ac:	4604      	mov	r4, r0
 80026ae:	460e      	mov	r6, r1
 80026b0:	4615      	mov	r5, r2
 80026b2:	f001 fe77 	bl	80043a4 <fmc_unlock>
 80026b6:	20d3      	movs	r0, #211	; 0xd3
 80026b8:	f001 fe90 	bl	80043dc <fmc_flag_clear>
 80026bc:	f104 6400 	add.w	r4, r4, #134217728	; 0x8000000
 80026c0:	2e03      	cmp	r6, #3
 80026c2:	462b      	mov	r3, r5
 80026c4:	d809      	bhi.n	80026da <spi_flash_cmd_write_multi+0x30>
 80026c6:	b126      	cbz	r6, 80026d2 <spi_flash_cmd_write_multi+0x28>
 80026c8:	6829      	ldr	r1, [r5, #0]
 80026ca:	4620      	mov	r0, r4
 80026cc:	f001 feea 	bl	80044a4 <fmc_word_program>
 80026d0:	b948      	cbnz	r0, 80026e6 <spi_flash_cmd_write_multi+0x3c>
 80026d2:	f001 fe79 	bl	80043c8 <fmc_lock>
 80026d6:	2000      	movs	r0, #0
 80026d8:	e006      	b.n	80026e8 <spi_flash_cmd_write_multi+0x3e>
 80026da:	6819      	ldr	r1, [r3, #0]
 80026dc:	4620      	mov	r0, r4
 80026de:	3504      	adds	r5, #4
 80026e0:	f001 fee0 	bl	80044a4 <fmc_word_program>
 80026e4:	b108      	cbz	r0, 80026ea <spi_flash_cmd_write_multi+0x40>
 80026e6:	4240      	negs	r0, r0
 80026e8:	bd70      	pop	{r4, r5, r6, pc}
 80026ea:	3404      	adds	r4, #4
 80026ec:	3e04      	subs	r6, #4
 80026ee:	e7e7      	b.n	80026c0 <spi_flash_cmd_write_multi+0x16>

080026f0 <spi_flash_cmd_erase>:
 80026f0:	b570      	push	{r4, r5, r6, lr}
 80026f2:	f100 6500 	add.w	r5, r0, #134217728	; 0x8000000
 80026f6:	b086      	sub	sp, #24
 80026f8:	460c      	mov	r4, r1
 80026fa:	2c00      	cmp	r4, #0
 80026fc:	dc01      	bgt.n	8002702 <spi_flash_cmd_erase+0x12>
 80026fe:	2000      	movs	r0, #0
 8002700:	e009      	b.n	8002716 <spi_flash_cmd_erase+0x26>
 8002702:	4629      	mov	r1, r5
 8002704:	a801      	add	r0, sp, #4
 8002706:	f000 f817 	bl	8002738 <fmc_sector_info_get>
 800270a:	9b01      	ldr	r3, [sp, #4]
 800270c:	9e03      	ldr	r6, [sp, #12]
 800270e:	3301      	adds	r3, #1
 8002710:	d103      	bne.n	800271a <spi_flash_cmd_erase+0x2a>
 8002712:	f04f 30ff 	mov.w	r0, #4294967295	; 0xffffffff
 8002716:	b006      	add	sp, #24
 8002718:	bd70      	pop	{r4, r5, r6, pc}
 800271a:	f001 fe43 	bl	80043a4 <fmc_unlock>
 800271e:	20d3      	movs	r0, #211	; 0xd3
 8002720:	f001 fe5c 	bl	80043dc <fmc_flag_clear>
 8002724:	9802      	ldr	r0, [sp, #8]
 8002726:	f001 fe8f 	bl	8004448 <fmc_sector_erase>
 800272a:	2800      	cmp	r0, #0
 800272c:	d1f1      	bne.n	8002712 <spi_flash_cmd_erase+0x22>
 800272e:	f001 fe4b 	bl	80043c8 <fmc_lock>
 8002732:	1ba4      	subs	r4, r4, r6
 8002734:	4435      	add	r5, r6
 8002736:	e7e0      	b.n	80026fa <spi_flash_cmd_erase+0xa>

08002738 <fmc_sector_info_get>:
 8002738:	f1b1 6f00 	cmp.w	r1, #134217728	; 0x8000000
 800273c:	b530      	push	{r4, r5, lr}
 800273e:	d35e      	bcc.n	80027fe <fmc_sector_info_get+0xc6>
 8002740:	4b39      	ldr	r3, [pc, #228]	; (8002828 <fmc_sector_info_get+0xf0>)
 8002742:	8c5a      	ldrh	r2, [r3, #34]	; 0x22
 8002744:	f06f 4378 	mvn.w	r3, #4160749568	; 0xf8000000
 8002748:	eb03 2382 	add.w	r3, r3, r2, lsl #10
 800274c:	428b      	cmp	r3, r1
 800274e:	d356      	bcc.n	80027fe <fmc_sector_info_get+0xc6>
 8002750:	f1b1 6f01 	cmp.w	r1, #135266304	; 0x8100000
 8002754:	d225      	bcs.n	80027a2 <fmc_sector_info_get+0x6a>
 8002756:	f101 4178 	add.w	r1, r1, #4160749568	; 0xf8000000
 800275a:	f5b1 3f80 	cmp.w	r1, #65536	; 0x10000
 800275e:	d210      	bcs.n	8002782 <fmc_sector_info_get+0x4a>
 8002760:	0b8d      	lsrs	r5, r1, #14
 8002762:	00ec      	lsls	r4, r5, #3
 8002764:	f505 5100 	add.w	r1, r5, #8192	; 0x2000
 8002768:	f643 72ff 	movw	r2, #16383	; 0x3fff
 800276c:	038b      	lsls	r3, r1, #14
 800276e:	eb02 3281 	add.w	r2, r2, r1, lsl #14
 8002772:	f44f 4180 	mov.w	r1, #16384	; 0x4000
 8002776:	e9c0 5400 	strd	r5, r4, [r0]
 800277a:	e9c0 1302 	strd	r1, r3, [r0, #8]
 800277e:	6102      	str	r2, [r0, #16]
 8002780:	bd30      	pop	{r4, r5, pc}
 8002782:	f5b1 3f00 	cmp.w	r1, #131072	; 0x20000
 8002786:	d341      	bcc.n	800280c <fmc_sector_info_get+0xd4>
 8002788:	0c49      	lsrs	r1, r1, #17
 800278a:	1d0d      	adds	r5, r1, #4
 800278c:	00ec      	lsls	r4, r5, #3
 800278e:	f501 6180 	add.w	r1, r1, #1024	; 0x400
 8002792:	044b      	lsls	r3, r1, #17
 8002794:	f503 32ff 	add.w	r2, r3, #130560	; 0x1fe00
 8002798:	f202 12ff 	addw	r2, r2, #511	; 0x1ff
 800279c:	f44f 3100 	mov.w	r1, #131072	; 0x20000
 80027a0:	e7e9      	b.n	8002776 <fmc_sector_info_get+0x3e>
 80027a2:	f1a1 6101 	sub.w	r1, r1, #135266304	; 0x8100000
 80027a6:	f5b1 3f80 	cmp.w	r1, #65536	; 0x10000
 80027aa:	d208      	bcs.n	80027be <fmc_sector_info_get+0x86>
 80027ac:	0b89      	lsrs	r1, r1, #14
 80027ae:	f101 0410 	add.w	r4, r1, #16
 80027b2:	f101 050c 	add.w	r5, r1, #12
 80027b6:	00e4      	lsls	r4, r4, #3
 80027b8:	f501 5100 	add.w	r1, r1, #8192	; 0x2000
 80027bc:	e7d4      	b.n	8002768 <fmc_sector_info_get+0x30>
 80027be:	f5b1 3f00 	cmp.w	r1, #131072	; 0x20000
 80027c2:	d32a      	bcc.n	800281a <fmc_sector_info_get+0xe2>
 80027c4:	f5b1 1f80 	cmp.w	r1, #1048576	; 0x100000
 80027c8:	d208      	bcs.n	80027dc <fmc_sector_info_get+0xa4>
 80027ca:	0c49      	lsrs	r1, r1, #17
 80027cc:	f101 0414 	add.w	r4, r1, #20
 80027d0:	f101 0510 	add.w	r5, r1, #16
 80027d4:	00e4      	lsls	r4, r4, #3
 80027d6:	f501 6181 	add.w	r1, r1, #1032	; 0x408
 80027da:	e7da      	b.n	8002792 <fmc_sector_info_get+0x5a>
 80027dc:	0c89      	lsrs	r1, r1, #18
 80027de:	f101 0408 	add.w	r4, r1, #8
 80027e2:	f101 0514 	add.w	r5, r1, #20
 80027e6:	f501 7101 	add.w	r1, r1, #516	; 0x204
 80027ea:	048b      	lsls	r3, r1, #18
 80027ec:	00e4      	lsls	r4, r4, #3
 80027ee:	f503 327f 	add.w	r2, r3, #261120	; 0x3fc00
 80027f2:	b2e4      	uxtb	r4, r4
 80027f4:	f202 32ff 	addw	r2, r2, #1023	; 0x3ff
 80027f8:	f44f 2180 	mov.w	r1, #262144	; 0x40000
 80027fc:	e7bb      	b.n	8002776 <fmc_sector_info_get+0x3e>
 80027fe:	f04f 32ff 	mov.w	r2, #4294967295	; 0xffffffff
 8002802:	4613      	mov	r3, r2
 8002804:	4611      	mov	r1, r2
 8002806:	4614      	mov	r4, r2
 8002808:	4615      	mov	r5, r2
 800280a:	e7b4      	b.n	8002776 <fmc_sector_info_get+0x3e>
 800280c:	4a07      	ldr	r2, [pc, #28]	; (800282c <fmc_sector_info_get+0xf4>)
 800280e:	4b08      	ldr	r3, [pc, #32]	; (8002830 <fmc_sector_info_get+0xf8>)
 8002810:	f44f 3180 	mov.w	r1, #65536	; 0x10000
 8002814:	2420      	movs	r4, #32
 8002816:	2504      	movs	r5, #4
 8002818:	e7ad      	b.n	8002776 <fmc_sector_info_get+0x3e>
 800281a:	4a06      	ldr	r2, [pc, #24]	; (8002834 <fmc_sector_info_get+0xfc>)
 800281c:	4b06      	ldr	r3, [pc, #24]	; (8002838 <fmc_sector_info_get+0x100>)
 800281e:	f44f 3180 	mov.w	r1, #65536	; 0x10000
 8002822:	24a0      	movs	r4, #160	; 0xa0
 8002824:	2510      	movs	r5, #16
 8002826:	e7a6      	b.n	8002776 <fmc_sector_info_get+0x3e>
 8002828:	1fff7a00 	svcne	0x00ff7a00
 800282c:	0801ffff 	stmdaeq	r1, {r0, r1, r2, r3, r4, r5, r6, r7, r8, r9, sl, fp, ip, sp, lr, pc}
 8002830:	08010000 	stmdaeq	r1, {}	; <UNPREDICTABLE>
 8002834:	0811ffff 	ldmdaeq	r1, {r0, r1, r2, r3, r4, r5, r6, r7, r8, r9, sl, fp, ip, sp, lr, pc}
 8002838:	08110000 	ldmdaeq	r1, {}	; <UNPREDICTABLE>

0800283c <net_timers_run>:
 800283c:	4b05      	ldr	r3, [pc, #20]	; (8002854 <net_timers_run+0x18>)
 800283e:	4a06      	ldr	r2, [pc, #24]	; (8002858 <net_timers_run+0x1c>)
 8002840:	681b      	ldr	r3, [r3, #0]
 8002842:	6811      	ldr	r1, [r2, #0]
 8002844:	4299      	cmp	r1, r3
 8002846:	d803      	bhi.n	8002850 <net_timers_run+0x14>
 8002848:	3364      	adds	r3, #100	; 0x64
 800284a:	6013      	str	r3, [r2, #0]
 800284c:	f001 b920 	b.w	8003a90 <igmp_timer>
 8002850:	4770      	bx	lr
 8002852:	bf00      	nop
 8002854:	200031dc 	ldrdcs	r3, [r0], -ip
 8002858:	2000116c 	andcs	r1, r0, ip, ror #2

0800285c <rfc3927>:
 800285c:	e92d 4ff8 	stmdb	sp!, {r3, r4, r5, r6, r7, r8, r9, sl, fp, lr}
 8002860:	4b19      	ldr	r3, [pc, #100]	; (80028c8 <rfc3927+0x6c>)
 8002862:	4f1a      	ldr	r7, [pc, #104]	; (80028cc <rfc3927+0x70>)
 8002864:	791a      	ldrb	r2, [r3, #4]
 8002866:	78dc      	ldrb	r4, [r3, #3]
 8002868:	f8df 8064 	ldr.w	r8, [pc, #100]	; 80028d0 <rfc3927+0x74>
 800286c:	f8d7 9000 	ldr.w	r9, [r7]
 8002870:	f8df b060 	ldr.w	fp, [pc, #96]	; 80028d4 <rfc3927+0x78>
 8002874:	f8df a060 	ldr.w	sl, [pc, #96]	; 80028d8 <rfc3927+0x7c>
 8002878:	eb04 2402 	add.w	r4, r4, r2, lsl #8
 800287c:	4606      	mov	r6, r0
 800287e:	ea48 4404 	orr.w	r4, r8, r4, lsl #16
 8002882:	25ff      	movs	r5, #255	; 0xff
 8002884:	4659      	mov	r1, fp
 8002886:	4620      	mov	r0, r4
 8002888:	f000 fe62 	bl	8003550 <arp_cache_lookup>
 800288c:	b190      	cbz	r0, 80028b4 <rfc3927+0x58>
 800288e:	ba24      	rev	r4, r4
 8002890:	3401      	adds	r4, #1
 8002892:	3d01      	subs	r5, #1
 8002894:	ba24      	rev	r4, r4
 8002896:	b2ad      	uxth	r5, r5
 8002898:	4554      	cmp	r4, sl
 800289a:	bf08      	it	eq
 800289c:	4644      	moveq	r4, r8
 800289e:	b18d      	cbz	r5, 80028c4 <rfc3927+0x68>
 80028a0:	683b      	ldr	r3, [r7, #0]
 80028a2:	eba3 0309 	sub.w	r3, r3, r9
 80028a6:	f5b3 7ffa 	cmp.w	r3, #500	; 0x1f4
 80028aa:	d3eb      	bcc.n	8002884 <rfc3927+0x28>
 80028ac:	2400      	movs	r4, #0
 80028ae:	4623      	mov	r3, r4
 80028b0:	4620      	mov	r0, r4
 80028b2:	e002      	b.n	80028ba <rfc3927+0x5e>
 80028b4:	f64f 73ff 	movw	r3, #65535	; 0xffff
 80028b8:	2001      	movs	r0, #1
 80028ba:	e9c6 3401 	strd	r3, r4, [r6, #4]
 80028be:	6034      	str	r4, [r6, #0]
 80028c0:	e8bd 8ff8 	ldmia.w	sp!, {r3, r4, r5, r6, r7, r8, r9, sl, fp, pc}
 80028c4:	462c      	mov	r4, r5
 80028c6:	e7f2      	b.n	80028ae <rfc3927+0x52>
 80028c8:	20001170 	andcs	r1, r0, r0, ror r1
 80028cc:	200031dc 	ldrdcs	r3, [r0], -ip
 80028d0:	0100fea9 	smlatbeq	r0, r9, lr, pc	; <UNPREDICTABLE>
 80028d4:	20001178 	andcs	r1, r0, r8, ror r1
 80028d8:	fffefea9 			; <UNDEFINED> instruction: 0xfffefea9

080028dc <memcpy.isra.0>:
 80028dc:	3801      	subs	r0, #1
 80028de:	440a      	add	r2, r1
 80028e0:	4291      	cmp	r1, r2
 80028e2:	d100      	bne.n	80028e6 <memcpy.isra.0+0xa>
 80028e4:	4770      	bx	lr
 80028e6:	f811 3b01 	ldrb.w	r3, [r1], #1
 80028ea:	f800 3f01 	strb.w	r3, [r0, #1]!
 80028ee:	e7f7      	b.n	80028e0 <memcpy.isra.0+0x4>

080028f0 <memcpy.isra.0>:
 80028f0:	3801      	subs	r0, #1
 80028f2:	440a      	add	r2, r1
 80028f4:	4291      	cmp	r1, r2
 80028f6:	d100      	bne.n	80028fa <memcpy.isra.0+0xa>
 80028f8:	4770      	bx	lr
 80028fa:	f811 3b01 	ldrb.w	r3, [r1], #1
 80028fe:	f800 3f01 	strb.w	r3, [r0, #1]!
 8002902:	e7f7      	b.n	80028f4 <memcpy.isra.0+0x4>

08002904 <net_memcpy>:
 8002904:	ea40 0301 	orr.w	r3, r0, r1
 8002908:	079b      	lsls	r3, r3, #30
 800290a:	b570      	push	{r4, r5, r6, lr}
 800290c:	d108      	bne.n	8002920 <net_memcpy+0x1c>
 800290e:	f022 0303 	bic.w	r3, r2, #3
 8002912:	1f04      	subs	r4, r0, #4
 8002914:	18cd      	adds	r5, r1, r3
 8002916:	42a9      	cmp	r1, r5
 8002918:	d108      	bne.n	800292c <net_memcpy+0x28>
 800291a:	1ad2      	subs	r2, r2, r3
 800291c:	4403      	add	r3, r0
 800291e:	e000      	b.n	8002922 <net_memcpy+0x1e>
 8002920:	4603      	mov	r3, r0
 8002922:	3b01      	subs	r3, #1
 8002924:	440a      	add	r2, r1
 8002926:	4291      	cmp	r1, r2
 8002928:	d105      	bne.n	8002936 <net_memcpy+0x32>
 800292a:	bd70      	pop	{r4, r5, r6, pc}
 800292c:	f851 6b04 	ldr.w	r6, [r1], #4
 8002930:	f844 6f04 	str.w	r6, [r4, #4]!
 8002934:	e7ef      	b.n	8002916 <net_memcpy+0x12>
 8002936:	f811 4b01 	ldrb.w	r4, [r1], #1
 800293a:	f803 4f01 	strb.w	r4, [r3, #1]!
 800293e:	e7f2      	b.n	8002926 <net_memcpy+0x22>

08002940 <udp_set_ip>:
 8002940:	b513      	push	{r0, r1, r4, lr}
 8002942:	2204      	movs	r2, #4
 8002944:	4604      	mov	r4, r0
 8002946:	6803      	ldr	r3, [r0, #0]
 8002948:	4809      	ldr	r0, [pc, #36]	; (8002970 <udp_set_ip+0x30>)
 800294a:	9301      	str	r3, [sp, #4]
 800294c:	eb0d 0102 	add.w	r1, sp, r2
 8002950:	f7ff ffce 	bl	80028f0 <memcpy.isra.0>
 8002954:	6862      	ldr	r2, [r4, #4]
 8002956:	4b07      	ldr	r3, [pc, #28]	; (8002974 <udp_set_ip+0x34>)
 8002958:	43d1      	mvns	r1, r2
 800295a:	6019      	str	r1, [r3, #0]
 800295c:	6823      	ldr	r3, [r4, #0]
 800295e:	4013      	ands	r3, r2
 8002960:	4a05      	ldr	r2, [pc, #20]	; (8002978 <udp_set_ip+0x38>)
 8002962:	6013      	str	r3, [r2, #0]
 8002964:	68a2      	ldr	r2, [r4, #8]
 8002966:	4b05      	ldr	r3, [pc, #20]	; (800297c <udp_set_ip+0x3c>)
 8002968:	601a      	str	r2, [r3, #0]
 800296a:	b002      	add	sp, #8
 800296c:	bd10      	pop	{r4, pc}
 800296e:	bf00      	nop
 8002970:	200028da 	ldrdcs	r2, [r0], -sl
 8002974:	20001180 	andcs	r1, r0, r0, lsl #3
 8002978:	20001188 	andcs	r1, r0, r8, lsl #3
 800297c:	20001184 	andcs	r1, r0, r4, lsl #3

08002980 <udp_bind>:
 8002980:	4a0c      	ldr	r2, [pc, #48]	; (80029b4 <udp_bind+0x34>)
 8002982:	b508      	push	{r3, lr}
 8002984:	6813      	ldr	r3, [r2, #0]
 8002986:	4283      	cmp	r3, r0
 8002988:	d00f      	beq.n	80029aa <udp_bind+0x2a>
 800298a:	b15b      	cbz	r3, 80029a4 <udp_bind+0x24>
 800298c:	6853      	ldr	r3, [r2, #4]
 800298e:	4298      	cmp	r0, r3
 8002990:	d00d      	beq.n	80029ae <udp_bind+0x2e>
 8002992:	b133      	cbz	r3, 80029a2 <udp_bind+0x22>
 8002994:	4808      	ldr	r0, [pc, #32]	; (80029b8 <udp_bind+0x38>)
 8002996:	f001 f923 	bl	8003be0 <console_error>
 800299a:	f04f 33ff 	mov.w	r3, #4294967295	; 0xffffffff
 800299e:	4618      	mov	r0, r3
 80029a0:	bd08      	pop	{r3, pc}
 80029a2:	2301      	movs	r3, #1
 80029a4:	f842 0023 	str.w	r0, [r2, r3, lsl #2]
 80029a8:	e7f9      	b.n	800299e <udp_bind+0x1e>
 80029aa:	2300      	movs	r3, #0
 80029ac:	e7f7      	b.n	800299e <udp_bind+0x1e>
 80029ae:	2301      	movs	r3, #1
 80029b0:	e7f5      	b.n	800299e <udp_bind+0x1e>
 80029b2:	bf00      	nop
 80029b4:	20001190 	mulcs	r0, r0, r1
 80029b8:	080069b8 	stmdaeq	r0, {r3, r4, r5, r7, r8, fp, sp, lr}

080029bc <udp_unbind>:
 80029bc:	4a0c      	ldr	r2, [pc, #48]	; (80029f0 <udp_unbind+0x34>)
 80029be:	b508      	push	{r3, lr}
 80029c0:	6813      	ldr	r3, [r2, #0]
 80029c2:	4283      	cmp	r3, r0
 80029c4:	d008      	beq.n	80029d8 <udp_unbind+0x1c>
 80029c6:	6853      	ldr	r3, [r2, #4]
 80029c8:	4298      	cmp	r0, r3
 80029ca:	d00f      	beq.n	80029ec <udp_unbind+0x30>
 80029cc:	4809      	ldr	r0, [pc, #36]	; (80029f4 <udp_unbind+0x38>)
 80029ce:	f001 f907 	bl	8003be0 <console_error>
 80029d2:	f04f 30ff 	mov.w	r0, #4294967295	; 0xffffffff
 80029d6:	bd08      	pop	{r3, pc}
 80029d8:	2300      	movs	r3, #0
 80029da:	2000      	movs	r0, #0
 80029dc:	f842 0023 	str.w	r0, [r2, r3, lsl #2]
 80029e0:	f640 3294 	movw	r2, #2964	; 0xb94
 80029e4:	4353      	muls	r3, r2
 80029e6:	4a04      	ldr	r2, [pc, #16]	; (80029f8 <udp_unbind+0x3c>)
 80029e8:	50d0      	str	r0, [r2, r3]
 80029ea:	e7f4      	b.n	80029d6 <udp_unbind+0x1a>
 80029ec:	2301      	movs	r3, #1
 80029ee:	e7f4      	b.n	80029da <udp_unbind+0x1e>
 80029f0:	20001190 	mulcs	r0, r0, r1
 80029f4:	080069bd 	stmdaeq	r0, {r0, r2, r3, r4, r5, r7, r8, fp, sp, lr}
 80029f8:	20001198 	mulcs	r0, r8, r1

080029fc <udp_recv>:
 80029fc:	e92d 41f0 	stmdb	sp!, {r4, r5, r6, r7, r8, lr}
 8002a00:	4604      	mov	r4, r0
 8002a02:	4698      	mov	r8, r3
 8002a04:	4608      	mov	r0, r1
 8002a06:	f640 3394 	movw	r3, #2964	; 0xb94
 8002a0a:	4916      	ldr	r1, [pc, #88]	; (8002a64 <udp_recv+0x68>)
 8002a0c:	435c      	muls	r4, r3
 8002a0e:	190f      	adds	r7, r1, r4
 8002a10:	5b0b      	ldrh	r3, [r1, r4]
 8002a12:	f8b7 c002 	ldrh.w	ip, [r7, #2]
 8002a16:	4563      	cmp	r3, ip
 8002a18:	d021      	beq.n	8002a5e <udp_recv+0x62>
 8002a1a:	f44f 63b9 	mov.w	r3, #1480	; 0x5c8
 8002a1e:	fb03 fc0c 	mul.w	ip, r3, ip
 8002a22:	eb0c 0604 	add.w	r6, ip, r4
 8002a26:	440e      	add	r6, r1
 8002a28:	3404      	adds	r4, #4
 8002a2a:	f8b6 55ca 	ldrh.w	r5, [r6, #1482]	; 0x5ca
 8002a2e:	4295      	cmp	r5, r2
 8002a30:	bf28      	it	cs
 8002a32:	4615      	movcs	r5, r2
 8002a34:	4464      	add	r4, ip
 8002a36:	462a      	mov	r2, r5
 8002a38:	4421      	add	r1, r4
 8002a3a:	f7ff ff63 	bl	8002904 <net_memcpy>
 8002a3e:	f8d6 35c4 	ldr.w	r3, [r6, #1476]	; 0x5c4
 8002a42:	f8c8 3000 	str.w	r3, [r8]
 8002a46:	9b06      	ldr	r3, [sp, #24]
 8002a48:	f8b6 25c8 	ldrh.w	r2, [r6, #1480]	; 0x5c8
 8002a4c:	801a      	strh	r2, [r3, #0]
 8002a4e:	887b      	ldrh	r3, [r7, #2]
 8002a50:	3301      	adds	r3, #1
 8002a52:	f003 0301 	and.w	r3, r3, #1
 8002a56:	807b      	strh	r3, [r7, #2]
 8002a58:	4628      	mov	r0, r5
 8002a5a:	e8bd 81f0 	ldmia.w	sp!, {r4, r5, r6, r7, r8, pc}
 8002a5e:	2500      	movs	r5, #0
 8002a60:	e7fa      	b.n	8002a58 <udp_recv+0x5c>
 8002a62:	bf00      	nop
 8002a64:	20001198 	mulcs	r0, r8, r1

08002a68 <udp_recv2>:
 8002a68:	b5f0      	push	{r4, r5, r6, r7, lr}
 8002a6a:	4c11      	ldr	r4, [pc, #68]	; (8002ab0 <udp_recv2+0x48>)
 8002a6c:	f640 3594 	movw	r5, #2964	; 0xb94
 8002a70:	4368      	muls	r0, r5
 8002a72:	1827      	adds	r7, r4, r0
 8002a74:	5a26      	ldrh	r6, [r4, r0]
 8002a76:	887d      	ldrh	r5, [r7, #2]
 8002a78:	42ae      	cmp	r6, r5
 8002a7a:	d017      	beq.n	8002aac <udp_recv2+0x44>
 8002a7c:	f44f 6cb9 	mov.w	ip, #1480	; 0x5c8
 8002a80:	1d06      	adds	r6, r0, #4
 8002a82:	fb0c f505 	mul.w	r5, ip, r5
 8002a86:	442e      	add	r6, r5
 8002a88:	4405      	add	r5, r0
 8002a8a:	4426      	add	r6, r4
 8002a8c:	442c      	add	r4, r5
 8002a8e:	600e      	str	r6, [r1, #0]
 8002a90:	f8d4 15c4 	ldr.w	r1, [r4, #1476]	; 0x5c4
 8002a94:	6011      	str	r1, [r2, #0]
 8002a96:	f8b4 25c8 	ldrh.w	r2, [r4, #1480]	; 0x5c8
 8002a9a:	801a      	strh	r2, [r3, #0]
 8002a9c:	887b      	ldrh	r3, [r7, #2]
 8002a9e:	f8b4 05ca 	ldrh.w	r0, [r4, #1482]	; 0x5ca
 8002aa2:	3301      	adds	r3, #1
 8002aa4:	f003 0301 	and.w	r3, r3, #1
 8002aa8:	807b      	strh	r3, [r7, #2]
 8002aaa:	bdf0      	pop	{r4, r5, r6, r7, pc}
 8002aac:	2000      	movs	r0, #0
 8002aae:	e7fc      	b.n	8002aaa <udp_recv2+0x42>
 8002ab0:	20001198 	mulcs	r0, r8, r1

08002ab4 <udp_send>:
 8002ab4:	e92d 47f3 	stmdb	sp!, {r0, r1, r4, r5, r6, r7, r8, r9, sl, lr}
 8002ab8:	f8df 9150 	ldr.w	r9, [pc, #336]	; 8002c0c <udp_send+0x158>
 8002abc:	461c      	mov	r4, r3
 8002abe:	f859 3020 	ldr.w	r3, [r9, r0, lsl #2]
 8002ac2:	4607      	mov	r7, r0
 8002ac4:	4688      	mov	r8, r1
 8002ac6:	4616      	mov	r6, r2
 8002ac8:	2b00      	cmp	r3, #0
 8002aca:	f000 808b 	beq.w	8002be4 <udp_send+0x130>
 8002ace:	1c63      	adds	r3, r4, #1
 8002ad0:	d141      	bne.n	8002b56 <udp_send+0xa2>
 8002ad2:	4a46      	ldr	r2, [pc, #280]	; (8002bec <udp_send+0x138>)
 8002ad4:	2307      	movs	r3, #7
 8002ad6:	4611      	mov	r1, r2
 8002ad8:	20ff      	movs	r0, #255	; 0xff
 8002ada:	e001      	b.n	8002ae0 <udp_send+0x2c>
 8002adc:	f802 0b01 	strb.w	r0, [r2], #1
 8002ae0:	3b01      	subs	r3, #1
 8002ae2:	d1fb      	bne.n	8002adc <udp_send+0x28>
 8002ae4:	f64f 73ff 	movw	r3, #65535	; 0xffff
 8002ae8:	83cb      	strh	r3, [r1, #30]
 8002aea:	840b      	strh	r3, [r1, #32]
 8002aec:	f8df a120 	ldr.w	sl, [pc, #288]	; 8002c10 <udp_send+0x15c>
 8002af0:	4c3e      	ldr	r4, [pc, #248]	; (8002bec <udp_send+0x138>)
 8002af2:	f8ba 3000 	ldrh.w	r3, [sl]
 8002af6:	8263      	strh	r3, [r4, #18]
 8002af8:	f106 031c 	add.w	r3, r6, #28
 8002afc:	ba5b      	rev16	r3, r3
 8002afe:	2500      	movs	r5, #0
 8002b00:	2114      	movs	r1, #20
 8002b02:	f104 000e 	add.w	r0, r4, #14
 8002b06:	8223      	strh	r3, [r4, #16]
 8002b08:	8325      	strh	r5, [r4, #24]
 8002b0a:	f001 f81e 	bl	8003b4a <net_chksum>
 8002b0e:	f859 3027 	ldr.w	r3, [r9, r7, lsl #2]
 8002b12:	8320      	strh	r0, [r4, #24]
 8002b14:	ba5b      	rev16	r3, r3
 8002b16:	8463      	strh	r3, [r4, #34]	; 0x22
 8002b18:	f8bd 3028 	ldrh.w	r3, [sp, #40]	; 0x28
 8002b1c:	ba5b      	rev16	r3, r3
 8002b1e:	f5b6 6fb8 	cmp.w	r6, #1472	; 0x5c0
 8002b22:	84a3      	strh	r3, [r4, #36]	; 0x24
 8002b24:	f106 0308 	add.w	r3, r6, #8
 8002b28:	ba5b      	rev16	r3, r3
 8002b2a:	4632      	mov	r2, r6
 8002b2c:	4641      	mov	r1, r8
 8002b2e:	bf28      	it	cs
 8002b30:	f44f 62b8 	movcs.w	r2, #1472	; 0x5c0
 8002b34:	f104 002a 	add.w	r0, r4, #42	; 0x2a
 8002b38:	84e3      	strh	r3, [r4, #38]	; 0x26
 8002b3a:	f7ff fee3 	bl	8002904 <net_memcpy>
 8002b3e:	4620      	mov	r0, r4
 8002b40:	f106 012a 	add.w	r1, r6, #42	; 0x2a
 8002b44:	f002 f828 	bl	8004b98 <emac_eth_send>
 8002b48:	f8ba 3000 	ldrh.w	r3, [sl]
 8002b4c:	3301      	adds	r3, #1
 8002b4e:	f8aa 3000 	strh.w	r3, [sl]
 8002b52:	4628      	mov	r0, r5
 8002b54:	e037      	b.n	8002bc6 <udp_send+0x112>
 8002b56:	4b26      	ldr	r3, [pc, #152]	; (8002bf0 <udp_send+0x13c>)
 8002b58:	681b      	ldr	r3, [r3, #0]
 8002b5a:	43a3      	bics	r3, r4
 8002b5c:	d10f      	bne.n	8002b7e <udp_send+0xca>
 8002b5e:	4a23      	ldr	r2, [pc, #140]	; (8002bec <udp_send+0x138>)
 8002b60:	2307      	movs	r3, #7
 8002b62:	21ff      	movs	r1, #255	; 0xff
 8002b64:	e001      	b.n	8002b6a <udp_send+0xb6>
 8002b66:	f802 1b01 	strb.w	r1, [r2], #1
 8002b6a:	3b01      	subs	r3, #1
 8002b6c:	d1fb      	bne.n	8002b66 <udp_send+0xb2>
 8002b6e:	2204      	movs	r2, #4
 8002b70:	4820      	ldr	r0, [pc, #128]	; (8002bf4 <udp_send+0x140>)
 8002b72:	9401      	str	r4, [sp, #4]
 8002b74:	eb0d 0102 	add.w	r1, sp, r2
 8002b78:	f7ff feba 	bl	80028f0 <memcpy.isra.0>
 8002b7c:	e7b6      	b.n	8002aec <udp_send+0x38>
 8002b7e:	f004 03e0 	and.w	r3, r4, #224	; 0xe0
 8002b82:	2be0      	cmp	r3, #224	; 0xe0
 8002b84:	d10e      	bne.n	8002ba4 <udp_send+0xf0>
 8002b86:	491c      	ldr	r1, [pc, #112]	; (8002bf8 <udp_send+0x144>)
 8002b88:	4818      	ldr	r0, [pc, #96]	; (8002bec <udp_send+0x138>)
 8002b8a:	f3c4 2206 	ubfx	r2, r4, #8, #7
 8002b8e:	70ca      	strb	r2, [r1, #3]
 8002b90:	f3c4 4207 	ubfx	r2, r4, #16, #8
 8002b94:	710a      	strb	r2, [r1, #4]
 8002b96:	f3c4 6207 	ubfx	r2, r4, #24, #8
 8002b9a:	714a      	strb	r2, [r1, #5]
 8002b9c:	2206      	movs	r2, #6
 8002b9e:	f7ff fea7 	bl	80028f0 <memcpy.isra.0>
 8002ba2:	e7e4      	b.n	8002b6e <udp_send+0xba>
 8002ba4:	4b15      	ldr	r3, [pc, #84]	; (8002bfc <udp_send+0x148>)
 8002ba6:	681b      	ldr	r3, [r3, #0]
 8002ba8:	43a3      	bics	r3, r4
 8002baa:	d00f      	beq.n	8002bcc <udp_send+0x118>
 8002bac:	4d14      	ldr	r5, [pc, #80]	; (8002c00 <udp_send+0x14c>)
 8002bae:	490f      	ldr	r1, [pc, #60]	; (8002bec <udp_send+0x138>)
 8002bb0:	6828      	ldr	r0, [r5, #0]
 8002bb2:	f000 fccd 	bl	8003550 <arp_cache_lookup>
 8002bb6:	682b      	ldr	r3, [r5, #0]
 8002bb8:	4298      	cmp	r0, r3
 8002bba:	d0d8      	beq.n	8002b6e <udp_send+0xba>
 8002bbc:	4811      	ldr	r0, [pc, #68]	; (8002c04 <udp_send+0x150>)
 8002bbe:	f001 f80f 	bl	8003be0 <console_error>
 8002bc2:	f06f 0002 	mvn.w	r0, #2
 8002bc6:	b002      	add	sp, #8
 8002bc8:	e8bd 87f0 	ldmia.w	sp!, {r4, r5, r6, r7, r8, r9, sl, pc}
 8002bcc:	4907      	ldr	r1, [pc, #28]	; (8002bec <udp_send+0x138>)
 8002bce:	4620      	mov	r0, r4
 8002bd0:	f000 fcbe 	bl	8003550 <arp_cache_lookup>
 8002bd4:	42a0      	cmp	r0, r4
 8002bd6:	d0ca      	beq.n	8002b6e <udp_send+0xba>
 8002bd8:	480b      	ldr	r0, [pc, #44]	; (8002c08 <udp_send+0x154>)
 8002bda:	f001 f801 	bl	8003be0 <console_error>
 8002bde:	f06f 0001 	mvn.w	r0, #1
 8002be2:	e7f0      	b.n	8002bc6 <udp_send+0x112>
 8002be4:	f04f 30ff 	mov.w	r0, #4294967295	; 0xffffffff
 8002be8:	e7ed      	b.n	8002bc6 <udp_send+0x112>
 8002bea:	bf00      	nop
 8002bec:	200028c0 	andcs	r2, r0, r0, asr #17
 8002bf0:	20001180 	andcs	r1, r0, r0, lsl #3
 8002bf4:	200028de 	ldrdcs	r2, [r0], -lr
 8002bf8:	20000000 	andcs	r0, r0, r0
 8002bfc:	20001188 	andcs	r1, r0, r8, lsl #3
 8002c00:	20001184 	andcs	r1, r0, r4, lsl #3
 8002c04:	080069c5 	stmdaeq	r0, {r0, r2, r6, r7, r8, fp, sp, lr}
 8002c08:	080069eb 	stmdaeq	r0, {r0, r1, r3, r5, r6, r7, r8, fp, sp, lr}
 8002c0c:	20001190 	mulcs	r0, r0, r1
 8002c10:	2000118c 	andcs	r1, r0, ip, lsl #3

08002c14 <TFTPDaemon::TFTPDaemon()>:
 8002c14:	b538      	push	{r3, r4, r5, lr}
 8002c16:	4b14      	ldr	r3, [pc, #80]	; (8002c68 <TFTPDaemon::TFTPDaemon()+0x54>)
 8002c18:	4d14      	ldr	r5, [pc, #80]	; (8002c6c <TFTPDaemon::TFTPDaemon()+0x58>)
 8002c1a:	6003      	str	r3, [r0, #0]
 8002c1c:	f04f 32ff 	mov.w	r2, #4294967295	; 0xffffffff
 8002c20:	2300      	movs	r3, #0
 8002c22:	e9c0 3201 	strd	r3, r2, [r0, #4]
 8002c26:	4604      	mov	r4, r0
 8002c28:	f8c0 321c 	str.w	r3, [r0, #540]	; 0x21c
 8002c2c:	f8a0 3220 	strh.w	r3, [r0, #544]	; 0x220
 8002c30:	f8c0 3224 	str.w	r3, [r0, #548]	; 0x224
 8002c34:	f8a0 3228 	strh.w	r3, [r0, #552]	; 0x228
 8002c38:	f8c0 322c 	str.w	r3, [r0, #556]	; 0x22c
 8002c3c:	f8a0 3230 	strh.w	r3, [r0, #560]	; 0x230
 8002c40:	f880 3232 	strb.w	r3, [r0, #562]	; 0x232
 8002c44:	6828      	ldr	r0, [r5, #0]
 8002c46:	b110      	cbz	r0, 8002c4e <TFTPDaemon::TFTPDaemon()+0x3a>
 8002c48:	6803      	ldr	r3, [r0, #0]
 8002c4a:	69db      	ldr	r3, [r3, #28]
 8002c4c:	4798      	blx	r3
 8002c4e:	602c      	str	r4, [r5, #0]
 8002c50:	f104 030c 	add.w	r3, r4, #12
 8002c54:	f504 7207 	add.w	r2, r4, #540	; 0x21c
 8002c58:	2100      	movs	r1, #0
 8002c5a:	429a      	cmp	r2, r3
 8002c5c:	d101      	bne.n	8002c62 <TFTPDaemon::TFTPDaemon()+0x4e>
 8002c5e:	4620      	mov	r0, r4
 8002c60:	bd38      	pop	{r3, r4, r5, pc}
 8002c62:	f803 1b01 	strb.w	r1, [r3], #1
 8002c66:	e7f8      	b.n	8002c5a <TFTPDaemon::TFTPDaemon()+0x46>
 8002c68:	08006a68 	stmdaeq	r0, {r3, r5, r6, r9, fp, sp, lr}
 8002c6c:	20002eac 	andcs	r2, r0, ip, lsr #29

08002c70 <TFTPDaemon::~TFTPDaemon()>:
 8002c70:	4b06      	ldr	r3, [pc, #24]	; (8002c8c <TFTPDaemon::~TFTPDaemon()+0x1c>)
 8002c72:	b510      	push	{r4, lr}
 8002c74:	6003      	str	r3, [r0, #0]
 8002c76:	4b06      	ldr	r3, [pc, #24]	; (8002c90 <TFTPDaemon::~TFTPDaemon()+0x20>)
 8002c78:	4604      	mov	r4, r0
 8002c7a:	2145      	movs	r1, #69	; 0x45
 8002c7c:	6818      	ldr	r0, [r3, #0]
 8002c7e:	f000 f9f4 	bl	800306a <Network::End(unsigned short)>
 8002c82:	4b04      	ldr	r3, [pc, #16]	; (8002c94 <TFTPDaemon::~TFTPDaemon()+0x24>)
 8002c84:	2200      	movs	r2, #0
 8002c86:	601a      	str	r2, [r3, #0]
 8002c88:	4620      	mov	r0, r4
 8002c8a:	bd10      	pop	{r4, pc}
 8002c8c:	08006a68 	stmdaeq	r0, {r3, r5, r6, r9, fp, sp, lr}
 8002c90:	20002eb0 			; <UNDEFINED> instruction: 0x20002eb0
 8002c94:	20002eac 	andcs	r2, r0, ip, lsr #29

08002c98 <TFTPDaemon::SendError(unsigned short, char const*)>:
 8002c98:	b510      	push	{r4, lr}
 8002c9a:	b0a4      	sub	sp, #144	; 0x90
 8002c9c:	f44f 63a0 	mov.w	r3, #1280	; 0x500
 8002ca0:	ba49      	rev16	r1, r1
 8002ca2:	f8ad 300c 	strh.w	r3, [sp, #12]
 8002ca6:	f8ad 100e 	strh.w	r1, [sp, #14]
 8002caa:	3a01      	subs	r2, #1
 8002cac:	237f      	movs	r3, #127	; 0x7f
 8002cae:	a904      	add	r1, sp, #16
 8002cb0:	f812 4f01 	ldrb.w	r4, [r2, #1]!
 8002cb4:	b92c      	cbnz	r4, 8002cc2 <TFTPDaemon::SendError(unsigned short, char const*)+0x2a>
 8002cb6:	440b      	add	r3, r1
 8002cb8:	4299      	cmp	r1, r3
 8002cba:	d006      	beq.n	8002cca <TFTPDaemon::SendError(unsigned short, char const*)+0x32>
 8002cbc:	f801 4b01 	strb.w	r4, [r1], #1
 8002cc0:	e7fa      	b.n	8002cb8 <TFTPDaemon::SendError(unsigned short, char const*)+0x20>
 8002cc2:	3b01      	subs	r3, #1
 8002cc4:	f801 4b01 	strb.w	r4, [r1], #1
 8002cc8:	d1f2      	bne.n	8002cb0 <TFTPDaemon::SendError(unsigned short, char const*)+0x18>
 8002cca:	f8b0 3220 	ldrh.w	r3, [r0, #544]	; 0x220
 8002cce:	9300      	str	r3, [sp, #0]
 8002cd0:	f8d0 321c 	ldr.w	r3, [r0, #540]	; 0x21c
 8002cd4:	7a00      	ldrb	r0, [r0, #8]
 8002cd6:	2284      	movs	r2, #132	; 0x84
 8002cd8:	a903      	add	r1, sp, #12
 8002cda:	f7ff feeb 	bl	8002ab4 <udp_send>
 8002cde:	b024      	add	sp, #144	; 0x90
 8002ce0:	bd10      	pop	{r4, pc}

08002ce2 <TFTPDaemon::DoRead()>:
 8002ce2:	6843      	ldr	r3, [r0, #4]
 8002ce4:	2b02      	cmp	r3, #2
 8002ce6:	b573      	push	{r0, r1, r4, r5, r6, lr}
 8002ce8:	4604      	mov	r4, r0
 8002cea:	f100 050c 	add.w	r5, r0, #12
 8002cee:	d128      	bne.n	8002d42 <TFTPDaemon::DoRead()+0x60>
 8002cf0:	6803      	ldr	r3, [r0, #0]
 8002cf2:	695e      	ldr	r6, [r3, #20]
 8002cf4:	f8b0 3228 	ldrh.w	r3, [r0, #552]	; 0x228
 8002cf8:	3301      	adds	r3, #1
 8002cfa:	b29b      	uxth	r3, r3
 8002cfc:	f8a0 3228 	strh.w	r3, [r0, #552]	; 0x228
 8002d00:	f44f 7200 	mov.w	r2, #512	; 0x200
 8002d04:	f100 0110 	add.w	r1, r0, #16
 8002d08:	47b0      	blx	r6
 8002d0a:	2300      	movs	r3, #0
 8002d0c:	7323      	strb	r3, [r4, #12]
 8002d0e:	2303      	movs	r3, #3
 8002d10:	7363      	strb	r3, [r4, #13]
 8002d12:	f8b4 3228 	ldrh.w	r3, [r4, #552]	; 0x228
 8002d16:	f8c4 022c 	str.w	r0, [r4, #556]	; 0x22c
 8002d1a:	ba5b      	rev16	r3, r3
 8002d1c:	f5b0 7f00 	cmp.w	r0, #512	; 0x200
 8002d20:	81e3      	strh	r3, [r4, #14]
 8002d22:	f100 0304 	add.w	r3, r0, #4
 8002d26:	f8a4 3230 	strh.w	r3, [r4, #560]	; 0x230
 8002d2a:	bf2c      	ite	cs
 8002d2c:	2300      	movcs	r3, #0
 8002d2e:	2301      	movcc	r3, #1
 8002d30:	f5b0 7f00 	cmp.w	r0, #512	; 0x200
 8002d34:	f884 3232 	strb.w	r3, [r4, #562]	; 0x232
 8002d38:	d203      	bcs.n	8002d42 <TFTPDaemon::DoRead()+0x60>
 8002d3a:	6823      	ldr	r3, [r4, #0]
 8002d3c:	4620      	mov	r0, r4
 8002d3e:	691b      	ldr	r3, [r3, #16]
 8002d40:	4798      	blx	r3
 8002d42:	f8b4 3220 	ldrh.w	r3, [r4, #544]	; 0x220
 8002d46:	9300      	str	r3, [sp, #0]
 8002d48:	f8b4 2230 	ldrh.w	r2, [r4, #560]	; 0x230
 8002d4c:	f8d4 321c 	ldr.w	r3, [r4, #540]	; 0x21c
 8002d50:	7a20      	ldrb	r0, [r4, #8]
 8002d52:	4629      	mov	r1, r5
 8002d54:	f7ff feae 	bl	8002ab4 <udp_send>
 8002d58:	2303      	movs	r3, #3
 8002d5a:	6063      	str	r3, [r4, #4]
 8002d5c:	b002      	add	sp, #8
 8002d5e:	bd70      	pop	{r4, r5, r6, pc}

08002d60 <TFTPDaemon::HandleRecvAck()>:
 8002d60:	8983      	ldrh	r3, [r0, #12]
 8002d62:	f5b3 6f80 	cmp.w	r3, #1024	; 0x400
 8002d66:	d10c      	bne.n	8002d82 <TFTPDaemon::HandleRecvAck()+0x22>
 8002d68:	f8b0 3228 	ldrh.w	r3, [r0, #552]	; 0x228
 8002d6c:	89c2      	ldrh	r2, [r0, #14]
 8002d6e:	ba5b      	rev16	r3, r3
 8002d70:	b29b      	uxth	r3, r3
 8002d72:	429a      	cmp	r2, r3
 8002d74:	bf01      	itttt	eq
 8002d76:	f890 3232 	ldrbeq.w	r3, [r0, #562]	; 0x232
 8002d7a:	f083 0301 	eoreq.w	r3, r3, #1
 8002d7e:	005b      	lsleq	r3, r3, #1
 8002d80:	6043      	streq	r3, [r0, #4]
 8002d82:	4770      	bx	lr

08002d84 <TFTPDaemon::DoWriteAck()>:
 8002d84:	2300      	movs	r3, #0
 8002d86:	b507      	push	{r0, r1, r2, lr}
 8002d88:	7303      	strb	r3, [r0, #12]
 8002d8a:	f8b0 3228 	ldrh.w	r3, [r0, #552]	; 0x228
 8002d8e:	ba5b      	rev16	r3, r3
 8002d90:	81c3      	strh	r3, [r0, #14]
 8002d92:	f890 3232 	ldrb.w	r3, [r0, #562]	; 0x232
 8002d96:	2b00      	cmp	r3, #0
 8002d98:	bf14      	ite	ne
 8002d9a:	2300      	movne	r3, #0
 8002d9c:	2305      	moveq	r3, #5
 8002d9e:	6043      	str	r3, [r0, #4]
 8002da0:	2204      	movs	r2, #4
 8002da2:	f8b0 3220 	ldrh.w	r3, [r0, #544]	; 0x220
 8002da6:	7342      	strb	r2, [r0, #13]
 8002da8:	9300      	str	r3, [sp, #0]
 8002daa:	f8d0 321c 	ldr.w	r3, [r0, #540]	; 0x21c
 8002dae:	f100 010c 	add.w	r1, r0, #12
 8002db2:	7a00      	ldrb	r0, [r0, #8]
 8002db4:	f7ff fe7e 	bl	8002ab4 <udp_send>
 8002db8:	b003      	add	sp, #12
 8002dba:	f85d fb04 	ldr.w	pc, [sp], #4
	...

08002dc0 <TFTPDaemon::HandleRequest()>:
 8002dc0:	b5f8      	push	{r3, r4, r5, r6, r7, lr}
 8002dc2:	8985      	ldrh	r5, [r0, #12]
 8002dc4:	ba6d      	rev16	r5, r5
 8002dc6:	b2ad      	uxth	r5, r5
 8002dc8:	1e6b      	subs	r3, r5, #1
 8002dca:	2b01      	cmp	r3, #1
 8002dcc:	4604      	mov	r4, r0
 8002dce:	d906      	bls.n	8002dde <TFTPDaemon::HandleRequest()+0x1e>
 8002dd0:	4a37      	ldr	r2, [pc, #220]	; (8002eb0 <TFTPDaemon::HandleRequest()+0xf0>)
 8002dd2:	2104      	movs	r1, #4
 8002dd4:	4620      	mov	r0, r4
 8002dd6:	e8bd 40f8 	ldmia.w	sp!, {r3, r4, r5, r6, r7, lr}
 8002dda:	f7ff bf5d 	b.w	8002c98 <TFTPDaemon::SendError(unsigned short, char const*)>
 8002dde:	f100 010e 	add.w	r1, r0, #14
 8002de2:	460a      	mov	r2, r1
 8002de4:	4613      	mov	r3, r2
 8002de6:	3201      	adds	r2, #1
 8002de8:	7818      	ldrb	r0, [r3, #0]
 8002dea:	2800      	cmp	r0, #0
 8002dec:	d1fa      	bne.n	8002de4 <TFTPDaemon::HandleRequest()+0x24>
 8002dee:	1a5b      	subs	r3, r3, r1
 8002df0:	1e5a      	subs	r2, r3, #1
 8002df2:	2a7f      	cmp	r2, #127	; 0x7f
 8002df4:	d902      	bls.n	8002dfc <TFTPDaemon::HandleRequest()+0x3c>
 8002df6:	4a2f      	ldr	r2, [pc, #188]	; (8002eb4 <TFTPDaemon::HandleRequest()+0xf4>)
 8002df8:	4601      	mov	r1, r0
 8002dfa:	e7eb      	b.n	8002dd4 <TFTPDaemon::HandleRequest()+0x14>
 8002dfc:	4423      	add	r3, r4
 8002dfe:	f103 000e 	add.w	r0, r3, #14
 8002e02:	f8df c0c4 	ldr.w	ip, [pc, #196]	; 8002ec8 <TFTPDaemon::HandleRequest()+0x108>
 8002e06:	f103 060f 	add.w	r6, r3, #15
 8002e0a:	4607      	mov	r7, r0
 8002e0c:	3313      	adds	r3, #19
 8002e0e:	f817 2f01 	ldrb.w	r2, [r7, #1]!
 8002e12:	f81c eb01 	ldrb.w	lr, [ip], #1
 8002e16:	4572      	cmp	r2, lr
 8002e18:	d00c      	beq.n	8002e34 <TFTPDaemon::HandleRequest()+0x74>
 8002e1a:	4a27      	ldr	r2, [pc, #156]	; (8002eb8 <TFTPDaemon::HandleRequest()+0xf8>)
 8002e1c:	1df3      	adds	r3, r6, #7
 8002e1e:	f810 6f01 	ldrb.w	r6, [r0, #1]!
 8002e22:	f812 7b01 	ldrb.w	r7, [r2], #1
 8002e26:	42be      	cmp	r6, r7
 8002e28:	d1d2      	bne.n	8002dd0 <TFTPDaemon::HandleRequest()+0x10>
 8002e2a:	b10e      	cbz	r6, 8002e30 <TFTPDaemon::HandleRequest()+0x70>
 8002e2c:	4283      	cmp	r3, r0
 8002e2e:	d1f6      	bne.n	8002e1e <TFTPDaemon::HandleRequest()+0x5e>
 8002e30:	2201      	movs	r2, #1
 8002e32:	e003      	b.n	8002e3c <TFTPDaemon::HandleRequest()+0x7c>
 8002e34:	b112      	cbz	r2, 8002e3c <TFTPDaemon::HandleRequest()+0x7c>
 8002e36:	429f      	cmp	r7, r3
 8002e38:	d1e9      	bne.n	8002e0e <TFTPDaemon::HandleRequest()+0x4e>
 8002e3a:	2200      	movs	r2, #0
 8002e3c:	2d02      	cmp	r5, #2
 8002e3e:	6823      	ldr	r3, [r4, #0]
 8002e40:	d01d      	beq.n	8002e7e <TFTPDaemon::HandleRequest()+0xbe>
 8002e42:	689b      	ldr	r3, [r3, #8]
 8002e44:	4620      	mov	r0, r4
 8002e46:	4798      	blx	r3
 8002e48:	b938      	cbnz	r0, 8002e5a <TFTPDaemon::HandleRequest()+0x9a>
 8002e4a:	4a1c      	ldr	r2, [pc, #112]	; (8002ebc <TFTPDaemon::HandleRequest()+0xfc>)
 8002e4c:	2101      	movs	r1, #1
 8002e4e:	4620      	mov	r0, r4
 8002e50:	f7ff ff22 	bl	8002c98 <TFTPDaemon::SendError(unsigned short, char const*)>
 8002e54:	2301      	movs	r3, #1
 8002e56:	6063      	str	r3, [r4, #4]
 8002e58:	bdf8      	pop	{r3, r4, r5, r6, r7, pc}
 8002e5a:	4d19      	ldr	r5, [pc, #100]	; (8002ec0 <TFTPDaemon::HandleRequest()+0x100>)
 8002e5c:	2145      	movs	r1, #69	; 0x45
 8002e5e:	6828      	ldr	r0, [r5, #0]
 8002e60:	f000 f903 	bl	800306a <Network::End(unsigned short)>
 8002e64:	f8b4 1220 	ldrh.w	r1, [r4, #544]	; 0x220
 8002e68:	6828      	ldr	r0, [r5, #0]
 8002e6a:	f000 f8fb 	bl	8003064 <Network::Begin(unsigned short)>
 8002e6e:	2302      	movs	r3, #2
 8002e70:	60a0      	str	r0, [r4, #8]
 8002e72:	6063      	str	r3, [r4, #4]
 8002e74:	4620      	mov	r0, r4
 8002e76:	e8bd 40f8 	ldmia.w	sp!, {r3, r4, r5, r6, r7, lr}
 8002e7a:	f7ff bf32 	b.w	8002ce2 <TFTPDaemon::DoRead()>
 8002e7e:	68db      	ldr	r3, [r3, #12]
 8002e80:	4620      	mov	r0, r4
 8002e82:	4798      	blx	r3
 8002e84:	b910      	cbnz	r0, 8002e8c <TFTPDaemon::HandleRequest()+0xcc>
 8002e86:	4a0f      	ldr	r2, [pc, #60]	; (8002ec4 <TFTPDaemon::HandleRequest()+0x104>)
 8002e88:	4629      	mov	r1, r5
 8002e8a:	e7e0      	b.n	8002e4e <TFTPDaemon::HandleRequest()+0x8e>
 8002e8c:	4d0c      	ldr	r5, [pc, #48]	; (8002ec0 <TFTPDaemon::HandleRequest()+0x100>)
 8002e8e:	2145      	movs	r1, #69	; 0x45
 8002e90:	6828      	ldr	r0, [r5, #0]
 8002e92:	f000 f8ea 	bl	800306a <Network::End(unsigned short)>
 8002e96:	f8b4 1220 	ldrh.w	r1, [r4, #544]	; 0x220
 8002e9a:	6828      	ldr	r0, [r5, #0]
 8002e9c:	f000 f8e2 	bl	8003064 <Network::Begin(unsigned short)>
 8002ea0:	2304      	movs	r3, #4
 8002ea2:	60a0      	str	r0, [r4, #8]
 8002ea4:	6063      	str	r3, [r4, #4]
 8002ea6:	4620      	mov	r0, r4
 8002ea8:	e8bd 40f8 	ldmia.w	sp!, {r3, r4, r5, r6, r7, lr}
 8002eac:	f7ff bf6a 	b.w	8002d84 <TFTPDaemon::DoWriteAck()>
 8002eb0:	080069fe 	stmdaeq	r0, {r1, r2, r3, r4, r5, r6, r7, r8, fp, sp, lr}
 8002eb4:	08006a10 	stmdaeq	r0, {r4, r9, fp, sp, lr}
 8002eb8:	08006a28 	stmdaeq	r0, {r3, r5, r9, fp, sp, lr}
 8002ebc:	08006a31 	stmdaeq	r0, {r0, r4, r5, r9, fp, sp, lr}
 8002ec0:	20002eb0 			; <UNDEFINED> instruction: 0x20002eb0
 8002ec4:	08006a40 	stmdaeq	r0, {r6, r9, fp, sp, lr}
 8002ec8:	08006a22 	stmdaeq	r0, {r1, r5, r9, fp, sp, lr}

08002ecc <TFTPDaemon::HandleRecvData()>:
 8002ecc:	b570      	push	{r4, r5, r6, lr}
 8002ece:	8983      	ldrh	r3, [r0, #12]
 8002ed0:	f5b3 7f40 	cmp.w	r3, #768	; 0x300
 8002ed4:	4604      	mov	r4, r0
 8002ed6:	d129      	bne.n	8002f2c <TFTPDaemon::HandleRecvData()+0x60>
 8002ed8:	4601      	mov	r1, r0
 8002eda:	f8d0 5224 	ldr.w	r5, [r0, #548]	; 0x224
 8002ede:	89c3      	ldrh	r3, [r0, #14]
 8002ee0:	f851 2b10 	ldr.w	r2, [r1], #16
 8002ee4:	3d04      	subs	r5, #4
 8002ee6:	ba5b      	rev16	r3, r3
 8002ee8:	6996      	ldr	r6, [r2, #24]
 8002eea:	f8a0 3228 	strh.w	r3, [r0, #552]	; 0x228
 8002eee:	f8c0 522c 	str.w	r5, [r0, #556]	; 0x22c
 8002ef2:	b29b      	uxth	r3, r3
 8002ef4:	462a      	mov	r2, r5
 8002ef6:	47b0      	blx	r6
 8002ef8:	4285      	cmp	r5, r0
 8002efa:	d110      	bne.n	8002f1e <TFTPDaemon::HandleRecvData()+0x52>
 8002efc:	f8d4 322c 	ldr.w	r3, [r4, #556]	; 0x22c
 8002f00:	f5b3 7f00 	cmp.w	r3, #512	; 0x200
 8002f04:	d206      	bcs.n	8002f14 <TFTPDaemon::HandleRecvData()+0x48>
 8002f06:	2301      	movs	r3, #1
 8002f08:	f884 3232 	strb.w	r3, [r4, #562]	; 0x232
 8002f0c:	6823      	ldr	r3, [r4, #0]
 8002f0e:	4620      	mov	r0, r4
 8002f10:	691b      	ldr	r3, [r3, #16]
 8002f12:	4798      	blx	r3
 8002f14:	4620      	mov	r0, r4
 8002f16:	e8bd 4070 	ldmia.w	sp!, {r4, r5, r6, lr}
 8002f1a:	f7ff bf33 	b.w	8002d84 <TFTPDaemon::DoWriteAck()>
 8002f1e:	4a04      	ldr	r2, [pc, #16]	; (8002f30 <TFTPDaemon::HandleRecvData()+0x64>)
 8002f20:	2103      	movs	r1, #3
 8002f22:	4620      	mov	r0, r4
 8002f24:	f7ff feb8 	bl	8002c98 <TFTPDaemon::SendError(unsigned short, char const*)>
 8002f28:	2300      	movs	r3, #0
 8002f2a:	6063      	str	r3, [r4, #4]
 8002f2c:	bd70      	pop	{r4, r5, r6, pc}
 8002f2e:	bf00      	nop
 8002f30:	08006a51 	stmdaeq	r0, {r0, r4, r6, r9, fp, sp, lr}

08002f34 <TFTPDaemon::Run()>:
 8002f34:	b5f7      	push	{r0, r1, r2, r4, r5, r6, r7, lr}
 8002f36:	6847      	ldr	r7, [r0, #4]
 8002f38:	4604      	mov	r4, r0
 8002f3a:	f100 050c 	add.w	r5, r0, #12
 8002f3e:	bb07      	cbnz	r7, 8002f82 <TFTPDaemon::Run()+0x4e>
 8002f40:	f8b0 1220 	ldrh.w	r1, [r0, #544]	; 0x220
 8002f44:	4e25      	ldr	r6, [pc, #148]	; (8002fdc <TFTPDaemon::Run()+0xa8>)
 8002f46:	b139      	cbz	r1, 8002f58 <TFTPDaemon::Run()+0x24>
 8002f48:	6830      	ldr	r0, [r6, #0]
 8002f4a:	f000 f88e 	bl	800306a <Network::End(unsigned short)>
 8002f4e:	f04f 33ff 	mov.w	r3, #4294967295	; 0xffffffff
 8002f52:	60a3      	str	r3, [r4, #8]
 8002f54:	f8a4 7220 	strh.w	r7, [r4, #544]	; 0x220
 8002f58:	6830      	ldr	r0, [r6, #0]
 8002f5a:	2145      	movs	r1, #69	; 0x45
 8002f5c:	f000 f882 	bl	8003064 <Network::Begin(unsigned short)>
 8002f60:	2300      	movs	r3, #0
 8002f62:	2201      	movs	r2, #1
 8002f64:	60a0      	str	r0, [r4, #8]
 8002f66:	f8a4 3228 	strh.w	r3, [r4, #552]	; 0x228
 8002f6a:	6062      	str	r2, [r4, #4]
 8002f6c:	f884 3232 	strb.w	r3, [r4, #562]	; 0x232
 8002f70:	34a0      	adds	r4, #160	; 0xa0
 8002f72:	42ac      	cmp	r4, r5
 8002f74:	d102      	bne.n	8002f7c <TFTPDaemon::Run()+0x48>
 8002f76:	2001      	movs	r0, #1
 8002f78:	b003      	add	sp, #12
 8002f7a:	bdf0      	pop	{r4, r5, r6, r7, pc}
 8002f7c:	f805 3b01 	strb.w	r3, [r5], #1
 8002f80:	e7f7      	b.n	8002f72 <TFTPDaemon::Run()+0x3e>
 8002f82:	f500 7308 	add.w	r3, r0, #544	; 0x220
 8002f86:	9300      	str	r3, [sp, #0]
 8002f88:	f44f 7204 	mov.w	r2, #528	; 0x210
 8002f8c:	f500 7307 	add.w	r3, r0, #540	; 0x21c
 8002f90:	4629      	mov	r1, r5
 8002f92:	7a00      	ldrb	r0, [r0, #8]
 8002f94:	f7ff fd32 	bl	80029fc <udp_recv>
 8002f98:	6863      	ldr	r3, [r4, #4]
 8002f9a:	f8c4 0224 	str.w	r0, [r4, #548]	; 0x224
 8002f9e:	3b01      	subs	r3, #1
 8002fa0:	2b04      	cmp	r3, #4
 8002fa2:	d814      	bhi.n	8002fce <TFTPDaemon::Run()+0x9a>
 8002fa4:	e8df f003 	tbb	[pc, r3]
 8002fa8:	130d0903 	movwne	r0, #55555	; 0xd903
 8002fac:	28040013 	stmdacs	r4, {r0, r1, r4}
 8002fb0:	d9e1      	bls.n	8002f76 <TFTPDaemon::Run()+0x42>
 8002fb2:	4620      	mov	r0, r4
 8002fb4:	f7ff ff04 	bl	8002dc0 <TFTPDaemon::HandleRequest()>
 8002fb8:	e7dd      	b.n	8002f76 <TFTPDaemon::Run()+0x42>
 8002fba:	4620      	mov	r0, r4
 8002fbc:	f7ff fe91 	bl	8002ce2 <TFTPDaemon::DoRead()>
 8002fc0:	e7d9      	b.n	8002f76 <TFTPDaemon::Run()+0x42>
 8002fc2:	2804      	cmp	r0, #4
 8002fc4:	d1d7      	bne.n	8002f76 <TFTPDaemon::Run()+0x42>
 8002fc6:	4620      	mov	r0, r4
 8002fc8:	f7ff feca 	bl	8002d60 <TFTPDaemon::HandleRecvAck()>
 8002fcc:	e7d3      	b.n	8002f76 <TFTPDaemon::Run()+0x42>
 8002fce:	f5b0 7f01 	cmp.w	r0, #516	; 0x204
 8002fd2:	d8d0      	bhi.n	8002f76 <TFTPDaemon::Run()+0x42>
 8002fd4:	4620      	mov	r0, r4
 8002fd6:	f7ff ff79 	bl	8002ecc <TFTPDaemon::HandleRecvData()>
 8002fda:	e7cc      	b.n	8002f76 <TFTPDaemon::Run()+0x42>
 8002fdc:	20002eb0 			; <UNDEFINED> instruction: 0x20002eb0

08002fe0 <strncpy.constprop.0.isra.0>:
 8002fe0:	3901      	subs	r1, #1
 8002fe2:	233f      	movs	r3, #63	; 0x3f
 8002fe4:	f811 2f01 	ldrb.w	r2, [r1, #1]!
 8002fe8:	b92a      	cbnz	r2, 8002ff6 <strncpy.constprop.0.isra.0+0x16>
 8002fea:	4403      	add	r3, r0
 8002fec:	4298      	cmp	r0, r3
 8002fee:	d006      	beq.n	8002ffe <strncpy.constprop.0.isra.0+0x1e>
 8002ff0:	f800 2b01 	strb.w	r2, [r0], #1
 8002ff4:	e7fa      	b.n	8002fec <strncpy.constprop.0.isra.0+0xc>
 8002ff6:	3b01      	subs	r3, #1
 8002ff8:	f800 2b01 	strb.w	r2, [r0], #1
 8002ffc:	d1f2      	bne.n	8002fe4 <strncpy.constprop.0.isra.0+0x4>
 8002ffe:	4770      	bx	lr

08003000 <Network::Network()>:
 8003000:	4a12      	ldr	r2, [pc, #72]	; (800304c <Network::Network()+0x4c>)
 8003002:	2300      	movs	r3, #0
 8003004:	f04f 1101 	mov.w	r1, #65537	; 0x10001
 8003008:	6010      	str	r0, [r2, #0]
 800300a:	e9c0 3330 	strd	r3, r3, [r0, #192]	; 0xc0
 800300e:	2201      	movs	r2, #1
 8003010:	e9c0 3305 	strd	r3, r3, [r0, #20]
 8003014:	e9c0 2100 	strd	r2, r1, [r0]
 8003018:	e9c0 2302 	strd	r2, r3, [r0, #8]
 800301c:	490c      	ldr	r1, [pc, #48]	; (8003050 <Network::Network()+0x50>)
 800301e:	f8c0 30b8 	str.w	r3, [r0, #184]	; 0xb8
 8003022:	2200      	movs	r2, #0
 8003024:	6102      	str	r2, [r0, #16]
 8003026:	f8c0 30c8 	str.w	r3, [r0, #200]	; 0xc8
 800302a:	f880 30a0 	strb.w	r3, [r0, #160]	; 0xa0
 800302e:	61c3      	str	r3, [r0, #28]
 8003030:	f880 3020 	strb.w	r3, [r0, #32]
 8003034:	f880 3060 	strb.w	r3, [r0, #96]	; 0x60
 8003038:	f100 02a5 	add.w	r2, r0, #165	; 0xa5
 800303c:	f811 3b01 	ldrb.w	r3, [r1], #1
 8003040:	f802 3f01 	strb.w	r3, [r2, #1]!
 8003044:	2b00      	cmp	r3, #0
 8003046:	d1f9      	bne.n	800303c <Network::Network()+0x3c>
 8003048:	4770      	bx	lr
 800304a:	bf00      	nop
 800304c:	20002eb0 			; <UNDEFINED> instruction: 0x20002eb0
 8003050:	08006a88 	stmdaeq	r0, {r3, r7, r9, fp, sp, lr}

08003054 <Network::Shutdown()>:
 8003054:	b508      	push	{r3, lr}
 8003056:	30bc      	adds	r0, #188	; 0xbc
 8003058:	f7fd fd46 	bl	8000ae8 <NetworkDisplay::ShowShutdown()>
 800305c:	e8bd 4008 	ldmia.w	sp!, {r3, lr}
 8003060:	f7fd b8de 	b.w	8000220 <net_shutdown>

08003064 <Network::Begin(unsigned short)>:
 8003064:	4608      	mov	r0, r1
 8003066:	f7ff bc8b 	b.w	8002980 <udp_bind>

0800306a <Network::End(unsigned short)>:
 800306a:	4608      	mov	r0, r1
 800306c:	f7ff bca6 	b.w	80029bc <udp_unbind>

08003070 <Network::MacAddressCopyTo(unsigned char*)>:
 8003070:	f100 039f 	add.w	r3, r0, #159	; 0x9f
 8003074:	3901      	subs	r1, #1
 8003076:	30a5      	adds	r0, #165	; 0xa5
 8003078:	f813 2f01 	ldrb.w	r2, [r3, #1]!
 800307c:	f801 2f01 	strb.w	r2, [r1, #1]!
 8003080:	4283      	cmp	r3, r0
 8003082:	d1f9      	bne.n	8003078 <Network::MacAddressCopyTo(unsigned char*)+0x8>
 8003084:	4770      	bx	lr

08003086 <Network::SetDefaultIp()>:
 8003086:	f890 30a4 	ldrb.w	r3, [r0, #164]	; 0xa4
 800308a:	f890 20a3 	ldrb.w	r2, [r0, #163]	; 0xa3
 800308e:	041b      	lsls	r3, r3, #16
 8003090:	eb03 2302 	add.w	r3, r3, r2, lsl #8
 8003094:	f890 20a5 	ldrb.w	r2, [r0, #165]	; 0xa5
 8003098:	3302      	adds	r3, #2
 800309a:	eb03 6302 	add.w	r3, r3, r2, lsl #24
 800309e:	22ff      	movs	r2, #255	; 0xff
 80030a0:	e9c0 3206 	strd	r3, r2, [r0, #24]
 80030a4:	6143      	str	r3, [r0, #20]
 80030a6:	4770      	bx	lr

080030a8 <Network::Init(NetworkParamsStore*)>:
 80030a8:	e92d 4ff0 	stmdb	sp!, {r4, r5, r6, r7, r8, r9, sl, fp, lr}
 80030ac:	b0a5      	sub	sp, #148	; 0x94
 80030ae:	4604      	mov	r4, r0
 80030b0:	a80b      	add	r0, sp, #44	; 0x2c
 80030b2:	f000 f9c1 	bl	8003438 <NetworkParams::NetworkParams(NetworkParamsStore*)>
 80030b6:	a80b      	add	r0, sp, #44	; 0x2c
 80030b8:	f000 f9ca 	bl	8003450 <NetworkParams::Load()>
 80030bc:	b110      	cbz	r0, 80030c4 <Network::Init(NetworkParamsStore*)+0x1c>
 80030be:	a80b      	add	r0, sp, #44	; 0x2c
 80030c0:	f000 f9d2 	bl	8003468 <NetworkParams::Dump()>
 80030c4:	f104 05bc 	add.w	r5, r4, #188	; 0xbc
 80030c8:	4628      	mov	r0, r5
 80030ca:	f7fd fcc7 	bl	8000a5c <NetworkDisplay::ShowEmacStart()>
 80030ce:	9b0d      	ldr	r3, [sp, #52]	; 0x34
 80030d0:	9308      	str	r3, [sp, #32]
 80030d2:	9b0e      	ldr	r3, [sp, #56]	; 0x38
 80030d4:	9309      	str	r3, [sp, #36]	; 0x24
 80030d6:	9b0f      	ldr	r3, [sp, #60]	; 0x3c
 80030d8:	930a      	str	r3, [sp, #40]	; 0x28
 80030da:	f89d 3044 	ldrb.w	r3, [sp, #68]	; 0x44
 80030de:	7163      	strb	r3, [r4, #5]
 80030e0:	9b0c      	ldr	r3, [sp, #48]	; 0x30
 80030e2:	f013 0240 	ands.w	r2, r3, #64	; 0x40
 80030e6:	bf18      	it	ne
 80030e8:	f8dd 2085 	ldrne.w	r2, [sp, #133]	; 0x85
 80030ec:	60e2      	str	r2, [r4, #12]
 80030ee:	061b      	lsls	r3, r3, #24
 80030f0:	bf4c      	ite	mi
 80030f2:	f8dd 3089 	ldrmi.w	r3, [sp, #137]	; 0x89
 80030f6:	2300      	movpl	r3, #0
 80030f8:	f104 06a0 	add.w	r6, r4, #160	; 0xa0
 80030fc:	6123      	str	r3, [r4, #16]
 80030fe:	4630      	mov	r0, r6
 8003100:	f002 f92c 	bl	800535c <emac_start(unsigned char*)>
 8003104:	f89d 3045 	ldrb.w	r3, [sp, #69]	; 0x45
 8003108:	f104 0720 	add.w	r7, r4, #32
 800310c:	2b00      	cmp	r3, #0
 800310e:	f040 80cb 	bne.w	80032a8 <Network::Init(NetworkParamsStore*)+0x200>
 8003112:	4987      	ldr	r1, [pc, #540]	; (8003330 <Network::Init(NetworkParamsStore*)+0x288>)
 8003114:	f104 001f 	add.w	r0, r4, #31
 8003118:	f811 2b01 	ldrb.w	r2, [r1], #1
 800311c:	f103 0c01 	add.w	ip, r3, #1
 8003120:	2a00      	cmp	r2, #0
 8003122:	f040 80bd 	bne.w	80032a0 <Network::Init(NetworkParamsStore*)+0x1f8>
 8003126:	f894 20a3 	ldrb.w	r2, [r4, #163]	; 0xa3
 800312a:	0910      	lsrs	r0, r2, #4
 800312c:	2a9f      	cmp	r2, #159	; 0x9f
 800312e:	f002 020f 	and.w	r2, r2, #15
 8003132:	bf94      	ite	ls
 8003134:	3030      	addls	r0, #48	; 0x30
 8003136:	3037      	addhi	r0, #55	; 0x37
 8003138:	18e1      	adds	r1, r4, r3
 800313a:	2a09      	cmp	r2, #9
 800313c:	44a4      	add	ip, r4
 800313e:	bf94      	ite	ls
 8003140:	3230      	addls	r2, #48	; 0x30
 8003142:	3237      	addhi	r2, #55	; 0x37
 8003144:	f881 0020 	strb.w	r0, [r1, #32]
 8003148:	f88c 2020 	strb.w	r2, [ip, #32]
 800314c:	f894 20a4 	ldrb.w	r2, [r4, #164]	; 0xa4
 8003150:	f103 0802 	add.w	r8, r3, #2
 8003154:	0910      	lsrs	r0, r2, #4
 8003156:	2a9f      	cmp	r2, #159	; 0x9f
 8003158:	eb04 0c08 	add.w	ip, r4, r8
 800315c:	f002 020f 	and.w	r2, r2, #15
 8003160:	bf94      	ite	ls
 8003162:	3030      	addls	r0, #48	; 0x30
 8003164:	3037      	addhi	r0, #55	; 0x37
 8003166:	f103 0e03 	add.w	lr, r3, #3
 800316a:	f88c 0020 	strb.w	r0, [ip, #32]
 800316e:	2a09      	cmp	r2, #9
 8003170:	eb04 000e 	add.w	r0, r4, lr
 8003174:	bf94      	ite	ls
 8003176:	3230      	addls	r2, #48	; 0x30
 8003178:	3237      	addhi	r2, #55	; 0x37
 800317a:	f880 2020 	strb.w	r2, [r0, #32]
 800317e:	f894 20a5 	ldrb.w	r2, [r4, #165]	; 0xa5
 8003182:	f103 0c04 	add.w	ip, r3, #4
 8003186:	0910      	lsrs	r0, r2, #4
 8003188:	2a9f      	cmp	r2, #159	; 0x9f
 800318a:	f103 0305 	add.w	r3, r3, #5
 800318e:	f002 020f 	and.w	r2, r2, #15
 8003192:	bf94      	ite	ls
 8003194:	3030      	addls	r0, #48	; 0x30
 8003196:	3037      	addhi	r0, #55	; 0x37
 8003198:	4423      	add	r3, r4
 800319a:	2a09      	cmp	r2, #9
 800319c:	44a4      	add	ip, r4
 800319e:	bf94      	ite	ls
 80031a0:	3230      	addls	r2, #48	; 0x30
 80031a2:	3237      	addhi	r2, #55	; 0x37
 80031a4:	f88c 0020 	strb.w	r0, [ip, #32]
 80031a8:	f883 2020 	strb.w	r2, [r3, #32]
 80031ac:	2300      	movs	r3, #0
 80031ae:	f881 3026 	strb.w	r3, [r1, #38]	; 0x26
 80031b2:	f002 f9e3 	bl	800557c <net::link_register_read()>
 80031b6:	7963      	ldrb	r3, [r4, #5]
 80031b8:	6020      	str	r0, [r4, #0]
 80031ba:	2800      	cmp	r0, #0
 80031bc:	f040 80a1 	bne.w	8003302 <Network::Init(NetworkParamsStore*)+0x25a>
 80031c0:	2b00      	cmp	r3, #0
 80031c2:	f040 80af 	bne.w	8003324 <Network::Init(NetworkParamsStore*)+0x27c>
 80031c6:	9b08      	ldr	r3, [sp, #32]
 80031c8:	2b00      	cmp	r3, #0
 80031ca:	d176      	bne.n	80032ba <Network::Init(NetworkParamsStore*)+0x212>
 80031cc:	4620      	mov	r0, r4
 80031ce:	f7ff ff5a 	bl	8003086 <Network::SetDefaultIp()>
 80031d2:	6963      	ldr	r3, [r4, #20]
 80031d4:	69e2      	ldr	r2, [r4, #28]
 80031d6:	9308      	str	r3, [sp, #32]
 80031d8:	e9cd 2309 	strd	r2, r3, [sp, #36]	; 0x24
 80031dc:	f104 0905 	add.w	r9, r4, #5
 80031e0:	f104 0a07 	add.w	sl, r4, #7
 80031e4:	464b      	mov	r3, r9
 80031e6:	f8cd a000 	str.w	sl, [sp]
 80031ea:	463a      	mov	r2, r7
 80031ec:	a908      	add	r1, sp, #32
 80031ee:	4630      	mov	r0, r6
 80031f0:	f7fc ffca 	bl	8000188 <net_init>
 80031f4:	79e3      	ldrb	r3, [r4, #7]
 80031f6:	b11b      	cbz	r3, 8003200 <Network::Init(NetworkParamsStore*)+0x158>
 80031f8:	2104      	movs	r1, #4
 80031fa:	4628      	mov	r0, r5
 80031fc:	f7fd fc86 	bl	8000b0c <NetworkDisplay::ShowDhcpStatus(network::dhcp::ClientStatus)>
 8003200:	f89d 308d 	ldrb.w	r3, [sp, #141]	; 0x8d
 8003204:	9302      	str	r3, [sp, #8]
 8003206:	f89d 3044 	ldrb.w	r3, [sp, #68]	; 0x44
 800320a:	9303      	str	r3, [sp, #12]
 800320c:	f89d 308d 	ldrb.w	r3, [sp, #141]	; 0x8d
 8003210:	f8df 8124 	ldr.w	r8, [pc, #292]	; 8003338 <Network::Init(NetworkParamsStore*)+0x290>
 8003214:	f8df b124 	ldr.w	fp, [pc, #292]	; 800333c <Network::Init(NetworkParamsStore*)+0x294>
 8003218:	ebc3 1303 	rsb	r3, r3, r3, lsl #4
 800321c:	009b      	lsls	r3, r3, #2
 800321e:	9305      	str	r3, [sp, #20]
 8003220:	79e3      	ldrb	r3, [r4, #7]
 8003222:	b38b      	cbz	r3, 8003288 <Network::Init(NetworkParamsStore*)+0x1e0>
 8003224:	9b02      	ldr	r3, [sp, #8]
 8003226:	b37b      	cbz	r3, 8003288 <Network::Init(NetworkParamsStore*)+0x1e0>
 8003228:	9b03      	ldr	r3, [sp, #12]
 800322a:	b36b      	cbz	r3, 8003288 <Network::Init(NetworkParamsStore*)+0x1e0>
 800322c:	f8d8 0000 	ldr.w	r0, [r8]
 8003230:	2104      	movs	r1, #4
 8003232:	f000 fd6f 	bl	8003d14 <LedBlink::SetMode(ledblink::Mode)>
 8003236:	2103      	movs	r1, #3
 8003238:	4628      	mov	r0, r5
 800323a:	f7fd fc67 	bl	8000b0c <NetworkDisplay::ShowDhcpStatus(network::dhcp::ClientStatus)>
 800323e:	2000      	movs	r0, #0
 8003240:	f000 ff8c 	bl	800415c <time>
 8003244:	9004      	str	r0, [sp, #16]
 8003246:	2000      	movs	r0, #0
 8003248:	f000 ff88 	bl	800415c <time>
 800324c:	9b04      	ldr	r3, [sp, #16]
 800324e:	4939      	ldr	r1, [pc, #228]	; (8003334 <Network::Init(NetworkParamsStore*)+0x28c>)
 8003250:	1ac0      	subs	r0, r0, r3
 8003252:	9b05      	ldr	r3, [sp, #20]
 8003254:	4298      	cmp	r0, r3
 8003256:	db38      	blt.n	80032ca <Network::Init(NetworkParamsStore*)+0x222>
 8003258:	2101      	movs	r1, #1
 800325a:	4628      	mov	r0, r5
 800325c:	f7fd fc56 	bl	8000b0c <NetworkDisplay::ShowDhcpStatus(network::dhcp::ClientStatus)>
 8003260:	f8d8 0000 	ldr.w	r0, [r8]
 8003264:	2101      	movs	r1, #1
 8003266:	f000 fd55 	bl	8003d14 <LedBlink::SetMode(ledblink::Mode)>
 800326a:	2301      	movs	r3, #1
 800326c:	7163      	strb	r3, [r4, #5]
 800326e:	2300      	movs	r3, #0
 8003270:	71e3      	strb	r3, [r4, #7]
 8003272:	f8cd a000 	str.w	sl, [sp]
 8003276:	464b      	mov	r3, r9
 8003278:	463a      	mov	r2, r7
 800327a:	a908      	add	r1, sp, #32
 800327c:	4630      	mov	r0, r6
 800327e:	f7fc ff83 	bl	8000188 <net_init>
 8003282:	7963      	ldrb	r3, [r4, #5]
 8003284:	2b00      	cmp	r3, #0
 8003286:	d0cb      	beq.n	8003220 <Network::Init(NetworkParamsStore*)+0x178>
 8003288:	9b08      	ldr	r3, [sp, #32]
 800328a:	6163      	str	r3, [r4, #20]
 800328c:	9b09      	ldr	r3, [sp, #36]	; 0x24
 800328e:	61e3      	str	r3, [r4, #28]
 8003290:	9b0a      	ldr	r3, [sp, #40]	; 0x28
 8003292:	61a3      	str	r3, [r4, #24]
 8003294:	4628      	mov	r0, r5
 8003296:	f7fd fbf3 	bl	8000a80 <NetworkDisplay::ShowIp()>
 800329a:	b025      	add	sp, #148	; 0x94
 800329c:	e8bd 8ff0 	ldmia.w	sp!, {r4, r5, r6, r7, r8, r9, sl, fp, pc}
 80032a0:	f800 2f01 	strb.w	r2, [r0, #1]!
 80032a4:	4663      	mov	r3, ip
 80032a6:	e737      	b.n	8003118 <Network::Init(NetworkParamsStore*)+0x70>
 80032a8:	f10d 0145 	add.w	r1, sp, #69	; 0x45
 80032ac:	4638      	mov	r0, r7
 80032ae:	f7ff fe97 	bl	8002fe0 <strncpy.constprop.0.isra.0>
 80032b2:	2300      	movs	r3, #0
 80032b4:	f884 305f 	strb.w	r3, [r4, #95]	; 0x5f
 80032b8:	e77b      	b.n	80031b2 <Network::Init(NetworkParamsStore*)+0x10a>
 80032ba:	e9d4 2305 	ldrd	r2, r3, [r4, #20]
 80032be:	69e1      	ldr	r1, [r4, #28]
 80032c0:	4053      	eors	r3, r2
 80032c2:	420b      	tst	r3, r1
 80032c4:	bf18      	it	ne
 80032c6:	920a      	strne	r2, [sp, #40]	; 0x28
 80032c8:	e788      	b.n	80031dc <Network::Init(NetworkParamsStore*)+0x134>
 80032ca:	f8d8 3000 	ldr.w	r3, [r8]
 80032ce:	f8d3 c00c 	ldr.w	ip, [r3, #12]
 80032d2:	f1bc 0f00 	cmp.w	ip, #0
 80032d6:	d0b6      	beq.n	8003246 <Network::Init(NetworkParamsStore*)+0x19e>
 80032d8:	f8db 0000 	ldr.w	r0, [fp]
 80032dc:	695a      	ldr	r2, [r3, #20]
 80032de:	1a80      	subs	r0, r0, r2
 80032e0:	4584      	cmp	ip, r0
 80032e2:	d8b0      	bhi.n	8003246 <Network::Init(NetworkParamsStore*)+0x19e>
 80032e4:	f8db 0000 	ldr.w	r0, [fp]
 80032e8:	6158      	str	r0, [r3, #20]
 80032ea:	6918      	ldr	r0, [r3, #16]
 80032ec:	2801      	cmp	r0, #1
 80032ee:	f080 0201 	eor.w	r2, r0, #1
 80032f2:	611a      	str	r2, [r3, #16]
 80032f4:	bf1a      	itte	ne
 80032f6:	2301      	movne	r3, #1
 80032f8:	f8c1 3818 	strne.w	r3, [r1, #2072]	; 0x818
 80032fc:	f8c1 0828 	streq.w	r0, [r1, #2088]	; 0x828
 8003300:	e7a1      	b.n	8003246 <Network::Init(NetworkParamsStore*)+0x19e>
 8003302:	b11b      	cbz	r3, 800330c <Network::Init(NetworkParamsStore*)+0x264>
 8003304:	2300      	movs	r3, #0
 8003306:	e9c4 3306 	strd	r3, r3, [r4, #24]
 800330a:	9308      	str	r3, [sp, #32]
 800330c:	2300      	movs	r3, #0
 800330e:	f88d 301f 	strb.w	r3, [sp, #31]
 8003312:	f10d 031f 	add.w	r3, sp, #31
 8003316:	9300      	str	r3, [sp, #0]
 8003318:	463a      	mov	r2, r7
 800331a:	a908      	add	r1, sp, #32
 800331c:	4630      	mov	r0, r6
 800331e:	f7fc ff33 	bl	8000188 <net_init>
 8003322:	e7b1      	b.n	8003288 <Network::Init(NetworkParamsStore*)+0x1e0>
 8003324:	2101      	movs	r1, #1
 8003326:	4628      	mov	r0, r5
 8003328:	f7fd fbf0 	bl	8000b0c <NetworkDisplay::ShowDhcpStatus(network::dhcp::ClientStatus)>
 800332c:	e756      	b.n	80031dc <Network::Init(NetworkParamsStore*)+0x134>
 800332e:	bf00      	nop
 8003330:	08006a8d 	stmdaeq	r0, {r0, r2, r3, r7, r9, fp, sp, lr}
 8003334:	40020000 	andmi	r0, r2, r0
 8003338:	200031c8 	andcs	r3, r0, r8, asr #3
 800333c:	200031dc 	ldrdcs	r3, [r0], -ip

08003340 <Network::Print()>:
 8003340:	b530      	push	{r4, r5, lr}
 8003342:	4604      	mov	r4, r0
 8003344:	b085      	sub	sp, #20
 8003346:	4832      	ldr	r0, [pc, #200]	; (8003410 <Network::Print()+0xd0>)
 8003348:	f7fd fe26 	bl	8000f98 <printf>
 800334c:	f104 0120 	add.w	r1, r4, #32
 8003350:	4830      	ldr	r0, [pc, #192]	; (8003414 <Network::Print()+0xd4>)
 8003352:	f7fd fe21 	bl	8000f98 <printf>
 8003356:	68a1      	ldr	r1, [r4, #8]
 8003358:	482f      	ldr	r0, [pc, #188]	; (8003418 <Network::Print()+0xd8>)
 800335a:	f104 02a6 	add.w	r2, r4, #166	; 0xa6
 800335e:	f7fd fe1b 	bl	8000f98 <printf>
 8003362:	69e0      	ldr	r0, [r4, #28]
 8003364:	6965      	ldr	r5, [r4, #20]
 8003366:	f7fd fc09 	bl	8000b7c <__popcountsi2>
 800336a:	0e2b      	lsrs	r3, r5, #24
 800336c:	9001      	str	r0, [sp, #4]
 800336e:	9300      	str	r3, [sp, #0]
 8003370:	f3c5 2207 	ubfx	r2, r5, #8, #8
 8003374:	f3c5 4307 	ubfx	r3, r5, #16, #8
 8003378:	b2e9      	uxtb	r1, r5
 800337a:	4828      	ldr	r0, [pc, #160]	; (800341c <Network::Print()+0xdc>)
 800337c:	f7fd fe0c 	bl	8000f98 <printf>
 8003380:	69e1      	ldr	r1, [r4, #28]
 8003382:	4827      	ldr	r0, [pc, #156]	; (8003420 <Network::Print()+0xe0>)
 8003384:	0e0b      	lsrs	r3, r1, #24
 8003386:	f3c1 2207 	ubfx	r2, r1, #8, #8
 800338a:	9300      	str	r3, [sp, #0]
 800338c:	f3c1 4307 	ubfx	r3, r1, #16, #8
 8003390:	b2c9      	uxtb	r1, r1
 8003392:	f7fd fe01 	bl	8000f98 <printf>
 8003396:	69a1      	ldr	r1, [r4, #24]
 8003398:	4822      	ldr	r0, [pc, #136]	; (8003424 <Network::Print()+0xe4>)
 800339a:	0e0b      	lsrs	r3, r1, #24
 800339c:	f3c1 2207 	ubfx	r2, r1, #8, #8
 80033a0:	9300      	str	r3, [sp, #0]
 80033a2:	f3c1 4307 	ubfx	r3, r1, #16, #8
 80033a6:	b2c9      	uxtb	r1, r1
 80033a8:	f7fd fdf6 	bl	8000f98 <printf>
 80033ac:	69e3      	ldr	r3, [r4, #28]
 80033ae:	6961      	ldr	r1, [r4, #20]
 80033b0:	481d      	ldr	r0, [pc, #116]	; (8003428 <Network::Print()+0xe8>)
 80033b2:	ea61 0103 	orn	r1, r1, r3
 80033b6:	0e0b      	lsrs	r3, r1, #24
 80033b8:	f3c1 2207 	ubfx	r2, r1, #8, #8
 80033bc:	9300      	str	r3, [sp, #0]
 80033be:	f3c1 4307 	ubfx	r3, r1, #16, #8
 80033c2:	b2c9      	uxtb	r1, r1
 80033c4:	f7fd fde8 	bl	8000f98 <printf>
 80033c8:	f894 30a5 	ldrb.w	r3, [r4, #165]	; 0xa5
 80033cc:	9302      	str	r3, [sp, #8]
 80033ce:	f894 30a4 	ldrb.w	r3, [r4, #164]	; 0xa4
 80033d2:	9301      	str	r3, [sp, #4]
 80033d4:	f894 30a3 	ldrb.w	r3, [r4, #163]	; 0xa3
 80033d8:	f894 20a1 	ldrb.w	r2, [r4, #161]	; 0xa1
 80033dc:	9300      	str	r3, [sp, #0]
 80033de:	f894 10a0 	ldrb.w	r1, [r4, #160]	; 0xa0
 80033e2:	f894 30a2 	ldrb.w	r3, [r4, #162]	; 0xa2
 80033e6:	4811      	ldr	r0, [pc, #68]	; (800342c <Network::Print()+0xec>)
 80033e8:	f7fd fdd6 	bl	8000f98 <printf>
 80033ec:	4b10      	ldr	r3, [pc, #64]	; (8003430 <Network::Print()+0xf0>)
 80033ee:	681b      	ldr	r3, [r3, #0]
 80033f0:	79da      	ldrb	r2, [r3, #7]
 80033f2:	b952      	cbnz	r2, 800340a <Network::Print()+0xca>
 80033f4:	795b      	ldrb	r3, [r3, #5]
 80033f6:	2b00      	cmp	r3, #0
 80033f8:	bf14      	ite	ne
 80033fa:	2144      	movne	r1, #68	; 0x44
 80033fc:	2153      	moveq	r1, #83	; 0x53
 80033fe:	480d      	ldr	r0, [pc, #52]	; (8003434 <Network::Print()+0xf4>)
 8003400:	b005      	add	sp, #20
 8003402:	e8bd 4030 	ldmia.w	sp!, {r4, r5, lr}
 8003406:	f7fd bdc7 	b.w	8000f98 <printf>
 800340a:	215a      	movs	r1, #90	; 0x5a
 800340c:	e7f7      	b.n	80033fe <Network::Print()+0xbe>
 800340e:	bf00      	nop
 8003410:	08006a99 	stmdaeq	r0, {r0, r3, r4, r7, r9, fp, sp, lr}
 8003414:	08006aa2 	stmdaeq	r0, {r1, r5, r7, r9, fp, sp, lr}
 8003418:	08006ab3 	stmdaeq	r0, {r0, r1, r4, r5, r7, r9, fp, sp, lr}
 800341c:	08006ac8 	stmdaeq	r0, {r3, r6, r7, r9, fp, sp, lr}
 8003420:	08006ae5 	stmdaeq	r0, {r0, r2, r5, r6, r7, r9, fp, sp, lr}
 8003424:	08006aff 	stmdaeq	r0, {r0, r1, r2, r3, r4, r5, r6, r7, r9, fp, sp, lr}
 8003428:	08006b19 	stmdaeq	r0, {r0, r3, r4, r8, r9, fp, sp, lr}
 800342c:	08006b33 	stmdaeq	r0, {r0, r1, r4, r5, r8, r9, fp, sp, lr}
 8003430:	20002eb0 			; <UNDEFINED> instruction: 0x20002eb0
 8003434:	08006b5f 	stmdaeq	r0, {r0, r1, r2, r3, r4, r6, r8, r9, fp, sp, lr}

08003438 <NetworkParams::NetworkParams(NetworkParamsStore*)>:
 8003438:	b510      	push	{r4, lr}
 800343a:	225e      	movs	r2, #94	; 0x5e
 800343c:	4604      	mov	r4, r0
 800343e:	f840 1b04 	str.w	r1, [r0], #4
 8003442:	2100      	movs	r1, #0
 8003444:	f000 fdad 	bl	8003fa2 <memset>
 8003448:	2301      	movs	r3, #1
 800344a:	7623      	strb	r3, [r4, #24]
 800344c:	4620      	mov	r0, r4
 800344e:	bd10      	pop	{r4, pc}

08003450 <NetworkParams::Load()>:
 8003450:	b508      	push	{r3, lr}
 8003452:	2300      	movs	r3, #0
 8003454:	4601      	mov	r1, r0
 8003456:	6043      	str	r3, [r0, #4]
 8003458:	6800      	ldr	r0, [r0, #0]
 800345a:	b120      	cbz	r0, 8003466 <NetworkParams::Load()+0x16>
 800345c:	6803      	ldr	r3, [r0, #0]
 800345e:	3104      	adds	r1, #4
 8003460:	68db      	ldr	r3, [r3, #12]
 8003462:	4798      	blx	r3
 8003464:	2001      	movs	r0, #1
 8003466:	bd08      	pop	{r3, pc}

08003468 <NetworkParams::Dump()>:
 8003468:	4770      	bx	lr

0800346a <memcpy.isra.0>:
 800346a:	3801      	subs	r0, #1
 800346c:	440a      	add	r2, r1
 800346e:	4291      	cmp	r1, r2
 8003470:	d100      	bne.n	8003474 <memcpy.isra.0+0xa>
 8003472:	4770      	bx	lr
 8003474:	f811 3b01 	ldrb.w	r3, [r1], #1
 8003478:	f800 3f01 	strb.w	r3, [r0, #1]!
 800347c:	e7f7      	b.n	800346e <memcpy.isra.0+0x4>
	...

08003480 <arp_announce>:
 8003480:	4803      	ldr	r0, [pc, #12]	; (8003490 <arp_announce+0x10>)
 8003482:	69c3      	ldr	r3, [r0, #28]
 8003484:	b113      	cbz	r3, 800348c <arp_announce+0xc>
 8003486:	212a      	movs	r1, #42	; 0x2a
 8003488:	f001 bb86 	b.w	8004b98 <emac_eth_send>
 800348c:	4770      	bx	lr
 800348e:	bf00      	nop
 8003490:	20002eb4 			; <UNDEFINED> instruction: 0x20002eb4

08003494 <arp_handle_request>:
 8003494:	b537      	push	{r0, r1, r2, r4, r5, lr}
 8003496:	2204      	movs	r2, #4
 8003498:	f100 0126 	add.w	r1, r0, #38	; 0x26
 800349c:	4604      	mov	r4, r0
 800349e:	eb0d 0002 	add.w	r0, sp, r2
 80034a2:	f7ff ffe2 	bl	800346a <memcpy.isra.0>
 80034a6:	4b0d      	ldr	r3, [pc, #52]	; (80034dc <arp_handle_request+0x48>)
 80034a8:	9a01      	ldr	r2, [sp, #4]
 80034aa:	69db      	ldr	r3, [r3, #28]
 80034ac:	429a      	cmp	r2, r3
 80034ae:	d113      	bne.n	80034d8 <arp_handle_request+0x44>
 80034b0:	4d0b      	ldr	r5, [pc, #44]	; (80034e0 <arp_handle_request+0x4c>)
 80034b2:	2206      	movs	r2, #6
 80034b4:	18a1      	adds	r1, r4, r2
 80034b6:	4628      	mov	r0, r5
 80034b8:	f7ff ffd7 	bl	800346a <memcpy.isra.0>
 80034bc:	f104 0116 	add.w	r1, r4, #22
 80034c0:	f105 0020 	add.w	r0, r5, #32
 80034c4:	2206      	movs	r2, #6
 80034c6:	f7ff ffd0 	bl	800346a <memcpy.isra.0>
 80034ca:	69e3      	ldr	r3, [r4, #28]
 80034cc:	f8c5 3026 	str.w	r3, [r5, #38]	; 0x26
 80034d0:	212a      	movs	r1, #42	; 0x2a
 80034d2:	4628      	mov	r0, r5
 80034d4:	f001 fb60 	bl	8004b98 <emac_eth_send>
 80034d8:	b003      	add	sp, #12
 80034da:	bd30      	pop	{r4, r5, pc}
 80034dc:	20002eb4 			; <UNDEFINED> instruction: 0x20002eb4
 80034e0:	20002ee0 	andcs	r2, r0, r0, ror #29

080034e4 <arp_handle_reply>:
 80034e4:	69c1      	ldr	r1, [r0, #28]
 80034e6:	3016      	adds	r0, #22
 80034e8:	f000 b80a 	b.w	8003500 <arp_cache_update>

080034ec <arp_send_request>:
 80034ec:	4b03      	ldr	r3, [pc, #12]	; (80034fc <arp_send_request+0x10>)
 80034ee:	212a      	movs	r1, #42	; 0x2a
 80034f0:	f8c3 0026 	str.w	r0, [r3, #38]	; 0x26
 80034f4:	4618      	mov	r0, r3
 80034f6:	f001 bb4f 	b.w	8004b98 <emac_eth_send>
 80034fa:	bf00      	nop
 80034fc:	20002f0c 	andcs	r2, r0, ip, lsl #30

08003500 <arp_cache_update>:
 8003500:	b5f0      	push	{r4, r5, r6, r7, lr}
 8003502:	4c12      	ldr	r4, [pc, #72]	; (800354c <arp_cache_update+0x4c>)
 8003504:	8823      	ldrh	r3, [r4, #0]
 8003506:	2b20      	cmp	r3, #32
 8003508:	d019      	beq.n	800353e <arp_cache_update+0x3e>
 800350a:	2500      	movs	r5, #0
 800350c:	1d22      	adds	r2, r4, #4
 800350e:	260c      	movs	r6, #12
 8003510:	b2af      	uxth	r7, r5
 8003512:	42bb      	cmp	r3, r7
 8003514:	d80c      	bhi.n	8003530 <arp_cache_update+0x30>
 8003516:	fb06 2203 	mla	r2, r6, r3, r2
 800351a:	3203      	adds	r2, #3
 800351c:	1d85      	adds	r5, r0, #6
 800351e:	42a8      	cmp	r0, r5
 8003520:	d10e      	bne.n	8003540 <arp_cache_update+0x40>
 8003522:	220c      	movs	r2, #12
 8003524:	fb02 4203 	mla	r2, r2, r3, r4
 8003528:	3301      	adds	r3, #1
 800352a:	6051      	str	r1, [r2, #4]
 800352c:	8023      	strh	r3, [r4, #0]
 800352e:	e006      	b.n	800353e <arp_cache_update+0x3e>
 8003530:	3501      	adds	r5, #1
 8003532:	fb06 2705 	mla	r7, r6, r5, r2
 8003536:	f857 7c0c 	ldr.w	r7, [r7, #-12]
 800353a:	428f      	cmp	r7, r1
 800353c:	d1e8      	bne.n	8003510 <arp_cache_update+0x10>
 800353e:	bdf0      	pop	{r4, r5, r6, r7, pc}
 8003540:	f810 6b01 	ldrb.w	r6, [r0], #1
 8003544:	f802 6f01 	strb.w	r6, [r2, #1]!
 8003548:	e7e9      	b.n	800351e <arp_cache_update+0x1e>
 800354a:	bf00      	nop
 800354c:	100011a4 	andne	r1, r0, r4, lsr #3

08003550 <arp_cache_lookup>:
 8003550:	e92d 47f0 	stmdb	sp!, {r4, r5, r6, r7, r8, r9, sl, lr}
 8003554:	f8df 808c 	ldr.w	r8, [pc, #140]	; 80035e4 <arp_cache_lookup+0x94>
 8003558:	4606      	mov	r6, r0
 800355a:	460c      	mov	r4, r1
 800355c:	2200      	movs	r2, #0
 800355e:	200c      	movs	r0, #12
 8003560:	fb00 f302 	mul.w	r3, r0, r2
 8003564:	f853 1008 	ldr.w	r1, [r3, r8]
 8003568:	42b1      	cmp	r1, r6
 800356a:	d10d      	bne.n	8003588 <arp_cache_lookup+0x38>
 800356c:	3304      	adds	r3, #4
 800356e:	4443      	add	r3, r8
 8003570:	3c01      	subs	r4, #1
 8003572:	1d9a      	adds	r2, r3, #6
 8003574:	4293      	cmp	r3, r2
 8003576:	d102      	bne.n	800357e <arp_cache_lookup+0x2e>
 8003578:	4630      	mov	r0, r6
 800357a:	e8bd 87f0 	ldmia.w	sp!, {r4, r5, r6, r7, r8, r9, sl, pc}
 800357e:	f813 1b01 	ldrb.w	r1, [r3], #1
 8003582:	f804 1f01 	strb.w	r1, [r4, #1]!
 8003586:	e7f5      	b.n	8003574 <arp_cache_lookup+0x24>
 8003588:	b111      	cbz	r1, 8003590 <arp_cache_lookup+0x40>
 800358a:	3201      	adds	r2, #1
 800358c:	2a20      	cmp	r2, #32
 800358e:	d1e7      	bne.n	8003560 <arp_cache_lookup+0x10>
 8003590:	f8df a054 	ldr.w	sl, [pc, #84]	; 80035e8 <arp_cache_lookup+0x98>
 8003594:	f8ba 5000 	ldrh.w	r5, [sl]
 8003598:	2704      	movs	r7, #4
 800359a:	3f01      	subs	r7, #1
 800359c:	f017 07ff 	ands.w	r7, r7, #255	; 0xff
 80035a0:	d101      	bne.n	80035a6 <arp_cache_lookup+0x56>
 80035a2:	463e      	mov	r6, r7
 80035a4:	e7e8      	b.n	8003578 <arp_cache_lookup+0x28>
 80035a6:	4630      	mov	r0, r6
 80035a8:	f7ff ffa0 	bl	80034ec <arp_send_request>
 80035ac:	f44f 3900 	mov.w	r9, #131072	; 0x20000
 80035b0:	f1b9 0901 	subs.w	r9, r9, #1
 80035b4:	f8ba 3000 	ldrh.w	r3, [sl]
 80035b8:	d011      	beq.n	80035de <arp_cache_lookup+0x8e>
 80035ba:	429d      	cmp	r5, r3
 80035bc:	d00c      	beq.n	80035d8 <arp_cache_lookup+0x88>
 80035be:	230c      	movs	r3, #12
 80035c0:	fb03 8505 	mla	r5, r3, r5, r8
 80035c4:	1d2b      	adds	r3, r5, #4
 80035c6:	3c01      	subs	r4, #1
 80035c8:	350a      	adds	r5, #10
 80035ca:	42ab      	cmp	r3, r5
 80035cc:	d0d4      	beq.n	8003578 <arp_cache_lookup+0x28>
 80035ce:	f813 2b01 	ldrb.w	r2, [r3], #1
 80035d2:	f804 2f01 	strb.w	r2, [r4, #1]!
 80035d6:	e7f8      	b.n	80035ca <arp_cache_lookup+0x7a>
 80035d8:	f7fc ffa0 	bl	800051c <net_handle>
 80035dc:	e7e8      	b.n	80035b0 <arp_cache_lookup+0x60>
 80035de:	429d      	cmp	r5, r3
 80035e0:	d0db      	beq.n	800359a <arp_cache_lookup+0x4a>
 80035e2:	e7ec      	b.n	80035be <arp_cache_lookup+0x6e>
 80035e4:	100011a8 	andne	r1, r0, r8, lsr #3
 80035e8:	100011a4 	andne	r1, r0, r4, lsr #3

080035ec <_parse_response>:
 80035ec:	e92d 4ff0 	stmdb	sp!, {r4, r5, r6, r7, r8, r9, sl, fp, lr}
 80035f0:	2400      	movs	r4, #0
 80035f2:	f5ad 7d17 	sub.w	sp, sp, #604	; 0x25c
 80035f6:	4e52      	ldr	r6, [pc, #328]	; (8003740 <_parse_response+0x154>)
 80035f8:	9009      	str	r0, [sp, #36]	; 0x24
 80035fa:	e9cd 4403 	strd	r4, r4, [sp, #12]
 80035fe:	e9cd 4405 	strd	r4, r4, [sp, #20]
 8003602:	6833      	ldr	r3, [r6, #0]
 8003604:	9402      	str	r4, [sp, #8]
 8003606:	460d      	mov	r5, r1
 8003608:	46a3      	mov	fp, r4
 800360a:	4627      	mov	r7, r4
 800360c:	46a2      	mov	sl, r4
 800360e:	46a1      	mov	r9, r4
 8003610:	9407      	str	r4, [sp, #28]
 8003612:	46a0      	mov	r8, r4
 8003614:	9308      	str	r3, [sp, #32]
 8003616:	f7fc ff81 	bl	800051c <net_handle>
 800361a:	f10d 032e 	add.w	r3, sp, #46	; 0x2e
 800361e:	9300      	str	r3, [sp, #0]
 8003620:	f89d 0024 	ldrb.w	r0, [sp, #36]	; 0x24
 8003624:	ab0c      	add	r3, sp, #48	; 0x30
 8003626:	f44f 7209 	mov.w	r2, #548	; 0x224
 800362a:	a90d      	add	r1, sp, #52	; 0x34
 800362c:	f7ff f9e6 	bl	80029fc <udp_recv>
 8003630:	2800      	cmp	r0, #0
 8003632:	d040      	beq.n	80036b6 <_parse_response+0xca>
 8003634:	f8bd 302e 	ldrh.w	r3, [sp, #46]	; 0x2e
 8003638:	2b43      	cmp	r3, #67	; 0x43
 800363a:	d13c      	bne.n	80036b6 <_parse_response+0xca>
 800363c:	f10d 024f 	add.w	r2, sp, #79	; 0x4f
 8003640:	1e6b      	subs	r3, r5, #1
 8003642:	1d69      	adds	r1, r5, #5
 8003644:	4299      	cmp	r1, r3
 8003646:	d130      	bne.n	80036aa <_parse_response+0xbe>
 8003648:	2500      	movs	r5, #0
 800364a:	ab0d      	add	r3, sp, #52	; 0x34
 800364c:	4418      	add	r0, r3
 800364e:	46ac      	mov	ip, r5
 8003650:	462e      	mov	r6, r5
 8003652:	ab49      	add	r3, sp, #292	; 0x124
 8003654:	4629      	mov	r1, r5
 8003656:	4283      	cmp	r3, r0
 8003658:	d338      	bcc.n	80036cc <_parse_response+0xe0>
 800365a:	b145      	cbz	r5, 800366e <_parse_response+0x82>
 800365c:	4b39      	ldr	r3, [pc, #228]	; (8003744 <_parse_response+0x158>)
 800365e:	9a07      	ldr	r2, [sp, #28]
 8003660:	709a      	strb	r2, [r3, #2]
 8003662:	9a06      	ldr	r2, [sp, #24]
 8003664:	705a      	strb	r2, [r3, #1]
 8003666:	9a05      	ldr	r2, [sp, #20]
 8003668:	f883 8003 	strb.w	r8, [r3, #3]
 800366c:	701a      	strb	r2, [r3, #0]
 800366e:	f1bc 0f00 	cmp.w	ip, #0
 8003672:	d007      	beq.n	8003684 <_parse_response+0x98>
 8003674:	4b34      	ldr	r3, [pc, #208]	; (8003748 <_parse_response+0x15c>)
 8003676:	9a04      	ldr	r2, [sp, #16]
 8003678:	70da      	strb	r2, [r3, #3]
 800367a:	9a03      	ldr	r2, [sp, #12]
 800367c:	709a      	strb	r2, [r3, #2]
 800367e:	9a02      	ldr	r2, [sp, #8]
 8003680:	705c      	strb	r4, [r3, #1]
 8003682:	701a      	strb	r2, [r3, #0]
 8003684:	b13e      	cbz	r6, 8003696 <_parse_response+0xaa>
 8003686:	4b31      	ldr	r3, [pc, #196]	; (800374c <_parse_response+0x160>)
 8003688:	70df      	strb	r7, [r3, #3]
 800368a:	f883 a002 	strb.w	sl, [r3, #2]
 800368e:	f883 9001 	strb.w	r9, [r3, #1]
 8003692:	f883 b000 	strb.w	fp, [r3]
 8003696:	2902      	cmp	r1, #2
 8003698:	bf02      	ittt	eq
 800369a:	4b2d      	ldreq	r3, [pc, #180]	; (8003750 <_parse_response+0x164>)
 800369c:	9a11      	ldreq	r2, [sp, #68]	; 0x44
 800369e:	601a      	streq	r2, [r3, #0]
 80036a0:	4608      	mov	r0, r1
 80036a2:	f50d 7d17 	add.w	sp, sp, #604	; 0x25c
 80036a6:	e8bd 8ff0 	ldmia.w	sp!, {r4, r5, r6, r7, r8, r9, sl, fp, pc}
 80036aa:	f812 ef01 	ldrb.w	lr, [r2, #1]!
 80036ae:	f813 cf01 	ldrb.w	ip, [r3, #1]!
 80036b2:	45e6      	cmp	lr, ip
 80036b4:	d0c6      	beq.n	8003644 <_parse_response+0x58>
 80036b6:	6833      	ldr	r3, [r6, #0]
 80036b8:	9a08      	ldr	r2, [sp, #32]
 80036ba:	1a9b      	subs	r3, r3, r2
 80036bc:	f5b3 7ffa 	cmp.w	r3, #500	; 0x1f4
 80036c0:	d3a9      	bcc.n	8003616 <_parse_response+0x2a>
 80036c2:	2800      	cmp	r0, #0
 80036c4:	d1c0      	bne.n	8003648 <_parse_response+0x5c>
 80036c6:	f04f 30ff 	mov.w	r0, #4294967295	; 0xffffffff
 80036ca:	e7ea      	b.n	80036a2 <_parse_response+0xb6>
 80036cc:	781a      	ldrb	r2, [r3, #0]
 80036ce:	2a35      	cmp	r2, #53	; 0x35
 80036d0:	d011      	beq.n	80036f6 <_parse_response+0x10a>
 80036d2:	d808      	bhi.n	80036e6 <_parse_response+0xfa>
 80036d4:	2a01      	cmp	r2, #1
 80036d6:	d011      	beq.n	80036fc <_parse_response+0x110>
 80036d8:	2a03      	cmp	r2, #3
 80036da:	d019      	beq.n	8003710 <_parse_response+0x124>
 80036dc:	b14a      	cbz	r2, 80036f2 <_parse_response+0x106>
 80036de:	1c9a      	adds	r2, r3, #2
 80036e0:	785b      	ldrb	r3, [r3, #1]
 80036e2:	4413      	add	r3, r2
 80036e4:	e7b7      	b.n	8003656 <_parse_response+0x6a>
 80036e6:	2a36      	cmp	r2, #54	; 0x36
 80036e8:	d01f      	beq.n	800372a <_parse_response+0x13e>
 80036ea:	2aff      	cmp	r2, #255	; 0xff
 80036ec:	d1f7      	bne.n	80036de <_parse_response+0xf2>
 80036ee:	4603      	mov	r3, r0
 80036f0:	e7b1      	b.n	8003656 <_parse_response+0x6a>
 80036f2:	3301      	adds	r3, #1
 80036f4:	e7af      	b.n	8003656 <_parse_response+0x6a>
 80036f6:	7899      	ldrb	r1, [r3, #2]
 80036f8:	3303      	adds	r3, #3
 80036fa:	e7ac      	b.n	8003656 <_parse_response+0x6a>
 80036fc:	f893 b002 	ldrb.w	fp, [r3, #2]
 8003700:	f893 9003 	ldrb.w	r9, [r3, #3]
 8003704:	f893 a004 	ldrb.w	sl, [r3, #4]
 8003708:	795f      	ldrb	r7, [r3, #5]
 800370a:	4616      	mov	r6, r2
 800370c:	3306      	adds	r3, #6
 800370e:	e7a2      	b.n	8003656 <_parse_response+0x6a>
 8003710:	789a      	ldrb	r2, [r3, #2]
 8003712:	9202      	str	r2, [sp, #8]
 8003714:	791a      	ldrb	r2, [r3, #4]
 8003716:	9203      	str	r2, [sp, #12]
 8003718:	795a      	ldrb	r2, [r3, #5]
 800371a:	9204      	str	r2, [sp, #16]
 800371c:	785a      	ldrb	r2, [r3, #1]
 800371e:	78dc      	ldrb	r4, [r3, #3]
 8003720:	4413      	add	r3, r2
 8003722:	3302      	adds	r3, #2
 8003724:	f04f 0c01 	mov.w	ip, #1
 8003728:	e795      	b.n	8003656 <_parse_response+0x6a>
 800372a:	789a      	ldrb	r2, [r3, #2]
 800372c:	9205      	str	r2, [sp, #20]
 800372e:	78da      	ldrb	r2, [r3, #3]
 8003730:	9206      	str	r2, [sp, #24]
 8003732:	791a      	ldrb	r2, [r3, #4]
 8003734:	f893 8005 	ldrb.w	r8, [r3, #5]
 8003738:	9207      	str	r2, [sp, #28]
 800373a:	3306      	adds	r3, #6
 800373c:	2501      	movs	r5, #1
 800373e:	e78a      	b.n	8003656 <_parse_response+0x6a>
 8003740:	200031dc 	ldrdcs	r3, [r0], -ip
 8003744:	20003168 	andcs	r3, r0, r8, ror #2
 8003748:	20002f38 	andcs	r2, r0, r8, lsr pc
 800374c:	20002f40 	andcs	r2, r0, r0, asr #30
 8003750:	20002f3c 	andcs	r2, r0, ip, lsr pc

08003754 <memcpy.isra.0>:
 8003754:	3801      	subs	r0, #1
 8003756:	440a      	add	r2, r1
 8003758:	4291      	cmp	r1, r2
 800375a:	d100      	bne.n	800375e <memcpy.isra.0+0xa>
 800375c:	4770      	bx	lr
 800375e:	f811 3b01 	ldrb.w	r3, [r1], #1
 8003762:	f800 3f01 	strb.w	r3, [r0, #1]!
 8003766:	e7f7      	b.n	8003758 <memcpy.isra.0+0x4>

08003768 <dhcp_client>:
 8003768:	e92d 4ff0 	stmdb	sp!, {r4, r5, r6, r7, r8, r9, sl, fp, lr}
 800376c:	b087      	sub	sp, #28
 800376e:	460f      	mov	r7, r1
 8003770:	9203      	str	r2, [sp, #12]
 8003772:	4a77      	ldr	r2, [pc, #476]	; (8003950 <dhcp_client+0x1e8>)
 8003774:	4605      	mov	r5, r0
 8003776:	f44f 7309 	mov.w	r3, #548	; 0x224
 800377a:	4614      	mov	r4, r2
 800377c:	2100      	movs	r1, #0
 800377e:	3b01      	subs	r3, #1
 8003780:	f802 1b01 	strb.w	r1, [r2], #1
 8003784:	d1fb      	bne.n	800377e <dhcp_client+0x16>
 8003786:	f240 1301 	movw	r3, #257	; 0x101
 800378a:	2206      	movs	r2, #6
 800378c:	4871      	ldr	r0, [pc, #452]	; (8003954 <dhcp_client+0x1ec>)
 800378e:	8023      	strh	r3, [r4, #0]
 8003790:	4629      	mov	r1, r5
 8003792:	70a2      	strb	r2, [r4, #2]
 8003794:	f7ff ffde 	bl	8003754 <memcpy.isra.0>
 8003798:	4b6f      	ldr	r3, [pc, #444]	; (8003958 <dhcp_client+0x1f0>)
 800379a:	f8c4 30ec 	str.w	r3, [r4, #236]	; 0xec
 800379e:	f240 1335 	movw	r3, #309	; 0x135
 80037a2:	f8a4 30f0 	strh.w	r3, [r4, #240]	; 0xf0
 80037a6:	2044      	movs	r0, #68	; 0x44
 80037a8:	f7ff f8ea 	bl	8002980 <udp_bind>
 80037ac:	1e06      	subs	r6, r0, #0
 80037ae:	f2c0 80c9 	blt.w	8003944 <dhcp_client+0x1dc>
 80037b2:	f8df a19c 	ldr.w	sl, [pc, #412]	; 8003950 <dhcp_client+0x1e8>
 80037b6:	f04f 0915 	mov.w	r9, #21
 80037ba:	f1b9 0901 	subs.w	r9, r9, #1
 80037be:	d11f      	bne.n	8003800 <dhcp_client+0x98>
 80037c0:	464c      	mov	r4, r9
 80037c2:	2044      	movs	r0, #68	; 0x44
 80037c4:	f7ff f8fa 	bl	80029bc <udp_unbind>
 80037c8:	2c00      	cmp	r4, #0
 80037ca:	f000 80be 	beq.w	800394a <dhcp_client+0x1e2>
 80037ce:	4963      	ldr	r1, [pc, #396]	; (800395c <dhcp_client+0x1f4>)
 80037d0:	2204      	movs	r2, #4
 80037d2:	a805      	add	r0, sp, #20
 80037d4:	f7ff ffbe 	bl	8003754 <memcpy.isra.0>
 80037d8:	9b05      	ldr	r3, [sp, #20]
 80037da:	4961      	ldr	r1, [pc, #388]	; (8003960 <dhcp_client+0x1f8>)
 80037dc:	603b      	str	r3, [r7, #0]
 80037de:	2204      	movs	r2, #4
 80037e0:	a805      	add	r0, sp, #20
 80037e2:	f7ff ffb7 	bl	8003754 <memcpy.isra.0>
 80037e6:	9b05      	ldr	r3, [sp, #20]
 80037e8:	60bb      	str	r3, [r7, #8]
 80037ea:	a805      	add	r0, sp, #20
 80037ec:	495d      	ldr	r1, [pc, #372]	; (8003964 <dhcp_client+0x1fc>)
 80037ee:	2204      	movs	r2, #4
 80037f0:	f7ff ffb0 	bl	8003754 <memcpy.isra.0>
 80037f4:	9b05      	ldr	r3, [sp, #20]
 80037f6:	607b      	str	r3, [r7, #4]
 80037f8:	2000      	movs	r0, #0
 80037fa:	b007      	add	sp, #28
 80037fc:	e8bd 8ff0 	ldmia.w	sp!, {r4, r5, r6, r7, r8, r9, sl, fp, pc}
 8003800:	f643 5301 	movw	r3, #15617	; 0x3d01
 8003804:	f240 1807 	movw	r8, #263	; 0x107
 8003808:	f8a4 30f2 	strh.w	r3, [r4, #242]	; 0xf2
 800380c:	f8a4 80f4 	strh.w	r8, [r4, #244]	; 0xf4
 8003810:	782b      	ldrb	r3, [r5, #0]
 8003812:	f884 30f6 	strb.w	r3, [r4, #246]	; 0xf6
 8003816:	786b      	ldrb	r3, [r5, #1]
 8003818:	f884 30f7 	strb.w	r3, [r4, #247]	; 0xf7
 800381c:	78ab      	ldrb	r3, [r5, #2]
 800381e:	f884 30f8 	strb.w	r3, [r4, #248]	; 0xf8
 8003822:	78eb      	ldrb	r3, [r5, #3]
 8003824:	f884 30f9 	strb.w	r3, [r4, #249]	; 0xf9
 8003828:	792b      	ldrb	r3, [r5, #4]
 800382a:	f884 30fa 	strb.w	r3, [r4, #250]	; 0xfa
 800382e:	796b      	ldrb	r3, [r5, #5]
 8003830:	f884 30fb 	strb.w	r3, [r4, #251]	; 0xfb
 8003834:	4a4c      	ldr	r2, [pc, #304]	; (8003968 <dhcp_client+0x200>)
 8003836:	4b4d      	ldr	r3, [pc, #308]	; (800396c <dhcp_client+0x204>)
 8003838:	e9c4 233f 	strd	r2, r3, [r4, #252]	; 0xfc
 800383c:	23ff      	movs	r3, #255	; 0xff
 800383e:	f884 3104 	strb.w	r3, [r4, #260]	; 0x104
 8003842:	fa5f fb86 	uxtb.w	fp, r6
 8003846:	2343      	movs	r3, #67	; 0x43
 8003848:	9300      	str	r3, [sp, #0]
 800384a:	f240 1205 	movw	r2, #261	; 0x105
 800384e:	f04f 33ff 	mov.w	r3, #4294967295	; 0xffffffff
 8003852:	4651      	mov	r1, sl
 8003854:	4658      	mov	r0, fp
 8003856:	f7ff f92d 	bl	8002ab4 <udp_send>
 800385a:	4629      	mov	r1, r5
 800385c:	4630      	mov	r0, r6
 800385e:	f7ff fec5 	bl	80035ec <_parse_response>
 8003862:	2802      	cmp	r0, #2
 8003864:	d1a9      	bne.n	80037ba <dhcp_client+0x52>
 8003866:	f643 5303 	movw	r3, #15619	; 0x3d03
 800386a:	f8a4 30f2 	strh.w	r3, [r4, #242]	; 0xf2
 800386e:	f8a4 80f4 	strh.w	r8, [r4, #244]	; 0xf4
 8003872:	782b      	ldrb	r3, [r5, #0]
 8003874:	f884 30f6 	strb.w	r3, [r4, #246]	; 0xf6
 8003878:	786b      	ldrb	r3, [r5, #1]
 800387a:	f884 30f7 	strb.w	r3, [r4, #247]	; 0xf7
 800387e:	78ab      	ldrb	r3, [r5, #2]
 8003880:	f884 30f8 	strb.w	r3, [r4, #248]	; 0xf8
 8003884:	78eb      	ldrb	r3, [r5, #3]
 8003886:	f884 30f9 	strb.w	r3, [r4, #249]	; 0xf9
 800388a:	792b      	ldrb	r3, [r5, #4]
 800388c:	f884 30fa 	strb.w	r3, [r4, #250]	; 0xfa
 8003890:	796b      	ldrb	r3, [r5, #5]
 8003892:	f884 30fb 	strb.w	r3, [r4, #251]	; 0xfb
 8003896:	f240 4332 	movw	r3, #1074	; 0x432
 800389a:	f8a4 30fc 	strh.w	r3, [r4, #252]	; 0xfc
 800389e:	4b2f      	ldr	r3, [pc, #188]	; (800395c <dhcp_client+0x1f4>)
 80038a0:	f8df c0d0 	ldr.w	ip, [pc, #208]	; 8003974 <dhcp_client+0x20c>
 80038a4:	881a      	ldrh	r2, [r3, #0]
 80038a6:	885b      	ldrh	r3, [r3, #2]
 80038a8:	f8a4 3100 	strh.w	r3, [r4, #256]	; 0x100
 80038ac:	f240 4336 	movw	r3, #1078	; 0x436
 80038b0:	f8a4 3102 	strh.w	r3, [r4, #258]	; 0x102
 80038b4:	4b2e      	ldr	r3, [pc, #184]	; (8003970 <dhcp_client+0x208>)
 80038b6:	f8a4 20fe 	strh.w	r2, [r4, #254]	; 0xfe
 80038ba:	681b      	ldr	r3, [r3, #0]
 80038bc:	f8c4 3104 	str.w	r3, [r4, #260]	; 0x104
 80038c0:	230c      	movs	r3, #12
 80038c2:	f8a4 3108 	strh.w	r3, [r4, #264]	; 0x108
 80038c6:	9b03      	ldr	r3, [sp, #12]
 80038c8:	221e      	movs	r2, #30
 80038ca:	1e58      	subs	r0, r3, #1
 80038cc:	f810 3f01 	ldrb.w	r3, [r0, #1]!
 80038d0:	f1a2 0e1e 	sub.w	lr, r2, #30
 80038d4:	1c51      	adds	r1, r2, #1
 80038d6:	bb8b      	cbnz	r3, 800393c <dhcp_client+0x1d4>
 80038d8:	18a3      	adds	r3, r4, r2
 80038da:	2037      	movs	r0, #55	; 0x37
 80038dc:	4421      	add	r1, r4
 80038de:	f883 00ec 	strb.w	r0, [r3, #236]	; 0xec
 80038e2:	2006      	movs	r0, #6
 80038e4:	f881 00ec 	strb.w	r0, [r1, #236]	; 0xec
 80038e8:	2103      	movs	r1, #3
 80038ea:	f883 10ef 	strb.w	r1, [r3, #239]	; 0xef
 80038ee:	210f      	movs	r1, #15
 80038f0:	f883 10f1 	strb.w	r1, [r3, #241]	; 0xf1
 80038f4:	213a      	movs	r1, #58	; 0x3a
 80038f6:	f883 10f2 	strb.w	r1, [r3, #242]	; 0xf2
 80038fa:	213b      	movs	r1, #59	; 0x3b
 80038fc:	f883 10f3 	strb.w	r1, [r3, #243]	; 0xf3
 8003900:	f04f 0801 	mov.w	r8, #1
 8003904:	21ff      	movs	r1, #255	; 0xff
 8003906:	f883 00f0 	strb.w	r0, [r3, #240]	; 0xf0
 800390a:	f883 10f4 	strb.w	r1, [r3, #244]	; 0xf4
 800390e:	f883 80ee 	strb.w	r8, [r3, #238]	; 0xee
 8003912:	32f5      	adds	r2, #245	; 0xf5
 8003914:	2343      	movs	r3, #67	; 0x43
 8003916:	f884 e109 	strb.w	lr, [r4, #265]	; 0x109
 800391a:	b292      	uxth	r2, r2
 800391c:	9300      	str	r3, [sp, #0]
 800391e:	4651      	mov	r1, sl
 8003920:	f04f 33ff 	mov.w	r3, #4294967295	; 0xffffffff
 8003924:	4658      	mov	r0, fp
 8003926:	f7ff f8c5 	bl	8002ab4 <udp_send>
 800392a:	4629      	mov	r1, r5
 800392c:	4630      	mov	r0, r6
 800392e:	f7ff fe5d 	bl	80035ec <_parse_response>
 8003932:	2805      	cmp	r0, #5
 8003934:	f47f af41 	bne.w	80037ba <dhcp_client+0x52>
 8003938:	4644      	mov	r4, r8
 800393a:	e742      	b.n	80037c2 <dhcp_client+0x5a>
 800393c:	f80c 3f01 	strb.w	r3, [ip, #1]!
 8003940:	460a      	mov	r2, r1
 8003942:	e7c3      	b.n	80038cc <dhcp_client+0x164>
 8003944:	f04f 30ff 	mov.w	r0, #4294967295	; 0xffffffff
 8003948:	e757      	b.n	80037fa <dhcp_client+0x92>
 800394a:	f06f 0001 	mvn.w	r0, #1
 800394e:	e754      	b.n	80037fa <dhcp_client+0x92>
 8003950:	20002f44 	andcs	r2, r0, r4, asr #30
 8003954:	20002f60 	andcs	r2, r0, r0, ror #30
 8003958:	63538263 	cmpvs	r3, #805306374	; 0x30000006
 800395c:	20002f3c 	andcs	r2, r0, ip, lsr pc
 8003960:	20002f38 	andcs	r2, r0, r8, lsr pc
 8003964:	20002f40 	andcs	r2, r0, r0, asr #30
 8003968:	03010637 	movweq	r0, #5687	; 0x1637
 800396c:	3b3a0f06 	blcc	8e8758c <__exidx_end+0xe80994>
 8003970:	20003168 	andcs	r3, r0, r8, ror #2
 8003974:	2000304d 	andcs	r3, r0, sp, asr #32

08003978 <dhcp_client_release>:
 8003978:	b507      	push	{r0, r1, r2, lr}
 800397a:	2044      	movs	r0, #68	; 0x44
 800397c:	f7ff f800 	bl	8002980 <udp_bind>
 8003980:	4912      	ldr	r1, [pc, #72]	; (80039cc <dhcp_client_release+0x54>)
 8003982:	f243 6307 	movw	r3, #13831	; 0x3607
 8003986:	f8a1 30f2 	strh.w	r3, [r1, #242]	; 0xf2
 800398a:	2304      	movs	r3, #4
 800398c:	f881 30f4 	strb.w	r3, [r1, #244]	; 0xf4
 8003990:	4b0f      	ldr	r3, [pc, #60]	; (80039d0 <dhcp_client_release+0x58>)
 8003992:	781a      	ldrb	r2, [r3, #0]
 8003994:	f881 20f5 	strb.w	r2, [r1, #245]	; 0xf5
 8003998:	785a      	ldrb	r2, [r3, #1]
 800399a:	f881 20f6 	strb.w	r2, [r1, #246]	; 0xf6
 800399e:	789a      	ldrb	r2, [r3, #2]
 80039a0:	78db      	ldrb	r3, [r3, #3]
 80039a2:	f881 30f8 	strb.w	r3, [r1, #248]	; 0xf8
 80039a6:	23ff      	movs	r3, #255	; 0xff
 80039a8:	f881 30f9 	strb.w	r3, [r1, #249]	; 0xf9
 80039ac:	2343      	movs	r3, #67	; 0x43
 80039ae:	f881 20f7 	strb.w	r2, [r1, #247]	; 0xf7
 80039b2:	b2c0      	uxtb	r0, r0
 80039b4:	9300      	str	r3, [sp, #0]
 80039b6:	22fa      	movs	r2, #250	; 0xfa
 80039b8:	f04f 33ff 	mov.w	r3, #4294967295	; 0xffffffff
 80039bc:	f7ff f87a 	bl	8002ab4 <udp_send>
 80039c0:	2044      	movs	r0, #68	; 0x44
 80039c2:	b003      	add	sp, #12
 80039c4:	f85d eb04 	ldr.w	lr, [sp], #4
 80039c8:	f7fe bff8 	b.w	80029bc <udp_unbind>
 80039cc:	20002f44 	andcs	r2, r0, r4, asr #30
 80039d0:	20003168 	andcs	r3, r0, r8, ror #2

080039d4 <memcpy.isra.0>:
 80039d4:	3801      	subs	r0, #1
 80039d6:	440a      	add	r2, r1
 80039d8:	4291      	cmp	r1, r2
 80039da:	d100      	bne.n	80039de <memcpy.isra.0+0xa>
 80039dc:	4770      	bx	lr
 80039de:	f811 3b01 	ldrb.w	r3, [r1], #1
 80039e2:	f800 3f01 	strb.w	r3, [r0, #1]!
 80039e6:	e7f7      	b.n	80039d8 <memcpy.isra.0+0x4>

080039e8 <_send_report>:
 80039e8:	b5f7      	push	{r0, r1, r2, r4, r5, r6, r7, lr}
 80039ea:	4c1d      	ldr	r4, [pc, #116]	; (8003a60 <_send_report+0x78>)
 80039ec:	9001      	str	r0, [sp, #4]
 80039ee:	f3c0 2306 	ubfx	r3, r0, #8, #7
 80039f2:	70e3      	strb	r3, [r4, #3]
 80039f4:	f104 0508 	add.w	r5, r4, #8
 80039f8:	f3c0 4307 	ubfx	r3, r0, #16, #8
 80039fc:	f3c0 6007 	ubfx	r0, r0, #24, #8
 8003a00:	7160      	strb	r0, [r4, #5]
 8003a02:	4621      	mov	r1, r4
 8003a04:	4628      	mov	r0, r5
 8003a06:	2206      	movs	r2, #6
 8003a08:	7123      	strb	r3, [r4, #4]
 8003a0a:	f7ff ffe3 	bl	80039d4 <memcpy.isra.0>
 8003a0e:	2204      	movs	r2, #4
 8003a10:	8f23      	ldrh	r3, [r4, #56]	; 0x38
 8003a12:	8363      	strh	r3, [r4, #26]
 8003a14:	eb0d 0102 	add.w	r1, sp, r2
 8003a18:	f104 0026 	add.w	r0, r4, #38	; 0x26
 8003a1c:	f104 0616 	add.w	r6, r4, #22
 8003a20:	f7ff ffd8 	bl	80039d4 <memcpy.isra.0>
 8003a24:	2700      	movs	r7, #0
 8003a26:	2118      	movs	r1, #24
 8003a28:	4630      	mov	r0, r6
 8003a2a:	8427      	strh	r7, [r4, #32]
 8003a2c:	f000 f88d 	bl	8003b4a <net_chksum>
 8003a30:	2204      	movs	r2, #4
 8003a32:	eb0d 0102 	add.w	r1, sp, r2
 8003a36:	8420      	strh	r0, [r4, #32]
 8003a38:	f104 0032 	add.w	r0, r4, #50	; 0x32
 8003a3c:	f7ff ffca 	bl	80039d4 <memcpy.isra.0>
 8003a40:	2120      	movs	r1, #32
 8003a42:	4630      	mov	r0, r6
 8003a44:	8627      	strh	r7, [r4, #48]	; 0x30
 8003a46:	f000 f880 	bl	8003b4a <net_chksum>
 8003a4a:	212e      	movs	r1, #46	; 0x2e
 8003a4c:	8620      	strh	r0, [r4, #48]	; 0x30
 8003a4e:	4628      	mov	r0, r5
 8003a50:	f001 f8a2 	bl	8004b98 <emac_eth_send>
 8003a54:	8f23      	ldrh	r3, [r4, #56]	; 0x38
 8003a56:	3301      	adds	r3, #1
 8003a58:	8723      	strh	r3, [r4, #56]	; 0x38
 8003a5a:	b003      	add	sp, #12
 8003a5c:	bdf0      	pop	{r4, r5, r6, r7, pc}
 8003a5e:	bf00      	nop
 8003a60:	10001328 	andne	r1, r0, r8, lsr #6

08003a64 <igmp_set_ip>:
 8003a64:	b513      	push	{r0, r1, r4, lr}
 8003a66:	4c09      	ldr	r4, [pc, #36]	; (8003a8c <igmp_set_ip+0x28>)
 8003a68:	6803      	ldr	r3, [r0, #0]
 8003a6a:	9301      	str	r3, [sp, #4]
 8003a6c:	2204      	movs	r2, #4
 8003a6e:	eb0d 0102 	add.w	r1, sp, r2
 8003a72:	f104 0022 	add.w	r0, r4, #34	; 0x22
 8003a76:	f7ff ffad 	bl	80039d4 <memcpy.isra.0>
 8003a7a:	2204      	movs	r2, #4
 8003a7c:	eb0d 0102 	add.w	r1, sp, r2
 8003a80:	f104 0056 	add.w	r0, r4, #86	; 0x56
 8003a84:	f7ff ffa6 	bl	80039d4 <memcpy.isra.0>
 8003a88:	b002      	add	sp, #8
 8003a8a:	bd10      	pop	{r4, pc}
 8003a8c:	10001328 	andne	r1, r0, r8, lsr #6

08003a90 <igmp_timer>:
 8003a90:	b538      	push	{r3, r4, r5, lr}
 8003a92:	4c0d      	ldr	r4, [pc, #52]	; (8003ac8 <igmp_timer+0x38>)
 8003a94:	2500      	movs	r5, #0
 8003a96:	f894 2071 	ldrb.w	r2, [r4, #113]	; 0x71
 8003a9a:	f894 3070 	ldrb.w	r3, [r4, #112]	; 0x70
 8003a9e:	b105      	cbz	r5, 8003aa2 <igmp_timer+0x12>
 8003aa0:	bd38      	pop	{r3, r4, r5, pc}
 8003aa2:	2a01      	cmp	r2, #1
 8003aa4:	d1fc      	bne.n	8003aa0 <igmp_timer+0x10>
 8003aa6:	2b00      	cmp	r3, #0
 8003aa8:	d0fa      	beq.n	8003aa0 <igmp_timer+0x10>
 8003aaa:	3b01      	subs	r3, #1
 8003aac:	f013 03ff 	ands.w	r3, r3, #255	; 0xff
 8003ab0:	4615      	mov	r5, r2
 8003ab2:	f884 3070 	strb.w	r3, [r4, #112]	; 0x70
 8003ab6:	d1f3      	bne.n	8003aa0 <igmp_timer+0x10>
 8003ab8:	6ee0      	ldr	r0, [r4, #108]	; 0x6c
 8003aba:	f7ff ff95 	bl	80039e8 <_send_report>
 8003abe:	2302      	movs	r3, #2
 8003ac0:	f884 3071 	strb.w	r3, [r4, #113]	; 0x71
 8003ac4:	e7e7      	b.n	8003a96 <igmp_timer+0x6>
 8003ac6:	bf00      	nop
 8003ac8:	10001328 	andne	r1, r0, r8, lsr #6

08003acc <igmp_leave>:
 8003acc:	b537      	push	{r0, r1, r2, r4, r5, lr}
 8003ace:	4c19      	ldr	r4, [pc, #100]	; (8003b34 <igmp_leave+0x68>)
 8003ad0:	6ee3      	ldr	r3, [r4, #108]	; 0x6c
 8003ad2:	4298      	cmp	r0, r3
 8003ad4:	d12b      	bne.n	8003b2e <igmp_leave+0x62>
 8003ad6:	8f23      	ldrh	r3, [r4, #56]	; 0x38
 8003ad8:	9001      	str	r0, [sp, #4]
 8003ada:	2500      	movs	r5, #0
 8003adc:	2118      	movs	r1, #24
 8003ade:	f104 0016 	add.w	r0, r4, #22
 8003ae2:	f8a4 304e 	strh.w	r3, [r4, #78]	; 0x4e
 8003ae6:	f8a4 5054 	strh.w	r5, [r4, #84]	; 0x54
 8003aea:	f000 f82e 	bl	8003b4a <net_chksum>
 8003aee:	2204      	movs	r2, #4
 8003af0:	eb0d 0102 	add.w	r1, sp, r2
 8003af4:	f8a4 0054 	strh.w	r0, [r4, #84]	; 0x54
 8003af8:	f104 0066 	add.w	r0, r4, #102	; 0x66
 8003afc:	f7ff ff6a 	bl	80039d4 <memcpy.isra.0>
 8003b00:	2120      	movs	r1, #32
 8003b02:	f104 004a 	add.w	r0, r4, #74	; 0x4a
 8003b06:	f8a4 5064 	strh.w	r5, [r4, #100]	; 0x64
 8003b0a:	f000 f81e 	bl	8003b4a <net_chksum>
 8003b0e:	212e      	movs	r1, #46	; 0x2e
 8003b10:	f8a4 0064 	strh.w	r0, [r4, #100]	; 0x64
 8003b14:	f104 003c 	add.w	r0, r4, #60	; 0x3c
 8003b18:	f001 f83e 	bl	8004b98 <emac_eth_send>
 8003b1c:	8f23      	ldrh	r3, [r4, #56]	; 0x38
 8003b1e:	66e5      	str	r5, [r4, #108]	; 0x6c
 8003b20:	3301      	adds	r3, #1
 8003b22:	8723      	strh	r3, [r4, #56]	; 0x38
 8003b24:	f8a4 5070 	strh.w	r5, [r4, #112]	; 0x70
 8003b28:	4628      	mov	r0, r5
 8003b2a:	b003      	add	sp, #12
 8003b2c:	bd30      	pop	{r4, r5, pc}
 8003b2e:	f04f 30ff 	mov.w	r0, #4294967295	; 0xffffffff
 8003b32:	e7fa      	b.n	8003b2a <igmp_leave+0x5e>
 8003b34:	10001328 	andne	r1, r0, r8, lsr #6

08003b38 <ip_set_ip>:
 8003b38:	b510      	push	{r4, lr}
 8003b3a:	4604      	mov	r4, r0
 8003b3c:	f7fe ff00 	bl	8002940 <udp_set_ip>
 8003b40:	4620      	mov	r0, r4
 8003b42:	e8bd 4010 	ldmia.w	sp!, {r4, lr}
 8003b46:	f7ff bf8d 	b.w	8003a64 <igmp_set_ip>

08003b4a <net_chksum>:
 8003b4a:	f021 0201 	bic.w	r2, r1, #1
 8003b4e:	b530      	push	{r4, r5, lr}
 8003b50:	2300      	movs	r3, #0
 8003b52:	1884      	adds	r4, r0, r2
 8003b54:	42a0      	cmp	r0, r4
 8003b56:	d10b      	bne.n	8003b70 <net_chksum+0x26>
 8003b58:	4291      	cmp	r1, r2
 8003b5a:	d004      	beq.n	8003b66 <net_chksum+0x1c>
 8003b5c:	7802      	ldrb	r2, [r0, #0]
 8003b5e:	0212      	lsls	r2, r2, #8
 8003b60:	ba52      	rev16	r2, r2
 8003b62:	fa13 f382 	uxtah	r3, r3, r2
 8003b66:	0c1a      	lsrs	r2, r3, #16
 8003b68:	d106      	bne.n	8003b78 <net_chksum+0x2e>
 8003b6a:	43d8      	mvns	r0, r3
 8003b6c:	b280      	uxth	r0, r0
 8003b6e:	bd30      	pop	{r4, r5, pc}
 8003b70:	f830 5b02 	ldrh.w	r5, [r0], #2
 8003b74:	442b      	add	r3, r5
 8003b76:	e7ed      	b.n	8003b54 <net_chksum+0xa>
 8003b78:	fa12 f383 	uxtah	r3, r2, r3
 8003b7c:	e7f3      	b.n	8003b66 <net_chksum+0x1c>

08003b7e <memcpy.isra.0>:
 8003b7e:	3801      	subs	r0, #1
 8003b80:	440a      	add	r2, r1
 8003b82:	4291      	cmp	r1, r2
 8003b84:	d100      	bne.n	8003b88 <memcpy.isra.0+0xa>
 8003b86:	4770      	bx	lr
 8003b88:	f811 3b01 	ldrb.w	r3, [r1], #1
 8003b8c:	f800 3f01 	strb.w	r3, [r0, #1]!
 8003b90:	e7f7      	b.n	8003b82 <memcpy.isra.0+0x4>

08003b92 <console_putc>:
 8003b92:	f000 baff 	b.w	8004194 <uart0_putc>

08003b96 <console_puts>:
 8003b96:	f000 bb17 	b.w	80041c8 <uart0_puts>
	...

08003b9c <console_set_fg_color>:
 8003b9c:	2807      	cmp	r0, #7
 8003b9e:	d810      	bhi.n	8003bc2 <console_set_fg_color+0x26>
 8003ba0:	e8df f000 	tbb	[pc, r0]
 8003ba4:	0b090704 	bleq	82457bc <__exidx_end+0x23ebc4>
 8003ba8:	0d0f0f0f 	stceq	15, cr0, [pc, #-60]	; 8003b74 <net_chksum+0x2a>
 8003bac:	4806      	ldr	r0, [pc, #24]	; (8003bc8 <console_set_fg_color+0x2c>)
 8003bae:	f000 bb0b 	b.w	80041c8 <uart0_puts>
 8003bb2:	4806      	ldr	r0, [pc, #24]	; (8003bcc <console_set_fg_color+0x30>)
 8003bb4:	e7fb      	b.n	8003bae <console_set_fg_color+0x12>
 8003bb6:	4806      	ldr	r0, [pc, #24]	; (8003bd0 <console_set_fg_color+0x34>)
 8003bb8:	e7f9      	b.n	8003bae <console_set_fg_color+0x12>
 8003bba:	4806      	ldr	r0, [pc, #24]	; (8003bd4 <console_set_fg_color+0x38>)
 8003bbc:	e7f7      	b.n	8003bae <console_set_fg_color+0x12>
 8003bbe:	4806      	ldr	r0, [pc, #24]	; (8003bd8 <console_set_fg_color+0x3c>)
 8003bc0:	e7f5      	b.n	8003bae <console_set_fg_color+0x12>
 8003bc2:	4806      	ldr	r0, [pc, #24]	; (8003bdc <console_set_fg_color+0x40>)
 8003bc4:	e7f3      	b.n	8003bae <console_set_fg_color+0x12>
 8003bc6:	bf00      	nop
 8003bc8:	08006b7c 	stmdaeq	r0, {r2, r3, r4, r5, r6, r8, r9, fp, sp, lr}
 8003bcc:	08006b82 	stmdaeq	r0, {r1, r7, r8, r9, fp, sp, lr}
 8003bd0:	08006b88 	stmdaeq	r0, {r3, r7, r8, r9, fp, sp, lr}
 8003bd4:	08006b8e 	stmdaeq	r0, {r1, r2, r3, r7, r8, r9, fp, sp, lr}
 8003bd8:	08006b70 	stmdaeq	r0, {r4, r5, r6, r8, r9, fp, sp, lr}
 8003bdc:	08006b94 	stmdaeq	r0, {r2, r4, r7, r8, r9, fp, sp, lr}

08003be0 <console_error>:
 8003be0:	b510      	push	{r4, lr}
 8003be2:	4604      	mov	r4, r0
 8003be4:	4805      	ldr	r0, [pc, #20]	; (8003bfc <console_error+0x1c>)
 8003be6:	f000 faef 	bl	80041c8 <uart0_puts>
 8003bea:	4620      	mov	r0, r4
 8003bec:	f000 faec 	bl	80041c8 <uart0_puts>
 8003bf0:	e8bd 4010 	ldmia.w	sp!, {r4, lr}
 8003bf4:	4802      	ldr	r0, [pc, #8]	; (8003c00 <console_error+0x20>)
 8003bf6:	f000 bae7 	b.w	80041c8 <uart0_puts>
 8003bfa:	bf00      	nop
 8003bfc:	08006b82 	stmdaeq	r0, {r1, r7, r8, r9, fp, sp, lr}
 8003c00:	08006b70 	stmdaeq	r0, {r4, r5, r6, r8, r9, fp, sp, lr}

08003c04 <console_status>:
 8003c04:	b510      	push	{r4, lr}
 8003c06:	b280      	uxth	r0, r0
 8003c08:	460c      	mov	r4, r1
 8003c0a:	f7ff ffc7 	bl	8003b9c <console_set_fg_color>
 8003c0e:	4807      	ldr	r0, [pc, #28]	; (8003c2c <console_status+0x28>)
 8003c10:	f000 fada 	bl	80041c8 <uart0_puts>
 8003c14:	4620      	mov	r0, r4
 8003c16:	f000 fad7 	bl	80041c8 <uart0_puts>
 8003c1a:	200a      	movs	r0, #10
 8003c1c:	f000 faba 	bl	8004194 <uart0_putc>
 8003c20:	e8bd 4010 	ldmia.w	sp!, {r4, lr}
 8003c24:	4802      	ldr	r0, [pc, #8]	; (8003c30 <console_status+0x2c>)
 8003c26:	f000 bacf 	b.w	80041c8 <uart0_puts>
 8003c2a:	bf00      	nop
 8003c2c:	08006b76 	stmdaeq	r0, {r1, r2, r4, r5, r6, r8, r9, fp, sp, lr}
 8003c30:	08006b70 	stmdaeq	r0, {r4, r5, r6, r8, r9, fp, sp, lr}

08003c34 <FirmwareVersion::FirmwareVersion(char const*, char const*, char const*)>:
 8003c34:	e92d 41f0 	stmdb	sp!, {r4, r5, r6, r7, r8, lr}
 8003c38:	4d15      	ldr	r5, [pc, #84]	; (8003c90 <FirmwareVersion::FirmwareVersion(char const*, char const*, char const*)+0x5c>)
 8003c3a:	461e      	mov	r6, r3
 8003c3c:	4b15      	ldr	r3, [pc, #84]	; (8003c94 <FirmwareVersion::FirmwareVersion(char const*, char const*, char const*)+0x60>)
 8003c3e:	b086      	sub	sp, #24
 8003c40:	6018      	str	r0, [r3, #0]
 8003c42:	4604      	mov	r4, r0
 8003c44:	4617      	mov	r7, r2
 8003c46:	f105 0803 	add.w	r8, r5, #3
 8003c4a:	2203      	movs	r2, #3
 8003c4c:	4628      	mov	r0, r5
 8003c4e:	f000 f991 	bl	8003f74 <memmove>
 8003c52:	4639      	mov	r1, r7
 8003c54:	220b      	movs	r2, #11
 8003c56:	4640      	mov	r0, r8
 8003c58:	f000 f98c 	bl	8003f74 <memmove>
 8003c5c:	f105 030e 	add.w	r3, r5, #14
 8003c60:	4631      	mov	r1, r6
 8003c62:	2208      	movs	r2, #8
 8003c64:	4618      	mov	r0, r3
 8003c66:	f000 f985 	bl	8003f74 <memmove>
 8003c6a:	2308      	movs	r3, #8
 8003c6c:	e9cd 8303 	strd	r8, r3, [sp, #12]
 8003c70:	230b      	movs	r3, #11
 8003c72:	9302      	str	r3, [sp, #8]
 8003c74:	4b08      	ldr	r3, [pc, #32]	; (8003c98 <FirmwareVersion::FirmwareVersion(char const*, char const*, char const*)+0x64>)
 8003c76:	9005      	str	r0, [sp, #20]
 8003c78:	e9cd 5300 	strd	r5, r3, [sp]
 8003c7c:	4a07      	ldr	r2, [pc, #28]	; (8003c9c <FirmwareVersion::FirmwareVersion(char const*, char const*, char const*)+0x68>)
 8003c7e:	4808      	ldr	r0, [pc, #32]	; (8003ca0 <FirmwareVersion::FirmwareVersion(char const*, char const*, char const*)+0x6c>)
 8003c80:	2303      	movs	r3, #3
 8003c82:	213f      	movs	r1, #63	; 0x3f
 8003c84:	f7fd f998 	bl	8000fb8 <snprintf>
 8003c88:	4620      	mov	r0, r4
 8003c8a:	b006      	add	sp, #24
 8003c8c:	e8bd 81f0 	ldmia.w	sp!, {r4, r5, r6, r7, r8, pc}
 8003c90:	2000316c 	andcs	r3, r0, ip, ror #2
 8003c94:	200031c4 	andcs	r3, r0, r4, asr #3
 8003c98:	080069ad 	stmdaeq	r0, {r0, r2, r3, r5, r7, r8, fp, sp, lr}
 8003c9c:	08006b9a 	stmdaeq	r0, {r1, r3, r4, r7, r8, r9, fp, sp, lr}
 8003ca0:	20003182 	andcs	r3, r0, r2, lsl #3

08003ca4 <FirmwareVersion::Print(char const*)>:
 8003ca4:	b510      	push	{r4, lr}
 8003ca6:	4805      	ldr	r0, [pc, #20]	; (8003cbc <FirmwareVersion::Print(char const*)+0x18>)
 8003ca8:	460c      	mov	r4, r1
 8003caa:	f000 f99b 	bl	8003fe4 <puts>
 8003cae:	b124      	cbz	r4, 8003cba <FirmwareVersion::Print(char const*)+0x16>
 8003cb0:	4620      	mov	r0, r4
 8003cb2:	e8bd 4010 	ldmia.w	sp!, {r4, lr}
 8003cb6:	f000 b995 	b.w	8003fe4 <puts>
 8003cba:	bd10      	pop	{r4, pc}
 8003cbc:	20003182 	andcs	r3, r0, r2, lsl #3

08003cc0 <LedBlink::LedBlink()>:
 8003cc0:	b538      	push	{r3, r4, r5, lr}
 8003cc2:	2500      	movs	r5, #0
 8003cc4:	2305      	movs	r3, #5
 8003cc6:	e9c0 5300 	strd	r5, r3, [r0]
 8003cca:	f44f 73fa 	mov.w	r3, #500	; 0x1f4
 8003cce:	e9c0 3503 	strd	r3, r5, [r0, #12]
 8003cd2:	4b0d      	ldr	r3, [pc, #52]	; (8003d08 <LedBlink::LedBlink()+0x48>)
 8003cd4:	6085      	str	r5, [r0, #8]
 8003cd6:	4604      	mov	r4, r0
 8003cd8:	6145      	str	r5, [r0, #20]
 8003cda:	6018      	str	r0, [r3, #0]
 8003cdc:	f640 4002 	movw	r0, #3074	; 0xc02
 8003ce0:	f000 fcc6 	bl	8004670 <rcu_periph_clock_enable>
 8003ce4:	2301      	movs	r3, #1
 8003ce6:	462a      	mov	r2, r5
 8003ce8:	4619      	mov	r1, r3
 8003cea:	4808      	ldr	r0, [pc, #32]	; (8003d0c <LedBlink::LedBlink()+0x4c>)
 8003cec:	f000 fc3e 	bl	800456c <gpio_mode_set>
 8003cf0:	4806      	ldr	r0, [pc, #24]	; (8003d0c <LedBlink::LedBlink()+0x4c>)
 8003cf2:	2301      	movs	r3, #1
 8003cf4:	2202      	movs	r2, #2
 8003cf6:	4629      	mov	r1, r5
 8003cf8:	f000 fc58 	bl	80045ac <gpio_output_options_set>
 8003cfc:	4b04      	ldr	r3, [pc, #16]	; (8003d10 <LedBlink::LedBlink()+0x50>)
 8003cfe:	2201      	movs	r2, #1
 8003d00:	f8c3 2828 	str.w	r2, [r3, #2088]	; 0x828
 8003d04:	4620      	mov	r0, r4
 8003d06:	bd38      	pop	{r3, r4, r5, pc}
 8003d08:	200031c8 	andcs	r3, r0, r8, asr #3
 8003d0c:	40020800 	andmi	r0, r2, r0, lsl #16
 8003d10:	40020000 	andmi	r0, r2, r0

08003d14 <LedBlink::SetMode(ledblink::Mode)>:
 8003d14:	6843      	ldr	r3, [r0, #4]
 8003d16:	428b      	cmp	r3, r1
 8003d18:	d02b      	beq.n	8003d72 <LedBlink::SetMode(ledblink::Mode)+0x5e>
 8003d1a:	6041      	str	r1, [r0, #4]
 8003d1c:	2904      	cmp	r1, #4
 8003d1e:	d820      	bhi.n	8003d62 <LedBlink::SetMode(ledblink::Mode)+0x4e>
 8003d20:	e8df f001 	tbb	[pc, r1]
 8003d24:	1610031f 			; <UNDEFINED> instruction: 0x1610031f
 8003d28:	23ff001b 	mvnscs	r0, #27
 8003d2c:	6003      	str	r3, [r0, #0]
 8003d2e:	2300      	movs	r3, #0
 8003d30:	60c3      	str	r3, [r0, #12]
 8003d32:	4b10      	ldr	r3, [pc, #64]	; (8003d74 <LedBlink::SetMode(ledblink::Mode)+0x60>)
 8003d34:	2201      	movs	r2, #1
 8003d36:	f8c3 2818 	str.w	r2, [r3, #2072]	; 0x818
 8003d3a:	6880      	ldr	r0, [r0, #8]
 8003d3c:	b1c8      	cbz	r0, 8003d72 <LedBlink::SetMode(ledblink::Mode)+0x5e>
 8003d3e:	6803      	ldr	r3, [r0, #0]
 8003d40:	689b      	ldr	r3, [r3, #8]
 8003d42:	4718      	bx	r3
 8003d44:	2301      	movs	r3, #1
 8003d46:	6003      	str	r3, [r0, #0]
 8003d48:	f44f 737a 	mov.w	r3, #1000	; 0x3e8
 8003d4c:	60c3      	str	r3, [r0, #12]
 8003d4e:	e7f4      	b.n	8003d3a <LedBlink::SetMode(ledblink::Mode)+0x26>
 8003d50:	2303      	movs	r3, #3
 8003d52:	6003      	str	r3, [r0, #0]
 8003d54:	f240 134d 	movw	r3, #333	; 0x14d
 8003d58:	e7f8      	b.n	8003d4c <LedBlink::SetMode(ledblink::Mode)+0x38>
 8003d5a:	2305      	movs	r3, #5
 8003d5c:	6003      	str	r3, [r0, #0]
 8003d5e:	23c8      	movs	r3, #200	; 0xc8
 8003d60:	e7f4      	b.n	8003d4c <LedBlink::SetMode(ledblink::Mode)+0x38>
 8003d62:	2300      	movs	r3, #0
 8003d64:	6003      	str	r3, [r0, #0]
 8003d66:	60c3      	str	r3, [r0, #12]
 8003d68:	4b02      	ldr	r3, [pc, #8]	; (8003d74 <LedBlink::SetMode(ledblink::Mode)+0x60>)
 8003d6a:	2201      	movs	r2, #1
 8003d6c:	f8c3 2828 	str.w	r2, [r3, #2088]	; 0x828
 8003d70:	e7e3      	b.n	8003d3a <LedBlink::SetMode(ledblink::Mode)+0x26>
 8003d72:	4770      	bx	lr
 8003d74:	40020000 	andmi	r0, r2, r0

08003d78 <Hardware::Hardware()>:
 8003d78:	b530      	push	{r4, r5, lr}
 8003d7a:	4b31      	ldr	r3, [pc, #196]	; (8003e40 <Hardware::Hardware()+0xc8>)
 8003d7c:	2400      	movs	r4, #0
 8003d7e:	b091      	sub	sp, #68	; 0x44
 8003d80:	7004      	strb	r4, [r0, #0]
 8003d82:	6018      	str	r0, [r3, #0]
 8003d84:	4605      	mov	r5, r0
 8003d86:	f7fc fbb9 	bl	80004fc <console_init>
 8003d8a:	f04f 7080 	mov.w	r0, #16777216	; 0x1000000
 8003d8e:	f000 fc9b 	bl	80046c8 <rcu_timer_clock_prescaler_config>
 8003d92:	f000 fa29 	bl	80041e8 <systick_config>
 8003d96:	f001 fab5 	bl	8005304 <udelay_init()>
 8003d9a:	f001 fa93 	bl	80052c4 <micros_init()>
 8003d9e:	f241 001c 	movw	r0, #4124	; 0x101c
 8003da2:	f000 fc65 	bl	8004670 <rcu_periph_clock_enable>
 8003da6:	f44f 7000 	mov.w	r0, #512	; 0x200
 8003daa:	f000 fc4d 	bl	8004648 <pmu_backup_ldo_config>
 8003dae:	f640 4012 	movw	r0, #3090	; 0xc12
 8003db2:	f000 fc5d 	bl	8004670 <rcu_periph_clock_enable>
 8003db6:	f000 fc53 	bl	8004660 <pmu_backup_write_enable>
 8003dba:	4621      	mov	r1, r4
 8003dbc:	2001      	movs	r0, #1
 8003dbe:	f000 feed 	bl	8004b9c <bkp_data_write(bkp_data_register_enum, unsigned short)>
 8003dc2:	4a20      	ldr	r2, [pc, #128]	; (8003e44 <Hardware::Hardware()+0xcc>)
 8003dc4:	4b20      	ldr	r3, [pc, #128]	; (8003e48 <Hardware::Hardware()+0xd0>)
 8003dc6:	1a9b      	subs	r3, r3, r2
 8003dc8:	3b01      	subs	r3, #1
 8003dca:	d232      	bcs.n	8003e32 <Hardware::Hardware()+0xba>
 8003dcc:	4b1f      	ldr	r3, [pc, #124]	; (8003e4c <Hardware::Hardware()+0xd4>)
 8003dce:	4c20      	ldr	r4, [pc, #128]	; (8003e50 <Hardware::Hardware()+0xd8>)
 8003dd0:	2200      	movs	r2, #0
 8003dd2:	1ae4      	subs	r4, r4, r3
 8003dd4:	3c01      	subs	r4, #1
 8003dd6:	d22f      	bcs.n	8003e38 <Hardware::Hardware()+0xc0>
 8003dd8:	f241 0004 	movw	r0, #4100	; 0x1004
 8003ddc:	f000 fc48 	bl	8004670 <rcu_periph_clock_enable>
 8003de0:	481c      	ldr	r0, [pc, #112]	; (8003e54 <Hardware::Hardware()+0xdc>)
 8003de2:	f000 fcf5 	bl	80047d0 <timer_deinit>
 8003de6:	a903      	add	r1, sp, #12
 8003de8:	23a7      	movs	r3, #167	; 0xa7
 8003dea:	481a      	ldr	r0, [pc, #104]	; (8003e54 <Hardware::Hardware()+0xdc>)
 8003dec:	f8ad 300c 	strh.w	r3, [sp, #12]
 8003df0:	9405      	str	r4, [sp, #20]
 8003df2:	f000 fd93 	bl	800491c <timer_init>
 8003df6:	4817      	ldr	r0, [pc, #92]	; (8003e54 <Hardware::Hardware()+0xdc>)
 8003df8:	f000 fdce 	bl	8004998 <timer_enable>
 8003dfc:	f000 fee0 	bl	8004bc0 <gd32_adc_init()>
 8003e00:	220a      	movs	r2, #10
 8003e02:	2309      	movs	r3, #9
 8003e04:	2400      	movs	r4, #0
 8003e06:	e9cd 230a 	strd	r2, r3, [sp, #40]	; 0x28
 8003e0a:	a807      	add	r0, sp, #28
 8003e0c:	237a      	movs	r3, #122	; 0x7a
 8003e0e:	930c      	str	r3, [sp, #48]	; 0x30
 8003e10:	e9cd 4408 	strd	r4, r4, [sp, #32]
 8003e14:	9407      	str	r4, [sp, #28]
 8003e16:	940f      	str	r4, [sp, #60]	; 0x3c
 8003e18:	f000 f912 	bl	8004040 <mktime>
 8003e1c:	4621      	mov	r1, r4
 8003e1e:	e9cd 0401 	strd	r0, r4, [sp, #4]
 8003e22:	a801      	add	r0, sp, #4
 8003e24:	f000 f982 	bl	800412c <settimeofday>
 8003e28:	f000 ff2a 	bl	8004c80 <gd32_i2c_begin>
 8003e2c:	4628      	mov	r0, r5
 8003e2e:	b011      	add	sp, #68	; 0x44
 8003e30:	bd30      	pop	{r4, r5, pc}
 8003e32:	f802 4b01 	strb.w	r4, [r2], #1
 8003e36:	e7c7      	b.n	8003dc8 <Hardware::Hardware()+0x50>
 8003e38:	f803 2b01 	strb.w	r2, [r3], #1
 8003e3c:	e7ca      	b.n	8003dd4 <Hardware::Hardware()+0x5c>
 8003e3e:	bf00      	nop
 8003e40:	200031cc 	andcs	r3, r0, ip, asr #3
 8003e44:	10000000 	andne	r0, r0, r0
 8003e48:	100013a0 	andne	r1, r0, r0, lsr #7
 8003e4c:	20030000 	andcs	r0, r3, r0
 8003e50:	20030000 	andcs	r0, r3, r0
 8003e54:	40001000 	andmi	r1, r0, r0

08003e58 <Hardware::Reboot()>:
 8003e58:	b508      	push	{r3, lr}
 8003e5a:	2300      	movs	r3, #0
 8003e5c:	7003      	strb	r3, [r0, #0]
 8003e5e:	4604      	mov	r4, r0
 8003e60:	2104      	movs	r1, #4
 8003e62:	f64f 70ff 	movw	r0, #65535	; 0xffff
 8003e66:	f000 fb57 	bl	8004518 <fwdgt_config>
 8003e6a:	4620      	mov	r0, r4
 8003e6c:	f7fc fce5 	bl	800083a <Hardware::RebootHandler()>
 8003e70:	2102      	movs	r1, #2
 8003e72:	f64f 70ff 	movw	r0, #65535	; 0xffff
 8003e76:	f000 fb4f 	bl	8004518 <fwdgt_config>
 8003e7a:	2801      	cmp	r0, #1
 8003e7c:	bf0c      	ite	eq
 8003e7e:	2301      	moveq	r3, #1
 8003e80:	2300      	movne	r3, #0
 8003e82:	7023      	strb	r3, [r4, #0]
 8003e84:	d101      	bne.n	8003e8a <Hardware::Reboot()+0x32>
 8003e86:	f000 fb37 	bl	80044f8 <fwdgt_enable>
 8003e8a:	4b0f      	ldr	r3, [pc, #60]	; (8003ec8 <Hardware::Reboot()+0x70>)
 8003e8c:	480f      	ldr	r0, [pc, #60]	; (8003ecc <Hardware::Reboot()+0x74>)
 8003e8e:	681b      	ldr	r3, [r3, #0]
 8003e90:	490f      	ldr	r1, [pc, #60]	; (8003ed0 <Hardware::Reboot()+0x78>)
 8003e92:	2208      	movs	r2, #8
 8003e94:	601a      	str	r2, [r3, #0]
 8003e96:	227d      	movs	r2, #125	; 0x7d
 8003e98:	60da      	str	r2, [r3, #12]
 8003e9a:	2501      	movs	r5, #1
 8003e9c:	68dc      	ldr	r4, [r3, #12]
 8003e9e:	b904      	cbnz	r4, 8003ea2 <Hardware::Reboot()+0x4a>
 8003ea0:	e7fe      	b.n	8003ea0 <Hardware::Reboot()+0x48>
 8003ea2:	6802      	ldr	r2, [r0, #0]
 8003ea4:	695e      	ldr	r6, [r3, #20]
 8003ea6:	1b92      	subs	r2, r2, r6
 8003ea8:	4294      	cmp	r4, r2
 8003eaa:	d8f8      	bhi.n	8003e9e <Hardware::Reboot()+0x46>
 8003eac:	6802      	ldr	r2, [r0, #0]
 8003eae:	615a      	str	r2, [r3, #20]
 8003eb0:	691a      	ldr	r2, [r3, #16]
 8003eb2:	2a01      	cmp	r2, #1
 8003eb4:	f082 0401 	eor.w	r4, r2, #1
 8003eb8:	611c      	str	r4, [r3, #16]
 8003eba:	bf14      	ite	ne
 8003ebc:	f8c1 5818 	strne.w	r5, [r1, #2072]	; 0x818
 8003ec0:	f8c1 2828 	streq.w	r2, [r1, #2088]	; 0x828
 8003ec4:	e7ea      	b.n	8003e9c <Hardware::Reboot()+0x44>
 8003ec6:	bf00      	nop
 8003ec8:	200031c8 	andcs	r3, r0, r8, asr #3
 8003ecc:	200031dc 	ldrdcs	r3, [r0], -ip
 8003ed0:	40020000 	andmi	r0, r2, r0

08003ed4 <operator delete(void*)>:
 8003ed4:	f000 b834 	b.w	8003f40 <free>

08003ed8 <operator delete[](void*)>:
 8003ed8:	f000 b832 	b.w	8003f40 <free>

08003edc <operator new(unsigned int)>:
 8003edc:	f000 b802 	b.w	8003ee4 <malloc>

08003ee0 <operator new[](unsigned int)>:
 8003ee0:	f000 b800 	b.w	8003ee4 <malloc>

08003ee4 <malloc>:
 8003ee4:	b510      	push	{r4, lr}
 8003ee6:	b1d8      	cbz	r0, 8003f20 <malloc+0x3c>
 8003ee8:	4a11      	ldr	r2, [pc, #68]	; (8003f30 <malloc+0x4c>)
 8003eea:	6811      	ldr	r1, [r2, #0]
 8003eec:	b971      	cbnz	r1, 8003f0c <malloc+0x28>
 8003eee:	4911      	ldr	r1, [pc, #68]	; (8003f34 <malloc+0x50>)
 8003ef0:	4c11      	ldr	r4, [pc, #68]	; (8003f38 <malloc+0x54>)
 8003ef2:	680b      	ldr	r3, [r1, #0]
 8003ef4:	f100 021b 	add.w	r2, r0, #27
 8003ef8:	f022 020f 	bic.w	r2, r2, #15
 8003efc:	441a      	add	r2, r3
 8003efe:	42a2      	cmp	r2, r4
 8003f00:	d80f      	bhi.n	8003f22 <malloc+0x3e>
 8003f02:	600a      	str	r2, [r1, #0]
 8003f04:	4a0d      	ldr	r2, [pc, #52]	; (8003f3c <malloc+0x58>)
 8003f06:	e9c3 2000 	strd	r2, r0, [r3]
 8003f0a:	e005      	b.n	8003f18 <malloc+0x34>
 8003f0c:	4288      	cmp	r0, r1
 8003f0e:	d90a      	bls.n	8003f26 <malloc+0x42>
 8003f10:	3208      	adds	r2, #8
 8003f12:	e7ea      	b.n	8003eea <malloc+0x6>
 8003f14:	6899      	ldr	r1, [r3, #8]
 8003f16:	6051      	str	r1, [r2, #4]
 8003f18:	2200      	movs	r2, #0
 8003f1a:	609a      	str	r2, [r3, #8]
 8003f1c:	f103 000c 	add.w	r0, r3, #12
 8003f20:	bd10      	pop	{r4, pc}
 8003f22:	2000      	movs	r0, #0
 8003f24:	e7fc      	b.n	8003f20 <malloc+0x3c>
 8003f26:	6853      	ldr	r3, [r2, #4]
 8003f28:	2b00      	cmp	r3, #0
 8003f2a:	d1f3      	bne.n	8003f14 <malloc+0x30>
 8003f2c:	4608      	mov	r0, r1
 8003f2e:	e7de      	b.n	8003eee <malloc+0xa>
 8003f30:	2000000c 	andcs	r0, r0, ip
 8003f34:	20000008 	andcs	r0, r0, r8
 8003f38:	20020000 	andcs	r0, r2, r0
 8003f3c:	424c4d43 	submi	r4, ip, #4288	; 0x10c0

08003f40 <free>:
 8003f40:	b138      	cbz	r0, 8003f52 <free+0x12>
 8003f42:	f850 2c0c 	ldr.w	r2, [r0, #-12]
 8003f46:	4b09      	ldr	r3, [pc, #36]	; (8003f6c <free+0x2c>)
 8003f48:	429a      	cmp	r2, r3
 8003f4a:	d102      	bne.n	8003f52 <free+0x12>
 8003f4c:	4b08      	ldr	r3, [pc, #32]	; (8003f70 <free+0x30>)
 8003f4e:	681a      	ldr	r2, [r3, #0]
 8003f50:	b902      	cbnz	r2, 8003f54 <free+0x14>
 8003f52:	4770      	bx	lr
 8003f54:	f850 1c08 	ldr.w	r1, [r0, #-8]
 8003f58:	4291      	cmp	r1, r2
 8003f5a:	d105      	bne.n	8003f68 <free+0x28>
 8003f5c:	685a      	ldr	r2, [r3, #4]
 8003f5e:	f840 2c04 	str.w	r2, [r0, #-4]
 8003f62:	380c      	subs	r0, #12
 8003f64:	6058      	str	r0, [r3, #4]
 8003f66:	4770      	bx	lr
 8003f68:	3308      	adds	r3, #8
 8003f6a:	e7f0      	b.n	8003f4e <free+0xe>
 8003f6c:	424c4d43 	submi	r4, ip, #4288	; 0x10c0
 8003f70:	2000000c 	andcs	r0, r0, ip

08003f74 <memmove>:
 8003f74:	4288      	cmp	r0, r1
 8003f76:	b510      	push	{r4, lr}
 8003f78:	eb01 0302 	add.w	r3, r1, r2
 8003f7c:	d208      	bcs.n	8003f90 <memmove+0x1c>
 8003f7e:	1e42      	subs	r2, r0, #1
 8003f80:	4299      	cmp	r1, r3
 8003f82:	d100      	bne.n	8003f86 <memmove+0x12>
 8003f84:	bd10      	pop	{r4, pc}
 8003f86:	f811 4b01 	ldrb.w	r4, [r1], #1
 8003f8a:	f802 4f01 	strb.w	r4, [r2, #1]!
 8003f8e:	e7f7      	b.n	8003f80 <memmove+0xc>
 8003f90:	4402      	add	r2, r0
 8003f92:	4601      	mov	r1, r0
 8003f94:	428a      	cmp	r2, r1
 8003f96:	d0f5      	beq.n	8003f84 <memmove+0x10>
 8003f98:	f813 4d01 	ldrb.w	r4, [r3, #-1]!
 8003f9c:	f802 4d01 	strb.w	r4, [r2, #-1]!
 8003fa0:	e7f8      	b.n	8003f94 <memmove+0x20>

08003fa2 <memset>:
 8003fa2:	b5f0      	push	{r4, r5, r6, r7, lr}
 8003fa4:	b1c2      	cbz	r2, 8003fd8 <memset+0x36>
 8003fa6:	b2c9      	uxtb	r1, r1
 8003fa8:	4603      	mov	r3, r0
 8003faa:	075c      	lsls	r4, r3, #29
 8003fac:	d110      	bne.n	8003fd0 <memset+0x2e>
 8003fae:	ea41 2401 	orr.w	r4, r1, r1, lsl #8
 8003fb2:	ea44 4704 	orr.w	r7, r4, r4, lsl #16
 8003fb6:	f022 0407 	bic.w	r4, r2, #7
 8003fba:	463d      	mov	r5, r7
 8003fbc:	441c      	add	r4, r3
 8003fbe:	461e      	mov	r6, r3
 8003fc0:	42a6      	cmp	r6, r4
 8003fc2:	d10a      	bne.n	8003fda <memset+0x38>
 8003fc4:	441a      	add	r2, r3
 8003fc6:	4294      	cmp	r4, r2
 8003fc8:	d006      	beq.n	8003fd8 <memset+0x36>
 8003fca:	f804 1b01 	strb.w	r1, [r4], #1
 8003fce:	e7fa      	b.n	8003fc6 <memset+0x24>
 8003fd0:	3a01      	subs	r2, #1
 8003fd2:	f803 1b01 	strb.w	r1, [r3], #1
 8003fd6:	d1e8      	bne.n	8003faa <memset+0x8>
 8003fd8:	bdf0      	pop	{r4, r5, r6, r7, pc}
 8003fda:	f846 7b08 	str.w	r7, [r6], #8
 8003fde:	f846 5c04 	str.w	r5, [r6, #-4]
 8003fe2:	e7ed      	b.n	8003fc0 <memset+0x1e>

08003fe4 <puts>:
 8003fe4:	b508      	push	{r3, lr}
 8003fe6:	f7ff fdd6 	bl	8003b96 <console_puts>
 8003fea:	200a      	movs	r0, #10
 8003fec:	f7ff fdd1 	bl	8003b92 <console_putc>
 8003ff0:	2001      	movs	r0, #1
 8003ff2:	bd08      	pop	{r3, pc}

08003ff4 <isleapyear>:
 8003ff4:	2264      	movs	r2, #100	; 0x64
 8003ff6:	fb90 f3f2 	sdiv	r3, r0, r2
 8003ffa:	fb02 0313 	mls	r3, r2, r3, r0
 8003ffe:	b94b      	cbnz	r3, 8004014 <isleapyear+0x20>
 8004000:	f44f 73c8 	mov.w	r3, #400	; 0x190
 8004004:	fb90 f2f3 	sdiv	r2, r0, r3
 8004008:	fb03 0012 	mls	r0, r3, r2, r0
 800400c:	fab0 f080 	clz	r0, r0
 8004010:	0940      	lsrs	r0, r0, #5
 8004012:	4770      	bx	lr
 8004014:	f010 0f03 	tst.w	r0, #3
 8004018:	bf0c      	ite	eq
 800401a:	2001      	moveq	r0, #1
 800401c:	2000      	movne	r0, #0
 800401e:	4770      	bx	lr

08004020 <getdaysofmonth>:
 8004020:	b510      	push	{r4, lr}
 8004022:	4604      	mov	r4, r0
 8004024:	2c01      	cmp	r4, #1
 8004026:	4608      	mov	r0, r1
 8004028:	d102      	bne.n	8004030 <getdaysofmonth+0x10>
 800402a:	f7ff ffe3 	bl	8003ff4 <isleapyear>
 800402e:	b918      	cbnz	r0, 8004038 <getdaysofmonth+0x18>
 8004030:	4b02      	ldr	r3, [pc, #8]	; (800403c <getdaysofmonth+0x1c>)
 8004032:	f853 0024 	ldr.w	r0, [r3, r4, lsl #2]
 8004036:	bd10      	pop	{r4, pc}
 8004038:	201d      	movs	r0, #29
 800403a:	e7fc      	b.n	8004036 <getdaysofmonth+0x16>
 800403c:	08006bc0 	stmdaeq	r0, {r6, r7, r8, r9, fp, sp, lr}

08004040 <mktime>:
 8004040:	e92d 41f0 	stmdb	sp!, {r4, r5, r6, r7, r8, lr}
 8004044:	4604      	mov	r4, r0
 8004046:	2800      	cmp	r0, #0
 8004048:	d043      	beq.n	80040d2 <mktime+0x92>
 800404a:	6941      	ldr	r1, [r0, #20]
 800404c:	f1a1 0346 	sub.w	r3, r1, #70	; 0x46
 8004050:	2b45      	cmp	r3, #69	; 0x45
 8004052:	d83e      	bhi.n	80040d2 <mktime+0x92>
 8004054:	2600      	movs	r6, #0
 8004056:	f240 75b2 	movw	r5, #1970	; 0x7b2
 800405a:	f201 776b 	addw	r7, r1, #1899	; 0x76b
 800405e:	f240 186d 	movw	r8, #365	; 0x16d
 8004062:	42af      	cmp	r7, r5
 8004064:	da24      	bge.n	80040b0 <mktime+0x70>
 8004066:	6927      	ldr	r7, [r4, #16]
 8004068:	2f0b      	cmp	r7, #11
 800406a:	d832      	bhi.n	80040d2 <mktime+0x92>
 800406c:	2500      	movs	r5, #0
 800406e:	42af      	cmp	r7, r5
 8004070:	d129      	bne.n	80040c6 <mktime+0x86>
 8004072:	68e5      	ldr	r5, [r4, #12]
 8004074:	2d00      	cmp	r5, #0
 8004076:	dd2c      	ble.n	80040d2 <mktime+0x92>
 8004078:	4638      	mov	r0, r7
 800407a:	f7ff ffd1 	bl	8004020 <getdaysofmonth>
 800407e:	4285      	cmp	r5, r0
 8004080:	dc27      	bgt.n	80040d2 <mktime+0x92>
 8004082:	3d01      	subs	r5, #1
 8004084:	2318      	movs	r3, #24
 8004086:	4435      	add	r5, r6
 8004088:	435d      	muls	r5, r3
 800408a:	68a3      	ldr	r3, [r4, #8]
 800408c:	2b17      	cmp	r3, #23
 800408e:	d820      	bhi.n	80040d2 <mktime+0x92>
 8004090:	442b      	add	r3, r5
 8004092:	213c      	movs	r1, #60	; 0x3c
 8004094:	fb01 f203 	mul.w	r2, r1, r3
 8004098:	6863      	ldr	r3, [r4, #4]
 800409a:	2b3b      	cmp	r3, #59	; 0x3b
 800409c:	d819      	bhi.n	80040d2 <mktime+0x92>
 800409e:	6820      	ldr	r0, [r4, #0]
 80040a0:	4413      	add	r3, r2
 80040a2:	283b      	cmp	r0, #59	; 0x3b
 80040a4:	fb01 f303 	mul.w	r3, r1, r3
 80040a8:	d813      	bhi.n	80040d2 <mktime+0x92>
 80040aa:	4418      	add	r0, r3
 80040ac:	e8bd 81f0 	ldmia.w	sp!, {r4, r5, r6, r7, r8, pc}
 80040b0:	4628      	mov	r0, r5
 80040b2:	f7ff ff9f 	bl	8003ff4 <isleapyear>
 80040b6:	2800      	cmp	r0, #0
 80040b8:	bf14      	ite	ne
 80040ba:	f44f 73b7 	movne.w	r3, #366	; 0x16e
 80040be:	4643      	moveq	r3, r8
 80040c0:	441e      	add	r6, r3
 80040c2:	3501      	adds	r5, #1
 80040c4:	e7cd      	b.n	8004062 <mktime+0x22>
 80040c6:	4628      	mov	r0, r5
 80040c8:	f7ff ffaa 	bl	8004020 <getdaysofmonth>
 80040cc:	3501      	adds	r5, #1
 80040ce:	4406      	add	r6, r0
 80040d0:	e7cd      	b.n	800406e <mktime+0x2e>
 80040d2:	f04f 30ff 	mov.w	r0, #4294967295	; 0xffffffff
 80040d6:	e7e9      	b.n	80040ac <mktime+0x6c>

080040d8 <gettimeofday>:
 80040d8:	b538      	push	{r3, r4, r5, lr}
 80040da:	4a10      	ldr	r2, [pc, #64]	; (800411c <gettimeofday+0x44>)
 80040dc:	4b10      	ldr	r3, [pc, #64]	; (8004120 <gettimeofday+0x48>)
 80040de:	6814      	ldr	r4, [r2, #0]
 80040e0:	681b      	ldr	r3, [r3, #0]
 80040e2:	6013      	str	r3, [r2, #0]
 80040e4:	429c      	cmp	r4, r3
 80040e6:	bf2c      	ite	cs
 80040e8:	1ae4      	subcs	r4, r4, r3
 80040ea:	1b1c      	subcc	r4, r3, r4
 80040ec:	4b0d      	ldr	r3, [pc, #52]	; (8004124 <gettimeofday+0x4c>)
 80040ee:	f44f 727a 	mov.w	r2, #1000	; 0x3e8
 80040f2:	4354      	muls	r4, r2
 80040f4:	e9d3 2100 	ldrd	r2, r1, [r3]
 80040f8:	18a4      	adds	r4, r4, r2
 80040fa:	f141 0100 	adc.w	r1, r1, #0
 80040fe:	4605      	mov	r5, r0
 8004100:	e9c3 4100 	strd	r4, r1, [r3]
 8004104:	4a08      	ldr	r2, [pc, #32]	; (8004128 <gettimeofday+0x50>)
 8004106:	2300      	movs	r3, #0
 8004108:	4620      	mov	r0, r4
 800410a:	f7fc fb5f 	bl	80007cc <__aeabi_uldivmod>
 800410e:	4b06      	ldr	r3, [pc, #24]	; (8004128 <gettimeofday+0x50>)
 8004110:	6028      	str	r0, [r5, #0]
 8004112:	fb03 4410 	mls	r4, r3, r0, r4
 8004116:	606c      	str	r4, [r5, #4]
 8004118:	2000      	movs	r0, #0
 800411a:	bd38      	pop	{r3, r4, r5, pc}
 800411c:	200031d8 	ldrdcs	r3, [r0], -r8
 8004120:	200031dc 	ldrdcs	r3, [r0], -ip
 8004124:	200031d0 	ldrdcs	r3, [r0], -r0
 8004128:	000f4240 	andeq	r4, pc, r0, asr #4

0800412c <settimeofday>:
 800412c:	4b07      	ldr	r3, [pc, #28]	; (800414c <settimeofday+0x20>)
 800412e:	4908      	ldr	r1, [pc, #32]	; (8004150 <settimeofday+0x24>)
 8004130:	681a      	ldr	r2, [r3, #0]
 8004132:	4b08      	ldr	r3, [pc, #32]	; (8004154 <settimeofday+0x28>)
 8004134:	b510      	push	{r4, lr}
 8004136:	601a      	str	r2, [r3, #0]
 8004138:	6843      	ldr	r3, [r0, #4]
 800413a:	6804      	ldr	r4, [r0, #0]
 800413c:	4806      	ldr	r0, [pc, #24]	; (8004158 <settimeofday+0x2c>)
 800413e:	17da      	asrs	r2, r3, #31
 8004140:	fbc4 3200 	smlal	r3, r2, r4, r0
 8004144:	e9c1 3200 	strd	r3, r2, [r1]
 8004148:	2000      	movs	r0, #0
 800414a:	bd10      	pop	{r4, pc}
 800414c:	200031dc 	ldrdcs	r3, [r0], -ip
 8004150:	200031d0 	ldrdcs	r3, [r0], -r0
 8004154:	200031d8 	ldrdcs	r3, [r0], -r8
 8004158:	000f4240 	andeq	r4, pc, r0, asr #4

0800415c <time>:
 800415c:	b513      	push	{r0, r1, r4, lr}
 800415e:	4604      	mov	r4, r0
 8004160:	2100      	movs	r1, #0
 8004162:	4668      	mov	r0, sp
 8004164:	f7ff ffb8 	bl	80040d8 <gettimeofday>
 8004168:	9800      	ldr	r0, [sp, #0]
 800416a:	b104      	cbz	r4, 800416e <time+0x12>
 800416c:	6020      	str	r0, [r4, #0]
 800416e:	b002      	add	sp, #8
 8004170:	bd10      	pop	{r4, pc}
	...

08004174 <uart0_init>:
 8004174:	b507      	push	{r0, r1, r2, lr}
 8004176:	2301      	movs	r3, #1
 8004178:	9300      	str	r3, [sp, #0]
 800417a:	4805      	ldr	r0, [pc, #20]	; (8004190 <uart0_init+0x1c>)
 800417c:	2300      	movs	r3, #0
 800417e:	2208      	movs	r2, #8
 8004180:	f44f 31e1 	mov.w	r1, #115200	; 0x1c200
 8004184:	f001 f80e 	bl	80051a4 <gd32_uart_begin>
 8004188:	b003      	add	sp, #12
 800418a:	f85d fb04 	ldr.w	pc, [sp], #4
 800418e:	bf00      	nop
 8004190:	40011000 	andmi	r1, r1, r0

08004194 <uart0_putc>:
 8004194:	280a      	cmp	r0, #10
 8004196:	b570      	push	{r4, r5, r6, lr}
 8004198:	4d0a      	ldr	r5, [pc, #40]	; (80041c4 <uart0_putc+0x30>)
 800419a:	4604      	mov	r4, r0
 800419c:	d107      	bne.n	80041ae <uart0_putc+0x1a>
 800419e:	2107      	movs	r1, #7
 80041a0:	4628      	mov	r0, r5
 80041a2:	f000 fcd5 	bl	8004b50 <usart_flag_get>
 80041a6:	2800      	cmp	r0, #0
 80041a8:	d0f9      	beq.n	800419e <uart0_putc+0xa>
 80041aa:	230d      	movs	r3, #13
 80041ac:	606b      	str	r3, [r5, #4]
 80041ae:	4e05      	ldr	r6, [pc, #20]	; (80041c4 <uart0_putc+0x30>)
 80041b0:	2107      	movs	r1, #7
 80041b2:	4630      	mov	r0, r6
 80041b4:	f000 fccc 	bl	8004b50 <usart_flag_get>
 80041b8:	2800      	cmp	r0, #0
 80041ba:	d0f9      	beq.n	80041b0 <uart0_putc+0x1c>
 80041bc:	b2e4      	uxtb	r4, r4
 80041be:	606c      	str	r4, [r5, #4]
 80041c0:	bd70      	pop	{r4, r5, r6, pc}
 80041c2:	bf00      	nop
 80041c4:	40011000 	andmi	r1, r1, r0

080041c8 <uart0_puts>:
 80041c8:	b510      	push	{r4, lr}
 80041ca:	1e44      	subs	r4, r0, #1
 80041cc:	f814 3f01 	ldrb.w	r3, [r4, #1]!
 80041d0:	b903      	cbnz	r3, 80041d4 <uart0_puts+0xc>
 80041d2:	bd10      	pop	{r4, pc}
 80041d4:	2b0a      	cmp	r3, #10
 80041d6:	d102      	bne.n	80041de <uart0_puts+0x16>
 80041d8:	200d      	movs	r0, #13
 80041da:	f7ff ffdb 	bl	8004194 <uart0_putc>
 80041de:	7820      	ldrb	r0, [r4, #0]
 80041e0:	f7ff ffd8 	bl	8004194 <uart0_putc>
 80041e4:	e7f2      	b.n	80041cc <uart0_puts+0x4>
	...

080041e8 <systick_config>:
 80041e8:	4b0c      	ldr	r3, [pc, #48]	; (800421c <systick_config+0x34>)
 80041ea:	f44f 727a 	mov.w	r2, #1000	; 0x3e8
 80041ee:	681b      	ldr	r3, [r3, #0]
 80041f0:	fbb3 f3f2 	udiv	r3, r3, r2
 80041f4:	3b01      	subs	r3, #1
 80041f6:	f1b3 7f80 	cmp.w	r3, #16777216	; 0x1000000
 80041fa:	d20d      	bcs.n	8004218 <systick_config+0x30>
 80041fc:	f04f 22e0 	mov.w	r2, #3758153728	; 0xe000e000
 8004200:	21f0      	movs	r1, #240	; 0xf0
 8004202:	6153      	str	r3, [r2, #20]
 8004204:	4b06      	ldr	r3, [pc, #24]	; (8004220 <systick_config+0x38>)
 8004206:	2007      	movs	r0, #7
 8004208:	f883 1023 	strb.w	r1, [r3, #35]	; 0x23
 800420c:	2100      	movs	r1, #0
 800420e:	6191      	str	r1, [r2, #24]
 8004210:	6110      	str	r0, [r2, #16]
 8004212:	f883 1023 	strb.w	r1, [r3, #35]	; 0x23
 8004216:	4770      	bx	lr
 8004218:	e7fe      	b.n	8004218 <systick_config+0x30>
 800421a:	bf00      	nop
 800421c:	2000006c 	andcs	r0, r0, ip, rrx
 8004220:	e000ed00 	and	lr, r0, r0, lsl #26

08004224 <SysTick_Handler>:
 8004224:	4a02      	ldr	r2, [pc, #8]	; (8004230 <SysTick_Handler+0xc>)
 8004226:	6813      	ldr	r3, [r2, #0]
 8004228:	3301      	adds	r3, #1
 800422a:	6013      	str	r3, [r2, #0]
 800422c:	4770      	bx	lr
 800422e:	bf00      	nop
 8004230:	200031dc 	ldrdcs	r3, [r0], -ip

08004234 <SystemInit>:
 8004234:	4a56      	ldr	r2, [pc, #344]	; (8004390 <SystemInit+0x15c>)
 8004236:	f8d2 3088 	ldr.w	r3, [r2, #136]	; 0x88
 800423a:	f443 0370 	orr.w	r3, r3, #15728640	; 0xf00000
 800423e:	f8c2 3088 	str.w	r3, [r2, #136]	; 0x88
 8004242:	4b54      	ldr	r3, [pc, #336]	; (8004394 <SystemInit+0x160>)
 8004244:	f8d3 2800 	ldr.w	r2, [r3, #2048]	; 0x800
 8004248:	f042 0201 	orr.w	r2, r2, #1
 800424c:	f8c3 2800 	str.w	r2, [r3, #2048]	; 0x800
 8004250:	f8d3 2808 	ldr.w	r2, [r3, #2056]	; 0x808
 8004254:	b082      	sub	sp, #8
 8004256:	f042 0280 	orr.w	r2, r2, #128	; 0x80
 800425a:	f8c3 2808 	str.w	r2, [r3, #2056]	; 0x808
 800425e:	2200      	movs	r2, #0
 8004260:	9201      	str	r2, [sp, #4]
 8004262:	f24c 314f 	movw	r1, #49999	; 0xc34f
 8004266:	9a01      	ldr	r2, [sp, #4]
 8004268:	428a      	cmp	r2, r1
 800426a:	d93e      	bls.n	80042ea <SystemInit+0xb6>
 800426c:	f8d3 2808 	ldr.w	r2, [r3, #2056]	; 0x808
 8004270:	f042 0290 	orr.w	r2, r2, #144	; 0x90
 8004274:	f8c3 2808 	str.w	r2, [r3, #2056]	; 0x808
 8004278:	2300      	movs	r3, #0
 800427a:	9301      	str	r3, [sp, #4]
 800427c:	f24c 324f 	movw	r2, #49999	; 0xc34f
 8004280:	9b01      	ldr	r3, [sp, #4]
 8004282:	4293      	cmp	r3, r2
 8004284:	d935      	bls.n	80042f2 <SystemInit+0xbe>
 8004286:	4b43      	ldr	r3, [pc, #268]	; (8004394 <SystemInit+0x160>)
 8004288:	f8d3 2808 	ldr.w	r2, [r3, #2056]	; 0x808
 800428c:	f022 0203 	bic.w	r2, r2, #3
 8004290:	f8c3 2808 	str.w	r2, [r3, #2056]	; 0x808
 8004294:	f8d3 2800 	ldr.w	r2, [r3, #2048]	; 0x800
 8004298:	f022 7284 	bic.w	r2, r2, #17301504	; 0x1080000
 800429c:	f422 3280 	bic.w	r2, r2, #65536	; 0x10000
 80042a0:	f8c3 2800 	str.w	r2, [r3, #2048]	; 0x800
 80042a4:	f8d3 2800 	ldr.w	r2, [r3, #2048]	; 0x800
 80042a8:	f422 2280 	bic.w	r2, r2, #262144	; 0x40000
 80042ac:	f8c3 2800 	str.w	r2, [r3, #2048]	; 0x800
 80042b0:	2200      	movs	r2, #0
 80042b2:	f8c3 2808 	str.w	r2, [r3, #2056]	; 0x808
 80042b6:	f8d3 1808 	ldr.w	r1, [r3, #2056]	; 0x808
 80042ba:	4937      	ldr	r1, [pc, #220]	; (8004398 <SystemInit+0x164>)
 80042bc:	f8c3 1804 	str.w	r1, [r3, #2052]	; 0x804
 80042c0:	f8c3 280c 	str.w	r2, [r3, #2060]	; 0x80c
 80042c4:	f8d3 2800 	ldr.w	r2, [r3, #2048]	; 0x800
 80042c8:	f442 3280 	orr.w	r2, r2, #65536	; 0x10000
 80042cc:	f8c3 2800 	str.w	r2, [r3, #2048]	; 0x800
 80042d0:	f64f 72ff 	movw	r2, #65535	; 0xffff
 80042d4:	f8d3 1800 	ldr.w	r1, [r3, #2048]	; 0x800
 80042d8:	0389      	lsls	r1, r1, #14
 80042da:	d401      	bmi.n	80042e0 <SystemInit+0xac>
 80042dc:	3a01      	subs	r2, #1
 80042de:	d1f9      	bne.n	80042d4 <SystemInit+0xa0>
 80042e0:	f8d3 2800 	ldr.w	r2, [r3, #2048]	; 0x800
 80042e4:	0392      	lsls	r2, r2, #14
 80042e6:	d408      	bmi.n	80042fa <SystemInit+0xc6>
 80042e8:	e7fe      	b.n	80042e8 <SystemInit+0xb4>
 80042ea:	9a01      	ldr	r2, [sp, #4]
 80042ec:	3201      	adds	r2, #1
 80042ee:	9201      	str	r2, [sp, #4]
 80042f0:	e7b9      	b.n	8004266 <SystemInit+0x32>
 80042f2:	9b01      	ldr	r3, [sp, #4]
 80042f4:	3301      	adds	r3, #1
 80042f6:	9301      	str	r3, [sp, #4]
 80042f8:	e7c2      	b.n	8004280 <SystemInit+0x4c>
 80042fa:	f8d3 2840 	ldr.w	r2, [r3, #2112]	; 0x840
 80042fe:	f042 5280 	orr.w	r2, r2, #268435456	; 0x10000000
 8004302:	f8c3 2840 	str.w	r2, [r3, #2112]	; 0x840
 8004306:	4a25      	ldr	r2, [pc, #148]	; (800439c <SystemInit+0x168>)
 8004308:	6811      	ldr	r1, [r2, #0]
 800430a:	f441 4140 	orr.w	r1, r1, #49152	; 0xc000
 800430e:	6011      	str	r1, [r2, #0]
 8004310:	f8d3 1808 	ldr.w	r1, [r3, #2056]	; 0x808
 8004314:	f8c3 1808 	str.w	r1, [r3, #2056]	; 0x808
 8004318:	f8d3 1808 	ldr.w	r1, [r3, #2056]	; 0x808
 800431c:	f441 4100 	orr.w	r1, r1, #32768	; 0x8000
 8004320:	f8c3 1808 	str.w	r1, [r3, #2056]	; 0x808
 8004324:	f8d3 1808 	ldr.w	r1, [r3, #2056]	; 0x808
 8004328:	f441 51a0 	orr.w	r1, r1, #5120	; 0x1400
 800432c:	f8c3 1808 	str.w	r1, [r3, #2056]	; 0x808
 8004330:	491b      	ldr	r1, [pc, #108]	; (80043a0 <SystemInit+0x16c>)
 8004332:	f8c3 1804 	str.w	r1, [r3, #2052]	; 0x804
 8004336:	f8d3 1800 	ldr.w	r1, [r3, #2048]	; 0x800
 800433a:	f041 7180 	orr.w	r1, r1, #16777216	; 0x1000000
 800433e:	f8c3 1800 	str.w	r1, [r3, #2048]	; 0x800
 8004342:	4914      	ldr	r1, [pc, #80]	; (8004394 <SystemInit+0x160>)
 8004344:	f8d1 3800 	ldr.w	r3, [r1, #2048]	; 0x800
 8004348:	019b      	lsls	r3, r3, #6
 800434a:	d5fb      	bpl.n	8004344 <SystemInit+0x110>
 800434c:	6813      	ldr	r3, [r2, #0]
 800434e:	f443 3380 	orr.w	r3, r3, #65536	; 0x10000
 8004352:	6013      	str	r3, [r2, #0]
 8004354:	4b11      	ldr	r3, [pc, #68]	; (800439c <SystemInit+0x168>)
 8004356:	685a      	ldr	r2, [r3, #4]
 8004358:	03d0      	lsls	r0, r2, #15
 800435a:	d5fc      	bpl.n	8004356 <SystemInit+0x122>
 800435c:	681a      	ldr	r2, [r3, #0]
 800435e:	f442 3200 	orr.w	r2, r2, #131072	; 0x20000
 8004362:	601a      	str	r2, [r3, #0]
 8004364:	685a      	ldr	r2, [r3, #4]
 8004366:	0391      	lsls	r1, r2, #14
 8004368:	d5fc      	bpl.n	8004364 <SystemInit+0x130>
 800436a:	4b0a      	ldr	r3, [pc, #40]	; (8004394 <SystemInit+0x160>)
 800436c:	f8d3 2808 	ldr.w	r2, [r3, #2056]	; 0x808
 8004370:	f022 0203 	bic.w	r2, r2, #3
 8004374:	f8c3 2808 	str.w	r2, [r3, #2056]	; 0x808
 8004378:	f8d3 2808 	ldr.w	r2, [r3, #2056]	; 0x808
 800437c:	f042 0202 	orr.w	r2, r2, #2
 8004380:	f8c3 2808 	str.w	r2, [r3, #2056]	; 0x808
 8004384:	f8d3 2808 	ldr.w	r2, [r3, #2056]	; 0x808
 8004388:	0712      	lsls	r2, r2, #28
 800438a:	d5fb      	bpl.n	8004384 <SystemInit+0x150>
 800438c:	b002      	add	sp, #8
 800438e:	4770      	bx	lr
 8004390:	e000ed00 	and	lr, r0, r0, lsl #26
 8004394:	40023000 	andmi	r3, r2, r0
 8004398:	24003010 	strcs	r3, [r0], #-16
 800439c:	40007000 	andmi	r7, r0, r0
 80043a0:	07405419 	smlaldeq	r5, r0, r9, r4

080043a4 <fmc_unlock>:
 80043a4:	4b06      	ldr	r3, [pc, #24]	; (80043c0 <fmc_unlock+0x1c>)
 80043a6:	f8d3 2c10 	ldr.w	r2, [r3, #3088]	; 0xc10
 80043aa:	2a00      	cmp	r2, #0
 80043ac:	bfbf      	itttt	lt
 80043ae:	4a05      	ldrlt	r2, [pc, #20]	; (80043c4 <fmc_unlock+0x20>)
 80043b0:	f8c3 2c04 	strlt.w	r2, [r3, #3076]	; 0xc04
 80043b4:	f102 3288 	addlt.w	r2, r2, #2290649224	; 0x88888888
 80043b8:	f8c3 2c04 	strlt.w	r2, [r3, #3076]	; 0xc04
 80043bc:	4770      	bx	lr
 80043be:	bf00      	nop
 80043c0:	40023000 	andmi	r3, r2, r0
 80043c4:	45670123 	strbmi	r0, [r7, #-291]!	; 0xfffffedd

080043c8 <fmc_lock>:
 80043c8:	4a03      	ldr	r2, [pc, #12]	; (80043d8 <fmc_lock+0x10>)
 80043ca:	f8d2 3c10 	ldr.w	r3, [r2, #3088]	; 0xc10
 80043ce:	f043 4300 	orr.w	r3, r3, #2147483648	; 0x80000000
 80043d2:	f8c2 3c10 	str.w	r3, [r2, #3088]	; 0xc10
 80043d6:	4770      	bx	lr
 80043d8:	40023000 	andmi	r3, r2, r0

080043dc <fmc_flag_clear>:
 80043dc:	4b01      	ldr	r3, [pc, #4]	; (80043e4 <fmc_flag_clear+0x8>)
 80043de:	f8c3 0c0c 	str.w	r0, [r3, #3084]	; 0xc0c
 80043e2:	4770      	bx	lr
 80043e4:	40023000 	andmi	r3, r2, r0

080043e8 <fmc_state_get>:
 80043e8:	4b10      	ldr	r3, [pc, #64]	; (800442c <fmc_state_get+0x44>)
 80043ea:	f8d3 2c0c 	ldr.w	r2, [r3, #3084]	; 0xc0c
 80043ee:	03d2      	lsls	r2, r2, #15
 80043f0:	d414      	bmi.n	800441c <fmc_state_get+0x34>
 80043f2:	f8d3 2c0c 	ldr.w	r2, [r3, #3084]	; 0xc0c
 80043f6:	06d1      	lsls	r1, r2, #27
 80043f8:	d412      	bmi.n	8004420 <fmc_state_get+0x38>
 80043fa:	f8d3 2c0c 	ldr.w	r2, [r3, #3084]	; 0xc0c
 80043fe:	05d2      	lsls	r2, r2, #23
 8004400:	d410      	bmi.n	8004424 <fmc_state_get+0x3c>
 8004402:	f8d3 2c0c 	ldr.w	r2, [r3, #3084]	; 0xc0c
 8004406:	f012 0fef 	tst.w	r2, #239	; 0xef
 800440a:	d10d      	bne.n	8004428 <fmc_state_get+0x40>
 800440c:	f8d3 3c0c 	ldr.w	r3, [r3, #3084]	; 0xc0c
 8004410:	f013 0f02 	tst.w	r3, #2
 8004414:	bf14      	ite	ne
 8004416:	2006      	movne	r0, #6
 8004418:	2000      	moveq	r0, #0
 800441a:	4770      	bx	lr
 800441c:	2001      	movs	r0, #1
 800441e:	4770      	bx	lr
 8004420:	2005      	movs	r0, #5
 8004422:	4770      	bx	lr
 8004424:	2002      	movs	r0, #2
 8004426:	4770      	bx	lr
 8004428:	2007      	movs	r0, #7
 800442a:	4770      	bx	lr
 800442c:	40023000 	andmi	r3, r2, r0

08004430 <fmc_ready_wait>:
 8004430:	b510      	push	{r4, lr}
 8004432:	4604      	mov	r4, r0
 8004434:	f7ff ffd8 	bl	80043e8 <fmc_state_get>
 8004438:	2801      	cmp	r0, #1
 800443a:	f104 34ff 	add.w	r4, r4, #4294967295	; 0xffffffff
 800443e:	d102      	bne.n	8004446 <fmc_ready_wait+0x16>
 8004440:	2c00      	cmp	r4, #0
 8004442:	d1f7      	bne.n	8004434 <fmc_ready_wait+0x4>
 8004444:	2008      	movs	r0, #8
 8004446:	bd10      	pop	{r4, pc}

08004448 <fmc_sector_erase>:
 8004448:	b538      	push	{r3, r4, r5, lr}
 800444a:	4605      	mov	r5, r0
 800444c:	f04f 30ff 	mov.w	r0, #4294967295	; 0xffffffff
 8004450:	f7ff ffee 	bl	8004430 <fmc_ready_wait>
 8004454:	bb18      	cbnz	r0, 800449e <fmc_sector_erase+0x56>
 8004456:	4c12      	ldr	r4, [pc, #72]	; (80044a0 <fmc_sector_erase+0x58>)
 8004458:	f8d4 3c10 	ldr.w	r3, [r4, #3088]	; 0xc10
 800445c:	f023 03f8 	bic.w	r3, r3, #248	; 0xf8
 8004460:	f8c4 3c10 	str.w	r3, [r4, #3088]	; 0xc10
 8004464:	f8d4 0c10 	ldr.w	r0, [r4, #3088]	; 0xc10
 8004468:	4328      	orrs	r0, r5
 800446a:	f040 0002 	orr.w	r0, r0, #2
 800446e:	f8c4 0c10 	str.w	r0, [r4, #3088]	; 0xc10
 8004472:	f8d4 3c10 	ldr.w	r3, [r4, #3088]	; 0xc10
 8004476:	f443 3380 	orr.w	r3, r3, #65536	; 0x10000
 800447a:	f8c4 3c10 	str.w	r3, [r4, #3088]	; 0xc10
 800447e:	f04f 30ff 	mov.w	r0, #4294967295	; 0xffffffff
 8004482:	f7ff ffd5 	bl	8004430 <fmc_ready_wait>
 8004486:	f8d4 3c10 	ldr.w	r3, [r4, #3088]	; 0xc10
 800448a:	f023 0302 	bic.w	r3, r3, #2
 800448e:	f8c4 3c10 	str.w	r3, [r4, #3088]	; 0xc10
 8004492:	f8d4 3c10 	ldr.w	r3, [r4, #3088]	; 0xc10
 8004496:	f023 03f8 	bic.w	r3, r3, #248	; 0xf8
 800449a:	f8c4 3c10 	str.w	r3, [r4, #3088]	; 0xc10
 800449e:	bd38      	pop	{r3, r4, r5, pc}
 80044a0:	40023000 	andmi	r3, r2, r0

080044a4 <fmc_word_program>:
 80044a4:	b570      	push	{r4, r5, r6, lr}
 80044a6:	4605      	mov	r5, r0
 80044a8:	f04f 30ff 	mov.w	r0, #4294967295	; 0xffffffff
 80044ac:	460e      	mov	r6, r1
 80044ae:	f7ff ffbf 	bl	8004430 <fmc_ready_wait>
 80044b2:	b9e8      	cbnz	r0, 80044f0 <fmc_word_program+0x4c>
 80044b4:	4c0f      	ldr	r4, [pc, #60]	; (80044f4 <fmc_word_program+0x50>)
 80044b6:	f8d4 3c10 	ldr.w	r3, [r4, #3088]	; 0xc10
 80044ba:	f423 7340 	bic.w	r3, r3, #768	; 0x300
 80044be:	f8c4 3c10 	str.w	r3, [r4, #3088]	; 0xc10
 80044c2:	f8d4 3c10 	ldr.w	r3, [r4, #3088]	; 0xc10
 80044c6:	f443 7300 	orr.w	r3, r3, #512	; 0x200
 80044ca:	f8c4 3c10 	str.w	r3, [r4, #3088]	; 0xc10
 80044ce:	f8d4 3c10 	ldr.w	r3, [r4, #3088]	; 0xc10
 80044d2:	f043 0301 	orr.w	r3, r3, #1
 80044d6:	f8c4 3c10 	str.w	r3, [r4, #3088]	; 0xc10
 80044da:	f04f 30ff 	mov.w	r0, #4294967295	; 0xffffffff
 80044de:	602e      	str	r6, [r5, #0]
 80044e0:	f7ff ffa6 	bl	8004430 <fmc_ready_wait>
 80044e4:	f8d4 3c10 	ldr.w	r3, [r4, #3088]	; 0xc10
 80044e8:	f023 0301 	bic.w	r3, r3, #1
 80044ec:	f8c4 3c10 	str.w	r3, [r4, #3088]	; 0xc10
 80044f0:	bd70      	pop	{r4, r5, r6, pc}
 80044f2:	bf00      	nop
 80044f4:	40023000 	andmi	r3, r2, r0

080044f8 <fwdgt_enable>:
 80044f8:	4b02      	ldr	r3, [pc, #8]	; (8004504 <fwdgt_enable+0xc>)
 80044fa:	f64c 42cc 	movw	r2, #52428	; 0xcccc
 80044fe:	601a      	str	r2, [r3, #0]
 8004500:	4770      	bx	lr
 8004502:	bf00      	nop
 8004504:	40003000 	andmi	r3, r0, r0

08004508 <fwdgt_counter_reload>:
 8004508:	4b02      	ldr	r3, [pc, #8]	; (8004514 <fwdgt_counter_reload+0xc>)
 800450a:	f64a 22aa 	movw	r2, #43690	; 0xaaaa
 800450e:	601a      	str	r2, [r3, #0]
 8004510:	4770      	bx	lr
 8004512:	bf00      	nop
 8004514:	40003000 	andmi	r3, r0, r0

08004518 <fwdgt_config>:
 8004518:	4a12      	ldr	r2, [pc, #72]	; (8004564 <fwdgt_config+0x4c>)
 800451a:	b510      	push	{r4, lr}
 800451c:	f245 5355 	movw	r3, #21845	; 0x5555
 8004520:	4c11      	ldr	r4, [pc, #68]	; (8004568 <fwdgt_config+0x50>)
 8004522:	6013      	str	r3, [r2, #0]
 8004524:	68d3      	ldr	r3, [r2, #12]
 8004526:	3c01      	subs	r4, #1
 8004528:	f003 0301 	and.w	r3, r3, #1
 800452c:	d013      	beq.n	8004556 <fwdgt_config+0x3e>
 800452e:	2b00      	cmp	r3, #0
 8004530:	d1f8      	bne.n	8004524 <fwdgt_config+0xc>
 8004532:	6051      	str	r1, [r2, #4]
 8004534:	490c      	ldr	r1, [pc, #48]	; (8004568 <fwdgt_config+0x50>)
 8004536:	4a0b      	ldr	r2, [pc, #44]	; (8004564 <fwdgt_config+0x4c>)
 8004538:	68d3      	ldr	r3, [r2, #12]
 800453a:	3901      	subs	r1, #1
 800453c:	f003 0302 	and.w	r3, r3, #2
 8004540:	d00d      	beq.n	800455e <fwdgt_config+0x46>
 8004542:	2b00      	cmp	r3, #0
 8004544:	d1f8      	bne.n	8004538 <fwdgt_config+0x20>
 8004546:	f3c0 000b 	ubfx	r0, r0, #0, #12
 800454a:	f64a 23aa 	movw	r3, #43690	; 0xaaaa
 800454e:	6090      	str	r0, [r2, #8]
 8004550:	6013      	str	r3, [r2, #0]
 8004552:	2001      	movs	r0, #1
 8004554:	e002      	b.n	800455c <fwdgt_config+0x44>
 8004556:	2b00      	cmp	r3, #0
 8004558:	d0eb      	beq.n	8004532 <fwdgt_config+0x1a>
 800455a:	2000      	movs	r0, #0
 800455c:	bd10      	pop	{r4, pc}
 800455e:	2b00      	cmp	r3, #0
 8004560:	d1fb      	bne.n	800455a <fwdgt_config+0x42>
 8004562:	e7f0      	b.n	8004546 <fwdgt_config+0x2e>
 8004564:	40003000 	andmi	r3, r0, r0
 8004568:	000fffff 	strdeq	pc, [pc], -pc	; <UNPREDICTABLE>

0800456c <gpio_mode_set>:
 800456c:	e92d 41f0 	stmdb	sp!, {r4, r5, r6, r7, r8, lr}
 8004570:	6805      	ldr	r5, [r0, #0]
 8004572:	68c4      	ldr	r4, [r0, #12]
 8004574:	2600      	movs	r6, #0
 8004576:	f04f 0e03 	mov.w	lr, #3
 800457a:	fa23 f706 	lsr.w	r7, r3, r6
 800457e:	07ff      	lsls	r7, r7, #31
 8004580:	d50d      	bpl.n	800459e <gpio_mode_set+0x32>
 8004582:	0077      	lsls	r7, r6, #1
 8004584:	fa0e fc07 	lsl.w	ip, lr, r7
 8004588:	fa01 f807 	lsl.w	r8, r1, r7
 800458c:	ea25 050c 	bic.w	r5, r5, ip
 8004590:	ea24 040c 	bic.w	r4, r4, ip
 8004594:	fa02 f707 	lsl.w	r7, r2, r7
 8004598:	ea48 0505 	orr.w	r5, r8, r5
 800459c:	433c      	orrs	r4, r7
 800459e:	3601      	adds	r6, #1
 80045a0:	2e10      	cmp	r6, #16
 80045a2:	d1ea      	bne.n	800457a <gpio_mode_set+0xe>
 80045a4:	6005      	str	r5, [r0, #0]
 80045a6:	60c4      	str	r4, [r0, #12]
 80045a8:	e8bd 81f0 	ldmia.w	sp!, {r4, r5, r6, r7, r8, pc}

080045ac <gpio_output_options_set>:
 80045ac:	2901      	cmp	r1, #1
 80045ae:	6841      	ldr	r1, [r0, #4]
 80045b0:	bf0c      	ite	eq
 80045b2:	4319      	orreq	r1, r3
 80045b4:	4399      	bicne	r1, r3
 80045b6:	b5f0      	push	{r4, r5, r6, r7, lr}
 80045b8:	6041      	str	r1, [r0, #4]
 80045ba:	6881      	ldr	r1, [r0, #8]
 80045bc:	2400      	movs	r4, #0
 80045be:	2603      	movs	r6, #3
 80045c0:	fa23 f504 	lsr.w	r5, r3, r4
 80045c4:	07ed      	lsls	r5, r5, #31
 80045c6:	d507      	bpl.n	80045d8 <gpio_output_options_set+0x2c>
 80045c8:	0065      	lsls	r5, r4, #1
 80045ca:	fa06 f705 	lsl.w	r7, r6, r5
 80045ce:	ea21 0107 	bic.w	r1, r1, r7
 80045d2:	fa02 f505 	lsl.w	r5, r2, r5
 80045d6:	4329      	orrs	r1, r5
 80045d8:	3401      	adds	r4, #1
 80045da:	2c10      	cmp	r4, #16
 80045dc:	d1f0      	bne.n	80045c0 <gpio_output_options_set+0x14>
 80045de:	6081      	str	r1, [r0, #8]
 80045e0:	bdf0      	pop	{r4, r5, r6, r7, pc}

080045e2 <gpio_input_bit_get>:
 80045e2:	6903      	ldr	r3, [r0, #16]
 80045e4:	420b      	tst	r3, r1
 80045e6:	bf14      	ite	ne
 80045e8:	2001      	movne	r0, #1
 80045ea:	2000      	moveq	r0, #0
 80045ec:	4770      	bx	lr

080045ee <gpio_af_set>:
 80045ee:	b5f0      	push	{r4, r5, r6, r7, lr}
 80045f0:	6a06      	ldr	r6, [r0, #32]
 80045f2:	6a45      	ldr	r5, [r0, #36]	; 0x24
 80045f4:	2300      	movs	r3, #0
 80045f6:	f04f 0c0f 	mov.w	ip, #15
 80045fa:	fa22 f403 	lsr.w	r4, r2, r3
 80045fe:	07e7      	lsls	r7, r4, #31
 8004600:	d507      	bpl.n	8004612 <gpio_af_set+0x24>
 8004602:	009c      	lsls	r4, r3, #2
 8004604:	fa0c f704 	lsl.w	r7, ip, r4
 8004608:	ea26 0607 	bic.w	r6, r6, r7
 800460c:	fa01 f404 	lsl.w	r4, r1, r4
 8004610:	4326      	orrs	r6, r4
 8004612:	3301      	adds	r3, #1
 8004614:	2b08      	cmp	r3, #8
 8004616:	d1f0      	bne.n	80045fa <gpio_af_set+0xc>
 8004618:	2300      	movs	r3, #0
 800461a:	f04f 0c0f 	mov.w	ip, #15
 800461e:	f103 0408 	add.w	r4, r3, #8
 8004622:	fa22 f404 	lsr.w	r4, r2, r4
 8004626:	07e4      	lsls	r4, r4, #31
 8004628:	d507      	bpl.n	800463a <gpio_af_set+0x4c>
 800462a:	009c      	lsls	r4, r3, #2
 800462c:	fa0c f704 	lsl.w	r7, ip, r4
 8004630:	ea25 0507 	bic.w	r5, r5, r7
 8004634:	fa01 f404 	lsl.w	r4, r1, r4
 8004638:	4325      	orrs	r5, r4
 800463a:	3301      	adds	r3, #1
 800463c:	2b08      	cmp	r3, #8
 800463e:	d1ee      	bne.n	800461e <gpio_af_set+0x30>
 8004640:	6206      	str	r6, [r0, #32]
 8004642:	6245      	str	r5, [r0, #36]	; 0x24
 8004644:	bdf0      	pop	{r4, r5, r6, r7, pc}
	...

08004648 <pmu_backup_ldo_config>:
 8004648:	4b04      	ldr	r3, [pc, #16]	; (800465c <pmu_backup_ldo_config+0x14>)
 800464a:	685a      	ldr	r2, [r3, #4]
 800464c:	f422 7200 	bic.w	r2, r2, #512	; 0x200
 8004650:	605a      	str	r2, [r3, #4]
 8004652:	685a      	ldr	r2, [r3, #4]
 8004654:	4310      	orrs	r0, r2
 8004656:	6058      	str	r0, [r3, #4]
 8004658:	4770      	bx	lr
 800465a:	bf00      	nop
 800465c:	40007000 	andmi	r7, r0, r0

08004660 <pmu_backup_write_enable>:
 8004660:	4a02      	ldr	r2, [pc, #8]	; (800466c <pmu_backup_write_enable+0xc>)
 8004662:	6813      	ldr	r3, [r2, #0]
 8004664:	f443 7380 	orr.w	r3, r3, #256	; 0x100
 8004668:	6013      	str	r3, [r2, #0]
 800466a:	4770      	bx	lr
 800466c:	40007000 	andmi	r7, r0, r0

08004670 <rcu_periph_clock_enable>:
 8004670:	0983      	lsrs	r3, r0, #6
 8004672:	f103 4380 	add.w	r3, r3, #1073741824	; 0x40000000
 8004676:	f503 330e 	add.w	r3, r3, #145408	; 0x23800
 800467a:	f000 001f 	and.w	r0, r0, #31
 800467e:	6819      	ldr	r1, [r3, #0]
 8004680:	2201      	movs	r2, #1
 8004682:	4082      	lsls	r2, r0
 8004684:	430a      	orrs	r2, r1
 8004686:	601a      	str	r2, [r3, #0]
 8004688:	4770      	bx	lr

0800468a <rcu_periph_clock_disable>:
 800468a:	0983      	lsrs	r3, r0, #6
 800468c:	f103 4380 	add.w	r3, r3, #1073741824	; 0x40000000
 8004690:	f503 330e 	add.w	r3, r3, #145408	; 0x23800
 8004694:	f000 001f 	and.w	r0, r0, #31
 8004698:	681a      	ldr	r2, [r3, #0]
 800469a:	2101      	movs	r1, #1
 800469c:	4081      	lsls	r1, r0
 800469e:	ea22 0201 	bic.w	r2, r2, r1
 80046a2:	601a      	str	r2, [r3, #0]
 80046a4:	4770      	bx	lr

080046a6 <rcu_periph_reset_enable>:
 80046a6:	f7ff bfe3 	b.w	8004670 <rcu_periph_clock_enable>

080046aa <rcu_periph_reset_disable>:
 80046aa:	f7ff bfee 	b.w	800468a <rcu_periph_clock_disable>
	...

080046b0 <rcu_ckout0_config>:
 80046b0:	4a04      	ldr	r2, [pc, #16]	; (80046c4 <rcu_ckout0_config+0x14>)
 80046b2:	f8d2 3808 	ldr.w	r3, [r2, #2056]	; 0x808
 80046b6:	f023 63ec 	bic.w	r3, r3, #123731968	; 0x7600000
 80046ba:	4319      	orrs	r1, r3
 80046bc:	4308      	orrs	r0, r1
 80046be:	f8c2 0808 	str.w	r0, [r2, #2056]	; 0x808
 80046c2:	4770      	bx	lr
 80046c4:	40023000 	andmi	r3, r2, r0

080046c8 <rcu_timer_clock_prescaler_config>:
 80046c8:	f06f 7380 	mvn.w	r3, #16777216	; 0x1000000
 80046cc:	4298      	cmp	r0, r3
 80046ce:	4b05      	ldr	r3, [pc, #20]	; (80046e4 <rcu_timer_clock_prescaler_config+0x1c>)
 80046d0:	f8d3 288c 	ldr.w	r2, [r3, #2188]	; 0x88c
 80046d4:	bf0c      	ite	eq
 80046d6:	f022 7280 	biceq.w	r2, r2, #16777216	; 0x1000000
 80046da:	4302      	orrne	r2, r0
 80046dc:	f8c3 288c 	str.w	r2, [r3, #2188]	; 0x88c
 80046e0:	4770      	bx	lr
 80046e2:	bf00      	nop
 80046e4:	40023000 	andmi	r3, r2, r0

080046e8 <rcu_clock_freq_get>:
 80046e8:	b5f0      	push	{r4, r5, r6, r7, lr}
 80046ea:	4b35      	ldr	r3, [pc, #212]	; (80047c0 <rcu_clock_freq_get+0xd8>)
 80046ec:	b089      	sub	sp, #36	; 0x24
 80046ee:	4604      	mov	r4, r0
 80046f0:	ad04      	add	r5, sp, #16
 80046f2:	f103 0610 	add.w	r6, r3, #16
 80046f6:	461f      	mov	r7, r3
 80046f8:	6818      	ldr	r0, [r3, #0]
 80046fa:	6859      	ldr	r1, [r3, #4]
 80046fc:	462a      	mov	r2, r5
 80046fe:	c203      	stmia	r2!, {r0, r1}
 8004700:	3308      	adds	r3, #8
 8004702:	42b3      	cmp	r3, r6
 8004704:	4615      	mov	r5, r2
 8004706:	d1f7      	bne.n	80046f8 <rcu_clock_freq_get+0x10>
 8004708:	6938      	ldr	r0, [r7, #16]
 800470a:	6871      	ldr	r1, [r6, #4]
 800470c:	4a2d      	ldr	r2, [pc, #180]	; (80047c4 <rcu_clock_freq_get+0xdc>)
 800470e:	466b      	mov	r3, sp
 8004710:	c303      	stmia	r3!, {r0, r1}
 8004712:	c303      	stmia	r3!, {r0, r1}
 8004714:	f8d2 3808 	ldr.w	r3, [r2, #2056]	; 0x808
 8004718:	f3c3 0381 	ubfx	r3, r3, #2, #2
 800471c:	2b01      	cmp	r3, #1
 800471e:	d03f      	beq.n	80047a0 <rcu_clock_freq_get+0xb8>
 8004720:	2b02      	cmp	r3, #2
 8004722:	d13f      	bne.n	80047a4 <rcu_clock_freq_get+0xbc>
 8004724:	f8d2 0804 	ldr.w	r0, [r2, #2052]	; 0x804
 8004728:	f8d2 1804 	ldr.w	r1, [r2, #2052]	; 0x804
 800472c:	f8d2 3804 	ldr.w	r3, [r2, #2052]	; 0x804
 8004730:	f8d2 2804 	ldr.w	r2, [r2, #2052]	; 0x804
 8004734:	4d24      	ldr	r5, [pc, #144]	; (80047c8 <rcu_clock_freq_get+0xe0>)
 8004736:	f3c3 4301 	ubfx	r3, r3, #16, #2
 800473a:	f412 0f80 	tst.w	r2, #4194304	; 0x400000
 800473e:	f3c1 1188 	ubfx	r1, r1, #6, #9
 8004742:	f103 0301 	add.w	r3, r3, #1
 8004746:	4a21      	ldr	r2, [pc, #132]	; (80047cc <rcu_clock_freq_get+0xe4>)
 8004748:	f000 003f 	and.w	r0, r0, #63	; 0x3f
 800474c:	ea4f 0343 	mov.w	r3, r3, lsl #1
 8004750:	bf08      	it	eq
 8004752:	462a      	moveq	r2, r5
 8004754:	fbb2 f2f0 	udiv	r2, r2, r0
 8004758:	434a      	muls	r2, r1
 800475a:	fbb2 f0f3 	udiv	r0, r2, r3
 800475e:	4919      	ldr	r1, [pc, #100]	; (80047c4 <rcu_clock_freq_get+0xdc>)
 8004760:	f8d1 3808 	ldr.w	r3, [r1, #2056]	; 0x808
 8004764:	f8d1 2808 	ldr.w	r2, [r1, #2056]	; 0x808
 8004768:	f3c2 2282 	ubfx	r2, r2, #10, #3
 800476c:	3220      	adds	r2, #32
 800476e:	446a      	add	r2, sp
 8004770:	f3c3 1303 	ubfx	r3, r3, #4, #4
 8004774:	f812 5c20 	ldrb.w	r5, [r2, #-32]
 8004778:	f8d1 2808 	ldr.w	r2, [r1, #2056]	; 0x808
 800477c:	3320      	adds	r3, #32
 800477e:	446b      	add	r3, sp
 8004780:	f3c2 3242 	ubfx	r2, r2, #13, #3
 8004784:	3220      	adds	r2, #32
 8004786:	f813 3c10 	ldrb.w	r3, [r3, #-16]
 800478a:	446a      	add	r2, sp
 800478c:	fa20 f303 	lsr.w	r3, r0, r3
 8004790:	f812 2c18 	ldrb.w	r2, [r2, #-24]
 8004794:	2c03      	cmp	r4, #3
 8004796:	d810      	bhi.n	80047ba <rcu_clock_freq_get+0xd2>
 8004798:	e8df f004 	tbb	[pc, r4]
 800479c:	0c090607 	stceq	6, cr0, [r9], {7}
 80047a0:	480a      	ldr	r0, [pc, #40]	; (80047cc <rcu_clock_freq_get+0xe4>)
 80047a2:	e7dc      	b.n	800475e <rcu_clock_freq_get+0x76>
 80047a4:	4808      	ldr	r0, [pc, #32]	; (80047c8 <rcu_clock_freq_get+0xe0>)
 80047a6:	e7da      	b.n	800475e <rcu_clock_freq_get+0x76>
 80047a8:	4618      	mov	r0, r3
 80047aa:	b009      	add	sp, #36	; 0x24
 80047ac:	bdf0      	pop	{r4, r5, r6, r7, pc}
 80047ae:	fa23 f005 	lsr.w	r0, r3, r5
 80047b2:	e7fa      	b.n	80047aa <rcu_clock_freq_get+0xc2>
 80047b4:	fa23 f002 	lsr.w	r0, r3, r2
 80047b8:	e7f7      	b.n	80047aa <rcu_clock_freq_get+0xc2>
 80047ba:	2000      	movs	r0, #0
 80047bc:	e7f5      	b.n	80047aa <rcu_clock_freq_get+0xc2>
 80047be:	bf00      	nop
 80047c0:	080060e8 	stmdaeq	r0, {r3, r5, r6, r7, sp, lr}
 80047c4:	40023000 	andmi	r3, r2, r0
 80047c8:	00f42400 	rscseq	r2, r4, r0, lsl #8
 80047cc:	017d7840 	cmneq	sp, r0, asr #16

080047d0 <timer_deinit>:
 80047d0:	b508      	push	{r3, lr}
 80047d2:	4b4e      	ldr	r3, [pc, #312]	; (800490c <timer_deinit+0x13c>)
 80047d4:	4298      	cmp	r0, r3
 80047d6:	f000 8092 	beq.w	80048fe <timer_deinit+0x12e>
 80047da:	d822      	bhi.n	8004822 <timer_deinit+0x52>
 80047dc:	f5a3 5380 	sub.w	r3, r3, #4096	; 0x1000
 80047e0:	4298      	cmp	r0, r3
 80047e2:	d062      	beq.n	80048aa <timer_deinit+0xda>
 80047e4:	d80b      	bhi.n	80047fe <timer_deinit+0x2e>
 80047e6:	f5a3 6300 	sub.w	r3, r3, #2048	; 0x800
 80047ea:	4298      	cmp	r0, r3
 80047ec:	d04f      	beq.n	800488e <timer_deinit+0xbe>
 80047ee:	f503 6380 	add.w	r3, r3, #1024	; 0x400
 80047f2:	4298      	cmp	r0, r3
 80047f4:	d052      	beq.n	800489c <timer_deinit+0xcc>
 80047f6:	f1b0 4f80 	cmp.w	r0, #1073741824	; 0x40000000
 80047fa:	d041      	beq.n	8004880 <timer_deinit+0xb0>
 80047fc:	bd08      	pop	{r3, pc}
 80047fe:	4b44      	ldr	r3, [pc, #272]	; (8004910 <timer_deinit+0x140>)
 8004800:	4298      	cmp	r0, r3
 8004802:	d059      	beq.n	80048b8 <timer_deinit+0xe8>
 8004804:	f503 6380 	add.w	r3, r3, #1024	; 0x400
 8004808:	4298      	cmp	r0, r3
 800480a:	d071      	beq.n	80048f0 <timer_deinit+0x120>
 800480c:	f5a3 6300 	sub.w	r3, r3, #2048	; 0x800
 8004810:	4298      	cmp	r0, r3
 8004812:	d1f3      	bne.n	80047fc <timer_deinit+0x2c>
 8004814:	f640 0004 	movw	r0, #2052	; 0x804
 8004818:	f7ff ff45 	bl	80046a6 <rcu_periph_reset_enable>
 800481c:	f640 0004 	movw	r0, #2052	; 0x804
 8004820:	e02a      	b.n	8004878 <timer_deinit+0xa8>
 8004822:	4b3c      	ldr	r3, [pc, #240]	; (8004914 <timer_deinit+0x144>)
 8004824:	4298      	cmp	r0, r3
 8004826:	d055      	beq.n	80048d4 <timer_deinit+0x104>
 8004828:	d812      	bhi.n	8004850 <timer_deinit+0x80>
 800482a:	f5a3 4380 	sub.w	r3, r3, #16384	; 0x4000
 800482e:	4298      	cmp	r0, r3
 8004830:	d01c      	beq.n	800486c <timer_deinit+0x9c>
 8004832:	f503 6380 	add.w	r3, r3, #1024	; 0x400
 8004836:	4298      	cmp	r0, r3
 8004838:	d045      	beq.n	80048c6 <timer_deinit+0xf6>
 800483a:	f5a3 4364 	sub.w	r3, r3, #58368	; 0xe400
 800483e:	4298      	cmp	r0, r3
 8004840:	d1dc      	bne.n	80047fc <timer_deinit+0x2c>
 8004842:	f640 0008 	movw	r0, #2056	; 0x808
 8004846:	f7ff ff2e 	bl	80046a6 <rcu_periph_reset_enable>
 800484a:	f640 0008 	movw	r0, #2056	; 0x808
 800484e:	e013      	b.n	8004878 <timer_deinit+0xa8>
 8004850:	4b31      	ldr	r3, [pc, #196]	; (8004918 <timer_deinit+0x148>)
 8004852:	4298      	cmp	r0, r3
 8004854:	d045      	beq.n	80048e2 <timer_deinit+0x112>
 8004856:	f503 6380 	add.w	r3, r3, #1024	; 0x400
 800485a:	4298      	cmp	r0, r3
 800485c:	d1ce      	bne.n	80047fc <timer_deinit+0x2c>
 800485e:	f640 1012 	movw	r0, #2322	; 0x912
 8004862:	f7ff ff20 	bl	80046a6 <rcu_periph_reset_enable>
 8004866:	f640 1012 	movw	r0, #2322	; 0x912
 800486a:	e005      	b.n	8004878 <timer_deinit+0xa8>
 800486c:	f44f 6010 	mov.w	r0, #2304	; 0x900
 8004870:	f7ff ff19 	bl	80046a6 <rcu_periph_reset_enable>
 8004874:	f44f 6010 	mov.w	r0, #2304	; 0x900
 8004878:	e8bd 4008 	ldmia.w	sp!, {r3, lr}
 800487c:	f7ff bf15 	b.w	80046aa <rcu_periph_reset_disable>
 8004880:	f44f 6000 	mov.w	r0, #2048	; 0x800
 8004884:	f7ff ff0f 	bl	80046a6 <rcu_periph_reset_enable>
 8004888:	f44f 6000 	mov.w	r0, #2048	; 0x800
 800488c:	e7f4      	b.n	8004878 <timer_deinit+0xa8>
 800488e:	f640 0001 	movw	r0, #2049	; 0x801
 8004892:	f7ff ff08 	bl	80046a6 <rcu_periph_reset_enable>
 8004896:	f640 0001 	movw	r0, #2049	; 0x801
 800489a:	e7ed      	b.n	8004878 <timer_deinit+0xa8>
 800489c:	f640 0002 	movw	r0, #2050	; 0x802
 80048a0:	f7ff ff01 	bl	80046a6 <rcu_periph_reset_enable>
 80048a4:	f640 0002 	movw	r0, #2050	; 0x802
 80048a8:	e7e6      	b.n	8004878 <timer_deinit+0xa8>
 80048aa:	f640 0003 	movw	r0, #2051	; 0x803
 80048ae:	f7ff fefa 	bl	80046a6 <rcu_periph_reset_enable>
 80048b2:	f640 0003 	movw	r0, #2051	; 0x803
 80048b6:	e7df      	b.n	8004878 <timer_deinit+0xa8>
 80048b8:	f640 0005 	movw	r0, #2053	; 0x805
 80048bc:	f7ff fef3 	bl	80046a6 <rcu_periph_reset_enable>
 80048c0:	f640 0005 	movw	r0, #2053	; 0x805
 80048c4:	e7d8      	b.n	8004878 <timer_deinit+0xa8>
 80048c6:	f640 1001 	movw	r0, #2305	; 0x901
 80048ca:	f7ff feec 	bl	80046a6 <rcu_periph_reset_enable>
 80048ce:	f640 1001 	movw	r0, #2305	; 0x901
 80048d2:	e7d1      	b.n	8004878 <timer_deinit+0xa8>
 80048d4:	f44f 6011 	mov.w	r0, #2320	; 0x910
 80048d8:	f7ff fee5 	bl	80046a6 <rcu_periph_reset_enable>
 80048dc:	f44f 6011 	mov.w	r0, #2320	; 0x910
 80048e0:	e7ca      	b.n	8004878 <timer_deinit+0xa8>
 80048e2:	f640 1011 	movw	r0, #2321	; 0x911
 80048e6:	f7ff fede 	bl	80046a6 <rcu_periph_reset_enable>
 80048ea:	f640 1011 	movw	r0, #2321	; 0x911
 80048ee:	e7c3      	b.n	8004878 <timer_deinit+0xa8>
 80048f0:	f640 0006 	movw	r0, #2054	; 0x806
 80048f4:	f7ff fed7 	bl	80046a6 <rcu_periph_reset_enable>
 80048f8:	f640 0006 	movw	r0, #2054	; 0x806
 80048fc:	e7bc      	b.n	8004878 <timer_deinit+0xa8>
 80048fe:	f640 0007 	movw	r0, #2055	; 0x807
 8004902:	f7ff fed0 	bl	80046a6 <rcu_periph_reset_enable>
 8004906:	f640 0007 	movw	r0, #2055	; 0x807
 800490a:	e7b5      	b.n	8004878 <timer_deinit+0xa8>
 800490c:	40001c00 	andmi	r1, r0, r0, lsl #24
 8004910:	40001400 	andmi	r1, r0, r0, lsl #8
 8004914:	40014000 	andmi	r4, r1, r0
 8004918:	40014400 	andmi	r4, r1, r0, lsl #8

0800491c <timer_init>:
 800491c:	880b      	ldrh	r3, [r1, #0]
 800491e:	6283      	str	r3, [r0, #40]	; 0x28
 8004920:	4b1a      	ldr	r3, [pc, #104]	; (800498c <timer_init+0x70>)
 8004922:	f420 6280 	bic.w	r2, r0, #1024	; 0x400
 8004926:	429a      	cmp	r2, r3
 8004928:	d004      	beq.n	8004934 <timer_init+0x18>
 800492a:	f420 6340 	bic.w	r3, r0, #3072	; 0xc00
 800492e:	f1b3 4f80 	cmp.w	r3, #1073741824	; 0x40000000
 8004932:	d10b      	bne.n	800494c <timer_init+0x30>
 8004934:	6803      	ldr	r3, [r0, #0]
 8004936:	f023 0370 	bic.w	r3, r3, #112	; 0x70
 800493a:	6003      	str	r3, [r0, #0]
 800493c:	6802      	ldr	r2, [r0, #0]
 800493e:	884b      	ldrh	r3, [r1, #2]
 8004940:	4313      	orrs	r3, r2
 8004942:	6003      	str	r3, [r0, #0]
 8004944:	6802      	ldr	r2, [r0, #0]
 8004946:	888b      	ldrh	r3, [r1, #4]
 8004948:	4313      	orrs	r3, r2
 800494a:	6003      	str	r3, [r0, #0]
 800494c:	688b      	ldr	r3, [r1, #8]
 800494e:	62c3      	str	r3, [r0, #44]	; 0x2c
 8004950:	4b0f      	ldr	r3, [pc, #60]	; (8004990 <timer_init+0x74>)
 8004952:	4298      	cmp	r0, r3
 8004954:	d003      	beq.n	800495e <timer_init+0x42>
 8004956:	f503 6380 	add.w	r3, r3, #1024	; 0x400
 800495a:	4298      	cmp	r0, r3
 800495c:	d104      	bne.n	8004968 <timer_init+0x4c>
 800495e:	6943      	ldr	r3, [r0, #20]
 8004960:	f043 0301 	orr.w	r3, r3, #1
 8004964:	6143      	str	r3, [r0, #20]
 8004966:	4770      	bx	lr
 8004968:	6803      	ldr	r3, [r0, #0]
 800496a:	f423 7340 	bic.w	r3, r3, #768	; 0x300
 800496e:	6003      	str	r3, [r0, #0]
 8004970:	6802      	ldr	r2, [r0, #0]
 8004972:	88cb      	ldrh	r3, [r1, #6]
 8004974:	4313      	orrs	r3, r2
 8004976:	6003      	str	r3, [r0, #0]
 8004978:	4b04      	ldr	r3, [pc, #16]	; (800498c <timer_init+0x70>)
 800497a:	4298      	cmp	r0, r3
 800497c:	d002      	beq.n	8004984 <timer_init+0x68>
 800497e:	4b05      	ldr	r3, [pc, #20]	; (8004994 <timer_init+0x78>)
 8004980:	4298      	cmp	r0, r3
 8004982:	d1ec      	bne.n	800495e <timer_init+0x42>
 8004984:	7b0b      	ldrb	r3, [r1, #12]
 8004986:	6303      	str	r3, [r0, #48]	; 0x30
 8004988:	e7e9      	b.n	800495e <timer_init+0x42>
 800498a:	bf00      	nop
 800498c:	40010000 	andmi	r0, r1, r0
 8004990:	40001000 	andmi	r1, r0, r0
 8004994:	40010400 	andmi	r0, r1, r0, lsl #8

08004998 <timer_enable>:
 8004998:	6803      	ldr	r3, [r0, #0]
 800499a:	f043 0301 	orr.w	r3, r3, #1
 800499e:	6003      	str	r3, [r0, #0]
 80049a0:	4770      	bx	lr
	...

080049a4 <usart_deinit>:
 80049a4:	b508      	push	{r3, lr}
 80049a6:	4b2d      	ldr	r3, [pc, #180]	; (8004a5c <usart_deinit+0xb8>)
 80049a8:	4298      	cmp	r0, r3
 80049aa:	d050      	beq.n	8004a4e <usart_deinit+0xaa>
 80049ac:	d817      	bhi.n	80049de <usart_deinit+0x3a>
 80049ae:	f5a3 5330 	sub.w	r3, r3, #11264	; 0x2c00
 80049b2:	4298      	cmp	r0, r3
 80049b4:	d044      	beq.n	8004a40 <usart_deinit+0x9c>
 80049b6:	d808      	bhi.n	80049ca <usart_deinit+0x26>
 80049b8:	f5a3 6300 	sub.w	r3, r3, #2048	; 0x800
 80049bc:	4298      	cmp	r0, r3
 80049be:	d02a      	beq.n	8004a16 <usart_deinit+0x72>
 80049c0:	f503 6380 	add.w	r3, r3, #1024	; 0x400
 80049c4:	4298      	cmp	r0, r3
 80049c6:	d02d      	beq.n	8004a24 <usart_deinit+0x80>
 80049c8:	bd08      	pop	{r3, pc}
 80049ca:	4b25      	ldr	r3, [pc, #148]	; (8004a60 <usart_deinit+0xbc>)
 80049cc:	4298      	cmp	r0, r3
 80049ce:	d1fb      	bne.n	80049c8 <usart_deinit+0x24>
 80049d0:	f640 0014 	movw	r0, #2068	; 0x814
 80049d4:	f7ff fe67 	bl	80046a6 <rcu_periph_reset_enable>
 80049d8:	f640 0014 	movw	r0, #2068	; 0x814
 80049dc:	e017      	b.n	8004a0e <usart_deinit+0x6a>
 80049de:	4b21      	ldr	r3, [pc, #132]	; (8004a64 <usart_deinit+0xc0>)
 80049e0:	4298      	cmp	r0, r3
 80049e2:	d00e      	beq.n	8004a02 <usart_deinit+0x5e>
 80049e4:	f503 6380 	add.w	r3, r3, #1024	; 0x400
 80049e8:	4298      	cmp	r0, r3
 80049ea:	d022      	beq.n	8004a32 <usart_deinit+0x8e>
 80049ec:	f5a3 4318 	sub.w	r3, r3, #38912	; 0x9800
 80049f0:	4298      	cmp	r0, r3
 80049f2:	d1e9      	bne.n	80049c8 <usart_deinit+0x24>
 80049f4:	f640 001f 	movw	r0, #2079	; 0x81f
 80049f8:	f7ff fe55 	bl	80046a6 <rcu_periph_reset_enable>
 80049fc:	f640 001f 	movw	r0, #2079	; 0x81f
 8004a00:	e005      	b.n	8004a0e <usart_deinit+0x6a>
 8004a02:	f640 1004 	movw	r0, #2308	; 0x904
 8004a06:	f7ff fe4e 	bl	80046a6 <rcu_periph_reset_enable>
 8004a0a:	f640 1004 	movw	r0, #2308	; 0x904
 8004a0e:	e8bd 4008 	ldmia.w	sp!, {r3, lr}
 8004a12:	f7ff be4a 	b.w	80046aa <rcu_periph_reset_disable>
 8004a16:	f640 0011 	movw	r0, #2065	; 0x811
 8004a1a:	f7ff fe44 	bl	80046a6 <rcu_periph_reset_enable>
 8004a1e:	f640 0011 	movw	r0, #2065	; 0x811
 8004a22:	e7f4      	b.n	8004a0e <usart_deinit+0x6a>
 8004a24:	f640 0012 	movw	r0, #2066	; 0x812
 8004a28:	f7ff fe3d 	bl	80046a6 <rcu_periph_reset_enable>
 8004a2c:	f640 0012 	movw	r0, #2066	; 0x812
 8004a30:	e7ed      	b.n	8004a0e <usart_deinit+0x6a>
 8004a32:	f640 1005 	movw	r0, #2309	; 0x905
 8004a36:	f7ff fe36 	bl	80046a6 <rcu_periph_reset_enable>
 8004a3a:	f640 1005 	movw	r0, #2309	; 0x905
 8004a3e:	e7e6      	b.n	8004a0e <usart_deinit+0x6a>
 8004a40:	f640 0013 	movw	r0, #2067	; 0x813
 8004a44:	f7ff fe2f 	bl	80046a6 <rcu_periph_reset_enable>
 8004a48:	f640 0013 	movw	r0, #2067	; 0x813
 8004a4c:	e7df      	b.n	8004a0e <usart_deinit+0x6a>
 8004a4e:	f640 001e 	movw	r0, #2078	; 0x81e
 8004a52:	f7ff fe28 	bl	80046a6 <rcu_periph_reset_enable>
 8004a56:	f640 001e 	movw	r0, #2078	; 0x81e
 8004a5a:	e7d8      	b.n	8004a0e <usart_deinit+0x6a>
 8004a5c:	40007800 	andmi	r7, r0, r0, lsl #16
 8004a60:	40005000 	andmi	r5, r0, r0
 8004a64:	40011000 	andmi	r1, r1, r0

08004a68 <usart_baudrate_set>:
 8004a68:	b538      	push	{r3, r4, r5, lr}
 8004a6a:	4b1e      	ldr	r3, [pc, #120]	; (8004ae4 <usart_baudrate_set+0x7c>)
 8004a6c:	4298      	cmp	r0, r3
 8004a6e:	4604      	mov	r4, r0
 8004a70:	460d      	mov	r5, r1
 8004a72:	d02e      	beq.n	8004ad2 <usart_baudrate_set+0x6a>
 8004a74:	d821      	bhi.n	8004aba <usart_baudrate_set+0x52>
 8004a76:	f5a3 5330 	sub.w	r3, r3, #11264	; 0x2c00
 8004a7a:	4298      	cmp	r0, r3
 8004a7c:	d029      	beq.n	8004ad2 <usart_baudrate_set+0x6a>
 8004a7e:	d81a      	bhi.n	8004ab6 <usart_baudrate_set+0x4e>
 8004a80:	f5a3 6300 	sub.w	r3, r3, #2048	; 0x800
 8004a84:	4298      	cmp	r0, r3
 8004a86:	d024      	beq.n	8004ad2 <usart_baudrate_set+0x6a>
 8004a88:	f503 6380 	add.w	r3, r3, #1024	; 0x400
 8004a8c:	429c      	cmp	r4, r3
 8004a8e:	d020      	beq.n	8004ad2 <usart_baudrate_set+0x6a>
 8004a90:	2000      	movs	r0, #0
 8004a92:	68e2      	ldr	r2, [r4, #12]
 8004a94:	0412      	lsls	r2, r2, #16
 8004a96:	ea4f 0355 	mov.w	r3, r5, lsr #1
 8004a9a:	d51c      	bpl.n	8004ad6 <usart_baudrate_set+0x6e>
 8004a9c:	eb03 0340 	add.w	r3, r3, r0, lsl #1
 8004aa0:	fbb3 f1f5 	udiv	r1, r3, r5
 8004aa4:	f3c1 0342 	ubfx	r3, r1, #1, #3
 8004aa8:	f021 010f 	bic.w	r1, r1, #15
 8004aac:	0409      	lsls	r1, r1, #16
 8004aae:	0c09      	lsrs	r1, r1, #16
 8004ab0:	430b      	orrs	r3, r1
 8004ab2:	60a3      	str	r3, [r4, #8]
 8004ab4:	bd38      	pop	{r3, r4, r5, pc}
 8004ab6:	4b0c      	ldr	r3, [pc, #48]	; (8004ae8 <usart_baudrate_set+0x80>)
 8004ab8:	e7e8      	b.n	8004a8c <usart_baudrate_set+0x24>
 8004aba:	4b0c      	ldr	r3, [pc, #48]	; (8004aec <usart_baudrate_set+0x84>)
 8004abc:	f420 6280 	bic.w	r2, r0, #1024	; 0x400
 8004ac0:	429a      	cmp	r2, r3
 8004ac2:	d002      	beq.n	8004aca <usart_baudrate_set+0x62>
 8004ac4:	f5a3 4314 	sub.w	r3, r3, #37888	; 0x9400
 8004ac8:	e7e0      	b.n	8004a8c <usart_baudrate_set+0x24>
 8004aca:	2003      	movs	r0, #3
 8004acc:	f7ff fe0c 	bl	80046e8 <rcu_clock_freq_get>
 8004ad0:	e7df      	b.n	8004a92 <usart_baudrate_set+0x2a>
 8004ad2:	2002      	movs	r0, #2
 8004ad4:	e7fa      	b.n	8004acc <usart_baudrate_set+0x64>
 8004ad6:	4403      	add	r3, r0
 8004ad8:	fbb3 f1f5 	udiv	r1, r3, r5
 8004adc:	b289      	uxth	r1, r1
 8004ade:	60a1      	str	r1, [r4, #8]
 8004ae0:	e7e8      	b.n	8004ab4 <usart_baudrate_set+0x4c>
 8004ae2:	bf00      	nop
 8004ae4:	40007800 	andmi	r7, r0, r0, lsl #16
 8004ae8:	40005000 	andmi	r5, r0, r0
 8004aec:	40011000 	andmi	r1, r1, r0

08004af0 <usart_parity_config>:
 8004af0:	68c3      	ldr	r3, [r0, #12]
 8004af2:	f423 63c0 	bic.w	r3, r3, #1536	; 0x600
 8004af6:	60c3      	str	r3, [r0, #12]
 8004af8:	68c3      	ldr	r3, [r0, #12]
 8004afa:	4319      	orrs	r1, r3
 8004afc:	60c1      	str	r1, [r0, #12]
 8004afe:	4770      	bx	lr

08004b00 <usart_word_length_set>:
 8004b00:	68c3      	ldr	r3, [r0, #12]
 8004b02:	f423 5380 	bic.w	r3, r3, #4096	; 0x1000
 8004b06:	60c3      	str	r3, [r0, #12]
 8004b08:	68c3      	ldr	r3, [r0, #12]
 8004b0a:	4319      	orrs	r1, r3
 8004b0c:	60c1      	str	r1, [r0, #12]
 8004b0e:	4770      	bx	lr

08004b10 <usart_stop_bit_set>:
 8004b10:	6903      	ldr	r3, [r0, #16]
 8004b12:	f423 5340 	bic.w	r3, r3, #12288	; 0x3000
 8004b16:	6103      	str	r3, [r0, #16]
 8004b18:	6903      	ldr	r3, [r0, #16]
 8004b1a:	4319      	orrs	r1, r3
 8004b1c:	6101      	str	r1, [r0, #16]
 8004b1e:	4770      	bx	lr

08004b20 <usart_transmit_config>:
 8004b20:	68c3      	ldr	r3, [r0, #12]
 8004b22:	f023 0308 	bic.w	r3, r3, #8
 8004b26:	4319      	orrs	r1, r3
 8004b28:	60c1      	str	r1, [r0, #12]
 8004b2a:	4770      	bx	lr

08004b2c <usart_receive_config>:
 8004b2c:	68c3      	ldr	r3, [r0, #12]
 8004b2e:	f023 0304 	bic.w	r3, r3, #4
 8004b32:	4319      	orrs	r1, r3
 8004b34:	60c1      	str	r1, [r0, #12]
 8004b36:	4770      	bx	lr

08004b38 <usart_hardware_flow_rts_config>:
 8004b38:	6943      	ldr	r3, [r0, #20]
 8004b3a:	f423 7380 	bic.w	r3, r3, #256	; 0x100
 8004b3e:	4319      	orrs	r1, r3
 8004b40:	6141      	str	r1, [r0, #20]
 8004b42:	4770      	bx	lr

08004b44 <usart_hardware_flow_cts_config>:
 8004b44:	6943      	ldr	r3, [r0, #20]
 8004b46:	f423 7300 	bic.w	r3, r3, #512	; 0x200
 8004b4a:	4319      	orrs	r1, r3
 8004b4c:	6141      	str	r1, [r0, #20]
 8004b4e:	4770      	bx	lr

08004b50 <usart_flag_get>:
 8004b50:	098b      	lsrs	r3, r1, #6
 8004b52:	f001 011f 	and.w	r1, r1, #31
 8004b56:	581a      	ldr	r2, [r3, r0]
 8004b58:	2301      	movs	r3, #1
 8004b5a:	408b      	lsls	r3, r1
 8004b5c:	4213      	tst	r3, r2
 8004b5e:	bf14      	ite	ne
 8004b60:	2001      	movne	r0, #1
 8004b62:	2000      	moveq	r0, #0
 8004b64:	4770      	bx	lr
	...

08004b68 <emac_eth_recv>:
 8004b68:	b538      	push	{r3, r4, r5, lr}
 8004b6a:	4605      	mov	r5, r0
 8004b6c:	f001 f9ae 	bl	8005ecc <enet_rxframe_size_get>
 8004b70:	4604      	mov	r4, r0
 8004b72:	b138      	cbz	r0, 8004b84 <emac_eth_recv+0x1c>
 8004b74:	4b05      	ldr	r3, [pc, #20]	; (8004b8c <emac_eth_recv+0x24>)
 8004b76:	2105      	movs	r1, #5
 8004b78:	6818      	ldr	r0, [r3, #0]
 8004b7a:	f001 f94b 	bl	8005e14 <enet_desc_information_get>
 8004b7e:	6028      	str	r0, [r5, #0]
 8004b80:	4620      	mov	r0, r4
 8004b82:	bd38      	pop	{r3, r4, r5, pc}
 8004b84:	f04f 30ff 	mov.w	r0, #4294967295	; 0xffffffff
 8004b88:	e7fb      	b.n	8004b82 <emac_eth_recv+0x1a>
 8004b8a:	bf00      	nop
 8004b8c:	200031ec 	andcs	r3, r0, ip, ror #3

08004b90 <emac_free_pkt>:
 8004b90:	2100      	movs	r1, #0
 8004b92:	4608      	mov	r0, r1
 8004b94:	f000 be5a 	b.w	800584c <enet_frame_receive>

08004b98 <emac_eth_send>:
 8004b98:	f000 bea4 	b.w	80058e4 <enet_frame_transmit>

08004b9c <bkp_data_write(bkp_data_register_enum, unsigned short)>:
 8004b9c:	2801      	cmp	r0, #1
 8004b9e:	bf9c      	itt	ls
 8004ba0:	4b01      	ldrls	r3, [pc, #4]	; (8004ba8 <bkp_data_write(bkp_data_register_enum, unsigned short)+0xc>)
 8004ba2:	f823 1010 	strhls.w	r1, [r3, r0, lsl #1]
 8004ba6:	4770      	bx	lr
 8004ba8:	40024010 	andmi	r4, r2, r0, lsl r0

08004bac <bkp_data_read(bkp_data_register_enum)>:
 8004bac:	2801      	cmp	r0, #1
 8004bae:	bf9d      	ittte	ls
 8004bb0:	4b02      	ldrls	r3, [pc, #8]	; (8004bbc <bkp_data_read(bkp_data_register_enum)+0x10>)
 8004bb2:	f833 0010 	ldrhls.w	r0, [r3, r0, lsl #1]
 8004bb6:	b280      	uxthls	r0, r0
 8004bb8:	2000      	movhi	r0, #0
 8004bba:	4770      	bx	lr
 8004bbc:	40024010 	andmi	r4, r2, r0, lsl r0

08004bc0 <gd32_adc_init()>:
 8004bc0:	b510      	push	{r4, lr}
 8004bc2:	f241 1008 	movw	r0, #4360	; 0x1108
 8004bc6:	4c24      	ldr	r4, [pc, #144]	; (8004c58 <gd32_adc_init()+0x98>)
 8004bc8:	f7ff fd52 	bl	8004670 <rcu_periph_clock_enable>
 8004bcc:	f44f 3000 	mov.w	r0, #131072	; 0x20000
 8004bd0:	f000 fce6 	bl	80055a0 <adc_clock_config>
 8004bd4:	4620      	mov	r0, r4
 8004bd6:	2203      	movs	r2, #3
 8004bd8:	2102      	movs	r1, #2
 8004bda:	f000 fd63 	bl	80056a4 <adc_channel_length_config>
 8004bde:	4620      	mov	r0, r4
 8004be0:	2306      	movs	r3, #6
 8004be2:	2210      	movs	r2, #16
 8004be4:	2100      	movs	r1, #0
 8004be6:	f000 fd7a 	bl	80056de <adc_inserted_channel_config>
 8004bea:	4620      	mov	r0, r4
 8004bec:	2306      	movs	r3, #6
 8004bee:	2211      	movs	r2, #17
 8004bf0:	2101      	movs	r1, #1
 8004bf2:	f000 fd74 	bl	80056de <adc_inserted_channel_config>
 8004bf6:	2306      	movs	r3, #6
 8004bf8:	4620      	mov	r0, r4
 8004bfa:	2212      	movs	r2, #18
 8004bfc:	2102      	movs	r1, #2
 8004bfe:	f000 fd6e 	bl	80056de <adc_inserted_channel_config>
 8004c02:	2200      	movs	r2, #0
 8004c04:	4620      	mov	r0, r4
 8004c06:	2102      	movs	r1, #2
 8004c08:	f000 fd98 	bl	800573c <adc_external_trigger_config>
 8004c0c:	4620      	mov	r0, r4
 8004c0e:	2100      	movs	r1, #0
 8004c10:	f000 fcfe 	bl	8005610 <adc_data_alignment_config>
 8004c14:	2201      	movs	r2, #1
 8004c16:	4620      	mov	r0, r4
 8004c18:	f44f 7180 	mov.w	r1, #256	; 0x100
 8004c1c:	f000 fcd0 	bl	80055c0 <adc_special_function_config>
 8004c20:	2101      	movs	r1, #1
 8004c22:	f44f 0080 	mov.w	r0, #4194304	; 0x400000
 8004c26:	f000 fd15 	bl	8005654 <adc_channel_16_to_18>
 8004c2a:	2101      	movs	r1, #1
 8004c2c:	f44f 0000 	mov.w	r0, #8388608	; 0x800000
 8004c30:	f000 fd10 	bl	8005654 <adc_channel_16_to_18>
 8004c34:	4620      	mov	r0, r4
 8004c36:	f000 fcf4 	bl	8005622 <adc_enable>
 8004c3a:	2100      	movs	r1, #0
 8004c3c:	f44f 707a 	mov.w	r0, #1000	; 0x3e8
 8004c40:	f000 fb74 	bl	800532c <udelay(unsigned int, unsigned int)>
 8004c44:	4620      	mov	r0, r4
 8004c46:	f000 fcf4 	bl	8005632 <adc_calibration_enable>
 8004c4a:	4620      	mov	r0, r4
 8004c4c:	2102      	movs	r1, #2
 8004c4e:	e8bd 4010 	ldmia.w	sp!, {r4, lr}
 8004c52:	f000 bd89 	b.w	8005768 <adc_software_trigger_enable>
 8004c56:	bf00      	nop
 8004c58:	40012000 	andmi	r2, r1, r0

08004c5c <_stop() [clone .isra.0]>:
 8004c5c:	b508      	push	{r3, lr}
 8004c5e:	4806      	ldr	r0, [pc, #24]	; (8004c78 <_stop() [clone .isra.0]+0x1c>)
 8004c60:	f001 f9fc 	bl	800605c <i2c_stop_on_bus>
 8004c64:	4905      	ldr	r1, [pc, #20]	; (8004c7c <_stop() [clone .isra.0]+0x20>)
 8004c66:	f640 73ff 	movw	r3, #4095	; 0xfff
 8004c6a:	f8d1 2400 	ldr.w	r2, [r1, #1024]	; 0x400
 8004c6e:	0592      	lsls	r2, r2, #22
 8004c70:	d501      	bpl.n	8004c76 <_stop() [clone .isra.0]+0x1a>
 8004c72:	3b01      	subs	r3, #1
 8004c74:	d1f9      	bne.n	8004c6a <_stop() [clone .isra.0]+0xe>
 8004c76:	bd08      	pop	{r3, pc}
 8004c78:	40005400 	andmi	r5, r0, r0, lsl #8
 8004c7c:	40005000 	andmi	r5, r0, r0

08004c80 <gd32_i2c_begin>:
 8004c80:	b508      	push	{r3, lr}
 8004c82:	f241 0015 	movw	r0, #4117	; 0x1015
 8004c86:	f7ff fcf3 	bl	8004670 <rcu_periph_clock_enable>
 8004c8a:	f640 4001 	movw	r0, #3073	; 0xc01
 8004c8e:	f7ff fcef 	bl	8004670 <rcu_periph_clock_enable>
 8004c92:	f640 4001 	movw	r0, #3073	; 0xc01
 8004c96:	f7ff fceb 	bl	8004670 <rcu_periph_clock_enable>
 8004c9a:	481b      	ldr	r0, [pc, #108]	; (8004d08 <gd32_i2c_begin+0x88>)
 8004c9c:	f44f 7280 	mov.w	r2, #256	; 0x100
 8004ca0:	2104      	movs	r1, #4
 8004ca2:	f7ff fca4 	bl	80045ee <gpio_af_set>
 8004ca6:	4818      	ldr	r0, [pc, #96]	; (8004d08 <gd32_i2c_begin+0x88>)
 8004ca8:	f44f 7200 	mov.w	r2, #512	; 0x200
 8004cac:	2104      	movs	r1, #4
 8004cae:	f7ff fc9e 	bl	80045ee <gpio_af_set>
 8004cb2:	4815      	ldr	r0, [pc, #84]	; (8004d08 <gd32_i2c_begin+0x88>)
 8004cb4:	f44f 7380 	mov.w	r3, #256	; 0x100
 8004cb8:	2201      	movs	r2, #1
 8004cba:	2102      	movs	r1, #2
 8004cbc:	f7ff fc56 	bl	800456c <gpio_mode_set>
 8004cc0:	4811      	ldr	r0, [pc, #68]	; (8004d08 <gd32_i2c_begin+0x88>)
 8004cc2:	f44f 7380 	mov.w	r3, #256	; 0x100
 8004cc6:	2202      	movs	r2, #2
 8004cc8:	2101      	movs	r1, #1
 8004cca:	f7ff fc6f 	bl	80045ac <gpio_output_options_set>
 8004cce:	480e      	ldr	r0, [pc, #56]	; (8004d08 <gd32_i2c_begin+0x88>)
 8004cd0:	f44f 7300 	mov.w	r3, #512	; 0x200
 8004cd4:	2201      	movs	r2, #1
 8004cd6:	2102      	movs	r1, #2
 8004cd8:	f7ff fc48 	bl	800456c <gpio_mode_set>
 8004cdc:	f44f 7300 	mov.w	r3, #512	; 0x200
 8004ce0:	4809      	ldr	r0, [pc, #36]	; (8004d08 <gd32_i2c_begin+0x88>)
 8004ce2:	2202      	movs	r2, #2
 8004ce4:	2101      	movs	r1, #1
 8004ce6:	f7ff fc61 	bl	80045ac <gpio_output_options_set>
 8004cea:	4908      	ldr	r1, [pc, #32]	; (8004d0c <gd32_i2c_begin+0x8c>)
 8004cec:	4808      	ldr	r0, [pc, #32]	; (8004d10 <gd32_i2c_begin+0x90>)
 8004cee:	2200      	movs	r2, #0
 8004cf0:	f001 f934 	bl	8005f5c <i2c_clock_config>
 8004cf4:	4806      	ldr	r0, [pc, #24]	; (8004d10 <gd32_i2c_begin+0x90>)
 8004cf6:	f001 f9a7 	bl	8006048 <i2c_enable>
 8004cfa:	e8bd 4008 	ldmia.w	sp!, {r3, lr}
 8004cfe:	4804      	ldr	r0, [pc, #16]	; (8004d10 <gd32_i2c_begin+0x90>)
 8004d00:	2101      	movs	r1, #1
 8004d02:	f001 b987 	b.w	8006014 <i2c_ack_config>
 8004d06:	bf00      	nop
 8004d08:	40020400 	andmi	r0, r2, r0, lsl #8
 8004d0c:	00061a80 	andeq	r1, r6, r0, lsl #21
 8004d10:	40005400 	andmi	r5, r0, r0, lsl #8

08004d14 <gd32_i2c_set_baudrate>:
 8004d14:	4601      	mov	r1, r0
 8004d16:	2200      	movs	r2, #0
 8004d18:	4801      	ldr	r0, [pc, #4]	; (8004d20 <gd32_i2c_set_baudrate+0xc>)
 8004d1a:	f001 b91f 	b.w	8005f5c <i2c_clock_config>
 8004d1e:	bf00      	nop
 8004d20:	40005400 	andmi	r5, r0, r0, lsl #8

08004d24 <gd32_i2c_set_address>:
 8004d24:	4b01      	ldr	r3, [pc, #4]	; (8004d2c <gd32_i2c_set_address+0x8>)
 8004d26:	0040      	lsls	r0, r0, #1
 8004d28:	7018      	strb	r0, [r3, #0]
 8004d2a:	4770      	bx	lr
 8004d2c:	200031e0 	andcs	r3, r0, r0, ror #3

08004d30 <gd32_i2c_write>:
 8004d30:	b5f8      	push	{r3, r4, r5, r6, r7, lr}
 8004d32:	4e30      	ldr	r6, [pc, #192]	; (8004df4 <gd32_i2c_write+0xc4>)
 8004d34:	4604      	mov	r4, r0
 8004d36:	460f      	mov	r7, r1
 8004d38:	f640 75ff 	movw	r5, #4095	; 0xfff
 8004d3c:	f240 6101 	movw	r1, #1537	; 0x601
 8004d40:	4630      	mov	r0, r6
 8004d42:	f001 f995 	bl	8006070 <i2c_flag_get>
 8004d46:	b9b0      	cbnz	r0, 8004d76 <gd32_i2c_write+0x46>
 8004d48:	482a      	ldr	r0, [pc, #168]	; (8004df4 <gd32_i2c_write+0xc4>)
 8004d4a:	4e2a      	ldr	r6, [pc, #168]	; (8004df4 <gd32_i2c_write+0xc4>)
 8004d4c:	f001 f981 	bl	8006052 <i2c_start_on_bus>
 8004d50:	f640 75ff 	movw	r5, #4095	; 0xfff
 8004d54:	f44f 61a0 	mov.w	r1, #1280	; 0x500
 8004d58:	4630      	mov	r0, r6
 8004d5a:	f001 f989 	bl	8006070 <i2c_flag_get>
 8004d5e:	b190      	cbz	r0, 8004d86 <gd32_i2c_write+0x56>
 8004d60:	4b25      	ldr	r3, [pc, #148]	; (8004df8 <gd32_i2c_write+0xc8>)
 8004d62:	4824      	ldr	r0, [pc, #144]	; (8004df4 <gd32_i2c_write+0xc4>)
 8004d64:	7819      	ldrb	r1, [r3, #0]
 8004d66:	4e23      	ldr	r6, [pc, #140]	; (8004df4 <gd32_i2c_write+0xc4>)
 8004d68:	f06f 0201 	mvn.w	r2, #1
 8004d6c:	f001 f964 	bl	8006038 <i2c_master_addressing>
 8004d70:	f640 75ff 	movw	r5, #4095	; 0xfff
 8004d74:	e00c      	b.n	8004d90 <gd32_i2c_write+0x60>
 8004d76:	3d01      	subs	r5, #1
 8004d78:	d1e0      	bne.n	8004d3c <gd32_i2c_write+0xc>
 8004d7a:	f7ff ff6f 	bl	8004c5c <_stop() [clone .isra.0]>
 8004d7e:	f04f 30ff 	mov.w	r0, #4294967295	; 0xffffffff
 8004d82:	4240      	negs	r0, r0
 8004d84:	bdf8      	pop	{r3, r4, r5, r6, r7, pc}
 8004d86:	3d01      	subs	r5, #1
 8004d88:	d1e4      	bne.n	8004d54 <gd32_i2c_write+0x24>
 8004d8a:	e7f6      	b.n	8004d7a <gd32_i2c_write+0x4a>
 8004d8c:	3d01      	subs	r5, #1
 8004d8e:	d0f4      	beq.n	8004d7a <gd32_i2c_write+0x4a>
 8004d90:	f240 5101 	movw	r1, #1281	; 0x501
 8004d94:	4630      	mov	r0, r6
 8004d96:	f001 f96b 	bl	8006070 <i2c_flag_get>
 8004d9a:	2800      	cmp	r0, #0
 8004d9c:	d0f6      	beq.n	8004d8c <gd32_i2c_write+0x5c>
 8004d9e:	4815      	ldr	r0, [pc, #84]	; (8004df4 <gd32_i2c_write+0xc4>)
 8004da0:	4e14      	ldr	r6, [pc, #80]	; (8004df4 <gd32_i2c_write+0xc4>)
 8004da2:	f240 5101 	movw	r1, #1281	; 0x501
 8004da6:	f001 f96e 	bl	8006086 <i2c_flag_clear>
 8004daa:	f640 75ff 	movw	r5, #4095	; 0xfff
 8004dae:	f240 5107 	movw	r1, #1287	; 0x507
 8004db2:	4630      	mov	r0, r6
 8004db4:	f001 f95c 	bl	8006070 <i2c_flag_get>
 8004db8:	2801      	cmp	r0, #1
 8004dba:	d107      	bne.n	8004dcc <gd32_i2c_write+0x9c>
 8004dbc:	4e0d      	ldr	r6, [pc, #52]	; (8004df4 <gd32_i2c_write+0xc4>)
 8004dbe:	4427      	add	r7, r4
 8004dc0:	42a7      	cmp	r7, r4
 8004dc2:	d106      	bne.n	8004dd2 <gd32_i2c_write+0xa2>
 8004dc4:	f7ff ff4a 	bl	8004c5c <_stop() [clone .isra.0]>
 8004dc8:	2000      	movs	r0, #0
 8004dca:	e7da      	b.n	8004d82 <gd32_i2c_write+0x52>
 8004dcc:	3d01      	subs	r5, #1
 8004dce:	d1ee      	bne.n	8004dae <gd32_i2c_write+0x7e>
 8004dd0:	e7d3      	b.n	8004d7a <gd32_i2c_write+0x4a>
 8004dd2:	f814 1b01 	ldrb.w	r1, [r4], #1
 8004dd6:	4630      	mov	r0, r6
 8004dd8:	f001 f945 	bl	8006066 <i2c_data_transmit>
 8004ddc:	f640 75ff 	movw	r5, #4095	; 0xfff
 8004de0:	f240 5102 	movw	r1, #1282	; 0x502
 8004de4:	4630      	mov	r0, r6
 8004de6:	f001 f943 	bl	8006070 <i2c_flag_get>
 8004dea:	2800      	cmp	r0, #0
 8004dec:	d1e8      	bne.n	8004dc0 <gd32_i2c_write+0x90>
 8004dee:	3d01      	subs	r5, #1
 8004df0:	d1f6      	bne.n	8004de0 <gd32_i2c_write+0xb0>
 8004df2:	e7c2      	b.n	8004d7a <gd32_i2c_write+0x4a>
 8004df4:	40005400 	andmi	r5, r0, r0, lsl #8
 8004df8:	200031e0 	andcs	r3, r0, r0, ror #3

08004dfc <gd32_i2c_read>:
 8004dfc:	e92d 43f8 	stmdb	sp!, {r3, r4, r5, r6, r7, r8, r9, lr}
 8004e00:	4f4d      	ldr	r7, [pc, #308]	; (8004f38 <gd32_i2c_read+0x13c>)
 8004e02:	4680      	mov	r8, r0
 8004e04:	460c      	mov	r4, r1
 8004e06:	f640 76ff 	movw	r6, #4095	; 0xfff
 8004e0a:	f240 6101 	movw	r1, #1537	; 0x601
 8004e0e:	4638      	mov	r0, r7
 8004e10:	f001 f92e 	bl	8006070 <i2c_flag_get>
 8004e14:	4605      	mov	r5, r0
 8004e16:	bb08      	cbnz	r0, 8004e5c <gd32_i2c_read+0x60>
 8004e18:	2c02      	cmp	r4, #2
 8004e1a:	d103      	bne.n	8004e24 <gd32_i2c_read+0x28>
 8004e1c:	4601      	mov	r1, r0
 8004e1e:	4846      	ldr	r0, [pc, #280]	; (8004f38 <gd32_i2c_read+0x13c>)
 8004e20:	f001 f901 	bl	8006026 <i2c_ackpos_config>
 8004e24:	4844      	ldr	r0, [pc, #272]	; (8004f38 <gd32_i2c_read+0x13c>)
 8004e26:	4f44      	ldr	r7, [pc, #272]	; (8004f38 <gd32_i2c_read+0x13c>)
 8004e28:	f001 f913 	bl	8006052 <i2c_start_on_bus>
 8004e2c:	f640 76ff 	movw	r6, #4095	; 0xfff
 8004e30:	f44f 61a0 	mov.w	r1, #1280	; 0x500
 8004e34:	4638      	mov	r0, r7
 8004e36:	f001 f91b 	bl	8006070 <i2c_flag_get>
 8004e3a:	b1a8      	cbz	r0, 8004e68 <gd32_i2c_read+0x6c>
 8004e3c:	4b3f      	ldr	r3, [pc, #252]	; (8004f3c <gd32_i2c_read+0x140>)
 8004e3e:	483e      	ldr	r0, [pc, #248]	; (8004f38 <gd32_i2c_read+0x13c>)
 8004e40:	7819      	ldrb	r1, [r3, #0]
 8004e42:	2201      	movs	r2, #1
 8004e44:	f001 f8f8 	bl	8006038 <i2c_master_addressing>
 8004e48:	2c02      	cmp	r4, #2
 8004e4a:	d803      	bhi.n	8004e54 <gd32_i2c_read+0x58>
 8004e4c:	483a      	ldr	r0, [pc, #232]	; (8004f38 <gd32_i2c_read+0x13c>)
 8004e4e:	2100      	movs	r1, #0
 8004e50:	f001 f8e0 	bl	8006014 <i2c_ack_config>
 8004e54:	4f38      	ldr	r7, [pc, #224]	; (8004f38 <gd32_i2c_read+0x13c>)
 8004e56:	f640 76ff 	movw	r6, #4095	; 0xfff
 8004e5a:	e00a      	b.n	8004e72 <gd32_i2c_read+0x76>
 8004e5c:	3e01      	subs	r6, #1
 8004e5e:	d1d4      	bne.n	8004e0a <gd32_i2c_read+0xe>
 8004e60:	f7ff fefc 	bl	8004c5c <_stop() [clone .isra.0]>
 8004e64:	2504      	movs	r5, #4
 8004e66:	e04d      	b.n	8004f04 <gd32_i2c_read+0x108>
 8004e68:	3e01      	subs	r6, #1
 8004e6a:	d1e1      	bne.n	8004e30 <gd32_i2c_read+0x34>
 8004e6c:	e7f8      	b.n	8004e60 <gd32_i2c_read+0x64>
 8004e6e:	3e01      	subs	r6, #1
 8004e70:	d0f6      	beq.n	8004e60 <gd32_i2c_read+0x64>
 8004e72:	f240 5101 	movw	r1, #1281	; 0x501
 8004e76:	4638      	mov	r0, r7
 8004e78:	f001 f8fa 	bl	8006070 <i2c_flag_get>
 8004e7c:	2800      	cmp	r0, #0
 8004e7e:	d0f6      	beq.n	8004e6e <gd32_i2c_read+0x72>
 8004e80:	482d      	ldr	r0, [pc, #180]	; (8004f38 <gd32_i2c_read+0x13c>)
 8004e82:	f240 5101 	movw	r1, #1281	; 0x501
 8004e86:	f001 f8fe 	bl	8006086 <i2c_flag_clear>
 8004e8a:	2c01      	cmp	r4, #1
 8004e8c:	d102      	bne.n	8004e94 <gd32_i2c_read+0x98>
 8004e8e:	482a      	ldr	r0, [pc, #168]	; (8004f38 <gd32_i2c_read+0x13c>)
 8004e90:	f001 f8e4 	bl	800605c <i2c_stop_on_bus>
 8004e94:	4e28      	ldr	r6, [pc, #160]	; (8004f38 <gd32_i2c_read+0x13c>)
 8004e96:	f640 77ff 	movw	r7, #4095	; 0xfff
 8004e9a:	e022      	b.n	8004ee2 <gd32_i2c_read+0xe6>
 8004e9c:	2c03      	cmp	r4, #3
 8004e9e:	d134      	bne.n	8004f0a <gd32_i2c_read+0x10e>
 8004ea0:	f640 79ff 	movw	r9, #4095	; 0xfff
 8004ea4:	e002      	b.n	8004eac <gd32_i2c_read+0xb0>
 8004ea6:	f1b9 0901 	subs.w	r9, r9, #1
 8004eaa:	d0d9      	beq.n	8004e60 <gd32_i2c_read+0x64>
 8004eac:	f240 5102 	movw	r1, #1282	; 0x502
 8004eb0:	4630      	mov	r0, r6
 8004eb2:	f001 f8dd 	bl	8006070 <i2c_flag_get>
 8004eb6:	2800      	cmp	r0, #0
 8004eb8:	d0f5      	beq.n	8004ea6 <gd32_i2c_read+0xaa>
 8004eba:	2100      	movs	r1, #0
 8004ebc:	4630      	mov	r0, r6
 8004ebe:	f001 f8a9 	bl	8006014 <i2c_ack_config>
 8004ec2:	f240 5106 	movw	r1, #1286	; 0x506
 8004ec6:	4630      	mov	r0, r6
 8004ec8:	f001 f8d2 	bl	8006070 <i2c_flag_get>
 8004ecc:	b138      	cbz	r0, 8004ede <gd32_i2c_read+0xe2>
 8004ece:	4630      	mov	r0, r6
 8004ed0:	f001 f8cb 	bl	800606a <i2c_data_receive>
 8004ed4:	f808 0b01 	strb.w	r0, [r8], #1
 8004ed8:	3c01      	subs	r4, #1
 8004eda:	f640 77ff 	movw	r7, #4095	; 0xfff
 8004ede:	3f01      	subs	r7, #1
 8004ee0:	d0be      	beq.n	8004e60 <gd32_i2c_read+0x64>
 8004ee2:	2c00      	cmp	r4, #0
 8004ee4:	d1da      	bne.n	8004e9c <gd32_i2c_read+0xa0>
 8004ee6:	4916      	ldr	r1, [pc, #88]	; (8004f40 <gd32_i2c_read+0x144>)
 8004ee8:	f640 73ff 	movw	r3, #4095	; 0xfff
 8004eec:	f8d1 2400 	ldr.w	r2, [r1, #1024]	; 0x400
 8004ef0:	0592      	lsls	r2, r2, #22
 8004ef2:	d41d      	bmi.n	8004f30 <gd32_i2c_read+0x134>
 8004ef4:	4810      	ldr	r0, [pc, #64]	; (8004f38 <gd32_i2c_read+0x13c>)
 8004ef6:	2101      	movs	r1, #1
 8004ef8:	f001 f88c 	bl	8006014 <i2c_ack_config>
 8004efc:	480e      	ldr	r0, [pc, #56]	; (8004f38 <gd32_i2c_read+0x13c>)
 8004efe:	2101      	movs	r1, #1
 8004f00:	f001 f891 	bl	8006026 <i2c_ackpos_config>
 8004f04:	4628      	mov	r0, r5
 8004f06:	e8bd 83f8 	ldmia.w	sp!, {r3, r4, r5, r6, r7, r8, r9, pc}
 8004f0a:	2c02      	cmp	r4, #2
 8004f0c:	d1d9      	bne.n	8004ec2 <gd32_i2c_read+0xc6>
 8004f0e:	f640 79ff 	movw	r9, #4095	; 0xfff
 8004f12:	e002      	b.n	8004f1a <gd32_i2c_read+0x11e>
 8004f14:	f1b9 0901 	subs.w	r9, r9, #1
 8004f18:	d0a2      	beq.n	8004e60 <gd32_i2c_read+0x64>
 8004f1a:	f240 5102 	movw	r1, #1282	; 0x502
 8004f1e:	4630      	mov	r0, r6
 8004f20:	f001 f8a6 	bl	8006070 <i2c_flag_get>
 8004f24:	2800      	cmp	r0, #0
 8004f26:	d0f5      	beq.n	8004f14 <gd32_i2c_read+0x118>
 8004f28:	4630      	mov	r0, r6
 8004f2a:	f001 f897 	bl	800605c <i2c_stop_on_bus>
 8004f2e:	e7c8      	b.n	8004ec2 <gd32_i2c_read+0xc6>
 8004f30:	3b01      	subs	r3, #1
 8004f32:	d1db      	bne.n	8004eec <gd32_i2c_read+0xf0>
 8004f34:	e796      	b.n	8004e64 <gd32_i2c_read+0x68>
 8004f36:	bf00      	nop
 8004f38:	40005400 	andmi	r5, r0, r0, lsl #8
 8004f3c:	200031e0 	andcs	r3, r0, r0, ror #3
 8004f40:	40005000 	andmi	r5, r0, r0

08004f44 <_gpio_init(unsigned int)>:
 8004f44:	4b90      	ldr	r3, [pc, #576]	; (8005188 <_gpio_init(unsigned int)+0x244>)
 8004f46:	4298      	cmp	r0, r3
 8004f48:	b510      	push	{r4, lr}
 8004f4a:	f000 80f8 	beq.w	800513e <_gpio_init(unsigned int)+0x1fa>
 8004f4e:	d831      	bhi.n	8004fb4 <_gpio_init(unsigned int)+0x70>
 8004f50:	f5a3 5330 	sub.w	r3, r3, #11264	; 0x2c00
 8004f54:	4298      	cmp	r0, r3
 8004f56:	f000 8098 	beq.w	800508a <_gpio_init(unsigned int)+0x146>
 8004f5a:	f200 80ae 	bhi.w	80050ba <_gpio_init(unsigned int)+0x176>
 8004f5e:	f5a3 6300 	sub.w	r3, r3, #2048	; 0x800
 8004f62:	4298      	cmp	r0, r3
 8004f64:	d070      	beq.n	8005048 <_gpio_init(unsigned int)+0x104>
 8004f66:	4889      	ldr	r0, [pc, #548]	; (800518c <_gpio_init(unsigned int)+0x248>)
 8004f68:	f44f 6280 	mov.w	r2, #1024	; 0x400
 8004f6c:	2107      	movs	r1, #7
 8004f6e:	f7ff fb3e 	bl	80045ee <gpio_af_set>
 8004f72:	4886      	ldr	r0, [pc, #536]	; (800518c <_gpio_init(unsigned int)+0x248>)
 8004f74:	f44f 6380 	mov.w	r3, #1024	; 0x400
 8004f78:	2201      	movs	r2, #1
 8004f7a:	2102      	movs	r1, #2
 8004f7c:	f7ff faf6 	bl	800456c <gpio_mode_set>
 8004f80:	2202      	movs	r2, #2
 8004f82:	2100      	movs	r1, #0
 8004f84:	4881      	ldr	r0, [pc, #516]	; (800518c <_gpio_init(unsigned int)+0x248>)
 8004f86:	f44f 6380 	mov.w	r3, #1024	; 0x400
 8004f8a:	f7ff fb0f 	bl	80045ac <gpio_output_options_set>
 8004f8e:	f44f 6200 	mov.w	r2, #2048	; 0x800
 8004f92:	2107      	movs	r1, #7
 8004f94:	487d      	ldr	r0, [pc, #500]	; (800518c <_gpio_init(unsigned int)+0x248>)
 8004f96:	f7ff fb2a 	bl	80045ee <gpio_af_set>
 8004f9a:	f44f 6300 	mov.w	r3, #2048	; 0x800
 8004f9e:	487b      	ldr	r0, [pc, #492]	; (800518c <_gpio_init(unsigned int)+0x248>)
 8004fa0:	2201      	movs	r2, #1
 8004fa2:	2102      	movs	r1, #2
 8004fa4:	f7ff fae2 	bl	800456c <gpio_mode_set>
 8004fa8:	f44f 6300 	mov.w	r3, #2048	; 0x800
 8004fac:	4877      	ldr	r0, [pc, #476]	; (800518c <_gpio_init(unsigned int)+0x248>)
 8004fae:	2202      	movs	r2, #2
 8004fb0:	2100      	movs	r1, #0
 8004fb2:	e045      	b.n	8005040 <_gpio_init(unsigned int)+0xfc>
 8004fb4:	4b76      	ldr	r3, [pc, #472]	; (8005190 <_gpio_init(unsigned int)+0x24c>)
 8004fb6:	4298      	cmp	r0, r3
 8004fb8:	d022      	beq.n	8005000 <_gpio_init(unsigned int)+0xbc>
 8004fba:	f503 6380 	add.w	r3, r3, #1024	; 0x400
 8004fbe:	4298      	cmp	r0, r3
 8004fc0:	f000 809f 	beq.w	8005102 <_gpio_init(unsigned int)+0x1be>
 8004fc4:	4873      	ldr	r0, [pc, #460]	; (8005194 <_gpio_init(unsigned int)+0x250>)
 8004fc6:	2202      	movs	r2, #2
 8004fc8:	2108      	movs	r1, #8
 8004fca:	f7ff fb10 	bl	80045ee <gpio_af_set>
 8004fce:	2302      	movs	r3, #2
 8004fd0:	4619      	mov	r1, r3
 8004fd2:	4870      	ldr	r0, [pc, #448]	; (8005194 <_gpio_init(unsigned int)+0x250>)
 8004fd4:	2201      	movs	r2, #1
 8004fd6:	f7ff fac9 	bl	800456c <gpio_mode_set>
 8004fda:	2302      	movs	r3, #2
 8004fdc:	461a      	mov	r2, r3
 8004fde:	486d      	ldr	r0, [pc, #436]	; (8005194 <_gpio_init(unsigned int)+0x250>)
 8004fe0:	2100      	movs	r1, #0
 8004fe2:	f7ff fae3 	bl	80045ac <gpio_output_options_set>
 8004fe6:	486b      	ldr	r0, [pc, #428]	; (8005194 <_gpio_init(unsigned int)+0x250>)
 8004fe8:	2201      	movs	r2, #1
 8004fea:	2108      	movs	r1, #8
 8004fec:	f7ff faff 	bl	80045ee <gpio_af_set>
 8004ff0:	2301      	movs	r3, #1
 8004ff2:	461a      	mov	r2, r3
 8004ff4:	4867      	ldr	r0, [pc, #412]	; (8005194 <_gpio_init(unsigned int)+0x250>)
 8004ff6:	2102      	movs	r1, #2
 8004ff8:	f7ff fab8 	bl	800456c <gpio_mode_set>
 8004ffc:	2301      	movs	r3, #1
 8004ffe:	e0be      	b.n	800517e <_gpio_init(unsigned int)+0x23a>
 8005000:	4865      	ldr	r0, [pc, #404]	; (8005198 <_gpio_init(unsigned int)+0x254>)
 8005002:	2240      	movs	r2, #64	; 0x40
 8005004:	2107      	movs	r1, #7
 8005006:	f7ff faf2 	bl	80045ee <gpio_af_set>
 800500a:	4863      	ldr	r0, [pc, #396]	; (8005198 <_gpio_init(unsigned int)+0x254>)
 800500c:	2340      	movs	r3, #64	; 0x40
 800500e:	2201      	movs	r2, #1
 8005010:	2102      	movs	r1, #2
 8005012:	f7ff faab 	bl	800456c <gpio_mode_set>
 8005016:	2340      	movs	r3, #64	; 0x40
 8005018:	485f      	ldr	r0, [pc, #380]	; (8005198 <_gpio_init(unsigned int)+0x254>)
 800501a:	2202      	movs	r2, #2
 800501c:	2100      	movs	r1, #0
 800501e:	f7ff fac5 	bl	80045ac <gpio_output_options_set>
 8005022:	485d      	ldr	r0, [pc, #372]	; (8005198 <_gpio_init(unsigned int)+0x254>)
 8005024:	2280      	movs	r2, #128	; 0x80
 8005026:	2107      	movs	r1, #7
 8005028:	f7ff fae1 	bl	80045ee <gpio_af_set>
 800502c:	485a      	ldr	r0, [pc, #360]	; (8005198 <_gpio_init(unsigned int)+0x254>)
 800502e:	2380      	movs	r3, #128	; 0x80
 8005030:	2201      	movs	r2, #1
 8005032:	2102      	movs	r1, #2
 8005034:	f7ff fa9a 	bl	800456c <gpio_mode_set>
 8005038:	4857      	ldr	r0, [pc, #348]	; (8005198 <_gpio_init(unsigned int)+0x254>)
 800503a:	2380      	movs	r3, #128	; 0x80
 800503c:	2202      	movs	r2, #2
 800503e:	2100      	movs	r1, #0
 8005040:	e8bd 4010 	ldmia.w	sp!, {r4, lr}
 8005044:	f7ff bab2 	b.w	80045ac <gpio_output_options_set>
 8005048:	4854      	ldr	r0, [pc, #336]	; (800519c <_gpio_init(unsigned int)+0x258>)
 800504a:	2204      	movs	r2, #4
 800504c:	2107      	movs	r1, #7
 800504e:	f7ff face 	bl	80045ee <gpio_af_set>
 8005052:	4852      	ldr	r0, [pc, #328]	; (800519c <_gpio_init(unsigned int)+0x258>)
 8005054:	2304      	movs	r3, #4
 8005056:	2201      	movs	r2, #1
 8005058:	2102      	movs	r1, #2
 800505a:	f7ff fa87 	bl	800456c <gpio_mode_set>
 800505e:	2304      	movs	r3, #4
 8005060:	484e      	ldr	r0, [pc, #312]	; (800519c <_gpio_init(unsigned int)+0x258>)
 8005062:	2202      	movs	r2, #2
 8005064:	2100      	movs	r1, #0
 8005066:	f7ff faa1 	bl	80045ac <gpio_output_options_set>
 800506a:	484c      	ldr	r0, [pc, #304]	; (800519c <_gpio_init(unsigned int)+0x258>)
 800506c:	2208      	movs	r2, #8
 800506e:	2107      	movs	r1, #7
 8005070:	f7ff fabd 	bl	80045ee <gpio_af_set>
 8005074:	4849      	ldr	r0, [pc, #292]	; (800519c <_gpio_init(unsigned int)+0x258>)
 8005076:	2308      	movs	r3, #8
 8005078:	2201      	movs	r2, #1
 800507a:	2102      	movs	r1, #2
 800507c:	f7ff fa76 	bl	800456c <gpio_mode_set>
 8005080:	4846      	ldr	r0, [pc, #280]	; (800519c <_gpio_init(unsigned int)+0x258>)
 8005082:	2308      	movs	r3, #8
 8005084:	2202      	movs	r2, #2
 8005086:	2100      	movs	r1, #0
 8005088:	e7da      	b.n	8005040 <_gpio_init(unsigned int)+0xfc>
 800508a:	4840      	ldr	r0, [pc, #256]	; (800518c <_gpio_init(unsigned int)+0x248>)
 800508c:	f44f 6280 	mov.w	r2, #1024	; 0x400
 8005090:	2108      	movs	r1, #8
 8005092:	f7ff faac 	bl	80045ee <gpio_af_set>
 8005096:	483d      	ldr	r0, [pc, #244]	; (800518c <_gpio_init(unsigned int)+0x248>)
 8005098:	f44f 6380 	mov.w	r3, #1024	; 0x400
 800509c:	2201      	movs	r2, #1
 800509e:	2102      	movs	r1, #2
 80050a0:	f7ff fa64 	bl	800456c <gpio_mode_set>
 80050a4:	2202      	movs	r2, #2
 80050a6:	2100      	movs	r1, #0
 80050a8:	4838      	ldr	r0, [pc, #224]	; (800518c <_gpio_init(unsigned int)+0x248>)
 80050aa:	f44f 6380 	mov.w	r3, #1024	; 0x400
 80050ae:	f7ff fa7d 	bl	80045ac <gpio_output_options_set>
 80050b2:	f44f 6200 	mov.w	r2, #2048	; 0x800
 80050b6:	2108      	movs	r1, #8
 80050b8:	e76c      	b.n	8004f94 <_gpio_init(unsigned int)+0x50>
 80050ba:	4834      	ldr	r0, [pc, #208]	; (800518c <_gpio_init(unsigned int)+0x248>)
 80050bc:	f44f 5280 	mov.w	r2, #4096	; 0x1000
 80050c0:	2108      	movs	r1, #8
 80050c2:	f7ff fa94 	bl	80045ee <gpio_af_set>
 80050c6:	4831      	ldr	r0, [pc, #196]	; (800518c <_gpio_init(unsigned int)+0x248>)
 80050c8:	f44f 5380 	mov.w	r3, #4096	; 0x1000
 80050cc:	2201      	movs	r2, #1
 80050ce:	2102      	movs	r1, #2
 80050d0:	f7ff fa4c 	bl	800456c <gpio_mode_set>
 80050d4:	f44f 5380 	mov.w	r3, #4096	; 0x1000
 80050d8:	482c      	ldr	r0, [pc, #176]	; (800518c <_gpio_init(unsigned int)+0x248>)
 80050da:	2202      	movs	r2, #2
 80050dc:	2100      	movs	r1, #0
 80050de:	f7ff fa65 	bl	80045ac <gpio_output_options_set>
 80050e2:	482f      	ldr	r0, [pc, #188]	; (80051a0 <_gpio_init(unsigned int)+0x25c>)
 80050e4:	2204      	movs	r2, #4
 80050e6:	2108      	movs	r1, #8
 80050e8:	f7ff fa81 	bl	80045ee <gpio_af_set>
 80050ec:	482c      	ldr	r0, [pc, #176]	; (80051a0 <_gpio_init(unsigned int)+0x25c>)
 80050ee:	2304      	movs	r3, #4
 80050f0:	2201      	movs	r2, #1
 80050f2:	2102      	movs	r1, #2
 80050f4:	f7ff fa3a 	bl	800456c <gpio_mode_set>
 80050f8:	4829      	ldr	r0, [pc, #164]	; (80051a0 <_gpio_init(unsigned int)+0x25c>)
 80050fa:	2304      	movs	r3, #4
 80050fc:	2202      	movs	r2, #2
 80050fe:	2100      	movs	r1, #0
 8005100:	e79e      	b.n	8005040 <_gpio_init(unsigned int)+0xfc>
 8005102:	4822      	ldr	r0, [pc, #136]	; (800518c <_gpio_init(unsigned int)+0x248>)
 8005104:	2240      	movs	r2, #64	; 0x40
 8005106:	2108      	movs	r1, #8
 8005108:	f7ff fa71 	bl	80045ee <gpio_af_set>
 800510c:	481f      	ldr	r0, [pc, #124]	; (800518c <_gpio_init(unsigned int)+0x248>)
 800510e:	2340      	movs	r3, #64	; 0x40
 8005110:	2201      	movs	r2, #1
 8005112:	2102      	movs	r1, #2
 8005114:	f7ff fa2a 	bl	800456c <gpio_mode_set>
 8005118:	2340      	movs	r3, #64	; 0x40
 800511a:	481c      	ldr	r0, [pc, #112]	; (800518c <_gpio_init(unsigned int)+0x248>)
 800511c:	2202      	movs	r2, #2
 800511e:	2100      	movs	r1, #0
 8005120:	f7ff fa44 	bl	80045ac <gpio_output_options_set>
 8005124:	4819      	ldr	r0, [pc, #100]	; (800518c <_gpio_init(unsigned int)+0x248>)
 8005126:	2280      	movs	r2, #128	; 0x80
 8005128:	2108      	movs	r1, #8
 800512a:	f7ff fa60 	bl	80045ee <gpio_af_set>
 800512e:	2380      	movs	r3, #128	; 0x80
 8005130:	4816      	ldr	r0, [pc, #88]	; (800518c <_gpio_init(unsigned int)+0x248>)
 8005132:	2201      	movs	r2, #1
 8005134:	2102      	movs	r1, #2
 8005136:	f7ff fa19 	bl	800456c <gpio_mode_set>
 800513a:	2380      	movs	r3, #128	; 0x80
 800513c:	e736      	b.n	8004fac <_gpio_init(unsigned int)+0x68>
 800513e:	4815      	ldr	r0, [pc, #84]	; (8005194 <_gpio_init(unsigned int)+0x250>)
 8005140:	f44f 7280 	mov.w	r2, #256	; 0x100
 8005144:	2108      	movs	r1, #8
 8005146:	f7ff fa52 	bl	80045ee <gpio_af_set>
 800514a:	4812      	ldr	r0, [pc, #72]	; (8005194 <_gpio_init(unsigned int)+0x250>)
 800514c:	f44f 7380 	mov.w	r3, #256	; 0x100
 8005150:	2201      	movs	r2, #1
 8005152:	2102      	movs	r1, #2
 8005154:	f7ff fa0a 	bl	800456c <gpio_mode_set>
 8005158:	f44f 7380 	mov.w	r3, #256	; 0x100
 800515c:	480d      	ldr	r0, [pc, #52]	; (8005194 <_gpio_init(unsigned int)+0x250>)
 800515e:	2202      	movs	r2, #2
 8005160:	2100      	movs	r1, #0
 8005162:	f7ff fa23 	bl	80045ac <gpio_output_options_set>
 8005166:	480b      	ldr	r0, [pc, #44]	; (8005194 <_gpio_init(unsigned int)+0x250>)
 8005168:	2280      	movs	r2, #128	; 0x80
 800516a:	2108      	movs	r1, #8
 800516c:	f7ff fa3f 	bl	80045ee <gpio_af_set>
 8005170:	2380      	movs	r3, #128	; 0x80
 8005172:	4808      	ldr	r0, [pc, #32]	; (8005194 <_gpio_init(unsigned int)+0x250>)
 8005174:	2201      	movs	r2, #1
 8005176:	2102      	movs	r1, #2
 8005178:	f7ff f9f8 	bl	800456c <gpio_mode_set>
 800517c:	2380      	movs	r3, #128	; 0x80
 800517e:	4805      	ldr	r0, [pc, #20]	; (8005194 <_gpio_init(unsigned int)+0x250>)
 8005180:	2202      	movs	r2, #2
 8005182:	2100      	movs	r1, #0
 8005184:	e75c      	b.n	8005040 <_gpio_init(unsigned int)+0xfc>
 8005186:	bf00      	nop
 8005188:	40007800 	andmi	r7, r0, r0, lsl #16
 800518c:	40020800 	andmi	r0, r2, r0, lsl #16
 8005190:	40011000 	andmi	r1, r1, r0
 8005194:	40021000 	andmi	r1, r2, r0
 8005198:	40020400 	andmi	r0, r2, r0, lsl #8
 800519c:	40020000 	andmi	r0, r2, r0
 80051a0:	40020c00 	andmi	r0, r2, r0, lsl #24

080051a4 <gd32_uart_begin>:
 80051a4:	b5f8      	push	{r3, r4, r5, r6, r7, lr}
 80051a6:	461e      	mov	r6, r3
 80051a8:	4b44      	ldr	r3, [pc, #272]	; (80052bc <gd32_uart_begin+0x118>)
 80051aa:	4298      	cmp	r0, r3
 80051ac:	4604      	mov	r4, r0
 80051ae:	460f      	mov	r7, r1
 80051b0:	4615      	mov	r5, r2
 80051b2:	d076      	beq.n	80052a2 <gd32_uart_begin+0xfe>
 80051b4:	d80f      	bhi.n	80051d6 <gd32_uart_begin+0x32>
 80051b6:	f5a3 5330 	sub.w	r3, r3, #11264	; 0x2c00
 80051ba:	4298      	cmp	r0, r3
 80051bc:	d060      	beq.n	8005280 <gd32_uart_begin+0xdc>
 80051be:	d862      	bhi.n	8005286 <gd32_uart_begin+0xe2>
 80051c0:	f5a3 6300 	sub.w	r3, r3, #2048	; 0x800
 80051c4:	4298      	cmp	r0, r3
 80051c6:	d054      	beq.n	8005272 <gd32_uart_begin+0xce>
 80051c8:	f241 0012 	movw	r0, #4114	; 0x1012
 80051cc:	f7ff fa50 	bl	8004670 <rcu_periph_clock_enable>
 80051d0:	f640 4002 	movw	r0, #3074	; 0xc02
 80051d4:	e00f      	b.n	80051f6 <gd32_uart_begin+0x52>
 80051d6:	4b3a      	ldr	r3, [pc, #232]	; (80052c0 <gd32_uart_begin+0x11c>)
 80051d8:	4298      	cmp	r0, r3
 80051da:	d006      	beq.n	80051ea <gd32_uart_begin+0x46>
 80051dc:	f503 6380 	add.w	r3, r3, #1024	; 0x400
 80051e0:	4298      	cmp	r0, r3
 80051e2:	d05b      	beq.n	800529c <gd32_uart_begin+0xf8>
 80051e4:	f241 001f 	movw	r0, #4127	; 0x101f
 80051e8:	e05d      	b.n	80052a6 <gd32_uart_begin+0x102>
 80051ea:	f241 1004 	movw	r0, #4356	; 0x1104
 80051ee:	f7ff fa3f 	bl	8004670 <rcu_periph_clock_enable>
 80051f2:	f640 4001 	movw	r0, #3073	; 0xc01
 80051f6:	f7ff fa3b 	bl	8004670 <rcu_periph_clock_enable>
 80051fa:	4620      	mov	r0, r4
 80051fc:	f7ff fea2 	bl	8004f44 <_gpio_init(unsigned int)>
 8005200:	4620      	mov	r0, r4
 8005202:	f7ff fbcf 	bl	80049a4 <usart_deinit>
 8005206:	68e3      	ldr	r3, [r4, #12]
 8005208:	f423 5300 	bic.w	r3, r3, #8192	; 0x2000
 800520c:	60e3      	str	r3, [r4, #12]
 800520e:	4639      	mov	r1, r7
 8005210:	4620      	mov	r0, r4
 8005212:	f7ff fc29 	bl	8004a68 <usart_baudrate_set>
 8005216:	f1a5 0309 	sub.w	r3, r5, #9
 800521a:	4259      	negs	r1, r3
 800521c:	4159      	adcs	r1, r3
 800521e:	0309      	lsls	r1, r1, #12
 8005220:	4620      	mov	r0, r4
 8005222:	f7ff fc6d 	bl	8004b00 <usart_word_length_set>
 8005226:	9906      	ldr	r1, [sp, #24]
 8005228:	1e8a      	subs	r2, r1, #2
 800522a:	4251      	negs	r1, r2
 800522c:	4151      	adcs	r1, r2
 800522e:	0349      	lsls	r1, r1, #13
 8005230:	4620      	mov	r0, r4
 8005232:	f7ff fc6d 	bl	8004b10 <usart_stop_bit_set>
 8005236:	2e01      	cmp	r6, #1
 8005238:	d03a      	beq.n	80052b0 <gd32_uart_begin+0x10c>
 800523a:	2e02      	cmp	r6, #2
 800523c:	d13b      	bne.n	80052b6 <gd32_uart_begin+0x112>
 800523e:	f44f 6180 	mov.w	r1, #1024	; 0x400
 8005242:	4620      	mov	r0, r4
 8005244:	f7ff fc54 	bl	8004af0 <usart_parity_config>
 8005248:	2100      	movs	r1, #0
 800524a:	4620      	mov	r0, r4
 800524c:	f7ff fc74 	bl	8004b38 <usart_hardware_flow_rts_config>
 8005250:	2100      	movs	r1, #0
 8005252:	4620      	mov	r0, r4
 8005254:	f7ff fc76 	bl	8004b44 <usart_hardware_flow_cts_config>
 8005258:	2104      	movs	r1, #4
 800525a:	4620      	mov	r0, r4
 800525c:	f7ff fc66 	bl	8004b2c <usart_receive_config>
 8005260:	2108      	movs	r1, #8
 8005262:	4620      	mov	r0, r4
 8005264:	f7ff fc5c 	bl	8004b20 <usart_transmit_config>
 8005268:	68e3      	ldr	r3, [r4, #12]
 800526a:	f443 5300 	orr.w	r3, r3, #8192	; 0x2000
 800526e:	60e3      	str	r3, [r4, #12]
 8005270:	bdf8      	pop	{r3, r4, r5, r6, r7, pc}
 8005272:	f241 0011 	movw	r0, #4113	; 0x1011
 8005276:	f7ff f9fb 	bl	8004670 <rcu_periph_clock_enable>
 800527a:	f44f 6040 	mov.w	r0, #3072	; 0xc00
 800527e:	e7ba      	b.n	80051f6 <gd32_uart_begin+0x52>
 8005280:	f241 0013 	movw	r0, #4115	; 0x1013
 8005284:	e7a2      	b.n	80051cc <gd32_uart_begin+0x28>
 8005286:	f241 0014 	movw	r0, #4116	; 0x1014
 800528a:	f7ff f9f1 	bl	8004670 <rcu_periph_clock_enable>
 800528e:	f640 4002 	movw	r0, #3074	; 0xc02
 8005292:	f7ff f9ed 	bl	8004670 <rcu_periph_clock_enable>
 8005296:	f640 4003 	movw	r0, #3075	; 0xc03
 800529a:	e7ac      	b.n	80051f6 <gd32_uart_begin+0x52>
 800529c:	f241 1005 	movw	r0, #4357	; 0x1105
 80052a0:	e794      	b.n	80051cc <gd32_uart_begin+0x28>
 80052a2:	f241 001e 	movw	r0, #4126	; 0x101e
 80052a6:	f7ff f9e3 	bl	8004670 <rcu_periph_clock_enable>
 80052aa:	f640 4004 	movw	r0, #3076	; 0xc04
 80052ae:	e7a2      	b.n	80051f6 <gd32_uart_begin+0x52>
 80052b0:	f44f 61c0 	mov.w	r1, #1536	; 0x600
 80052b4:	e7c5      	b.n	8005242 <gd32_uart_begin+0x9e>
 80052b6:	2100      	movs	r1, #0
 80052b8:	e7c3      	b.n	8005242 <gd32_uart_begin+0x9e>
 80052ba:	bf00      	nop
 80052bc:	40007800 	andmi	r7, r0, r0, lsl #16
 80052c0:	40011000 	andmi	r1, r1, r0

080052c4 <micros_init()>:
 80052c4:	b51f      	push	{r0, r1, r2, r3, r4, lr}
 80052c6:	f241 0003 	movw	r0, #4099	; 0x1003
 80052ca:	f7ff f9d1 	bl	8004670 <rcu_periph_clock_enable>
 80052ce:	480c      	ldr	r0, [pc, #48]	; (8005300 <micros_init()+0x3c>)
 80052d0:	f7ff fa7e 	bl	80047d0 <timer_deinit>
 80052d4:	f04f 4280 	mov.w	r2, #1073741824	; 0x40000000
 80052d8:	2300      	movs	r3, #0
 80052da:	f8c2 3c24 	str.w	r3, [r2, #3108]	; 0xc24
 80052de:	22a7      	movs	r2, #167	; 0xa7
 80052e0:	e9cd 2300 	strd	r2, r3, [sp]
 80052e4:	4669      	mov	r1, sp
 80052e6:	f04f 33ff 	mov.w	r3, #4294967295	; 0xffffffff
 80052ea:	4805      	ldr	r0, [pc, #20]	; (8005300 <micros_init()+0x3c>)
 80052ec:	9302      	str	r3, [sp, #8]
 80052ee:	f7ff fb15 	bl	800491c <timer_init>
 80052f2:	4803      	ldr	r0, [pc, #12]	; (8005300 <micros_init()+0x3c>)
 80052f4:	f7ff fb50 	bl	8004998 <timer_enable>
 80052f8:	b005      	add	sp, #20
 80052fa:	f85d fb04 	ldr.w	pc, [sp], #4
 80052fe:	bf00      	nop
 8005300:	40000c00 	andmi	r0, r0, r0, lsl #24

08005304 <udelay_init()>:
 8005304:	4a07      	ldr	r2, [pc, #28]	; (8005324 <udelay_init()+0x20>)
 8005306:	f8d2 30fc 	ldr.w	r3, [r2, #252]	; 0xfc
 800530a:	f043 7380 	orr.w	r3, r3, #16777216	; 0x1000000
 800530e:	f8c2 30fc 	str.w	r3, [r2, #252]	; 0xfc
 8005312:	4b05      	ldr	r3, [pc, #20]	; (8005328 <udelay_init()+0x24>)
 8005314:	2200      	movs	r2, #0
 8005316:	605a      	str	r2, [r3, #4]
 8005318:	681a      	ldr	r2, [r3, #0]
 800531a:	f042 0201 	orr.w	r2, r2, #1
 800531e:	601a      	str	r2, [r3, #0]
 8005320:	4770      	bx	lr
 8005322:	bf00      	nop
 8005324:	e000ed00 	and	lr, r0, r0, lsl #26
 8005328:	e0001000 	and	r1, r0, r0

0800532c <udelay(unsigned int, unsigned int)>:
 800532c:	23a8      	movs	r3, #168	; 0xa8
 800532e:	b530      	push	{r4, r5, lr}
 8005330:	4358      	muls	r0, r3
 8005332:	b909      	cbnz	r1, 8005338 <udelay(unsigned int, unsigned int)+0xc>
 8005334:	4b08      	ldr	r3, [pc, #32]	; (8005358 <udelay(unsigned int, unsigned int)+0x2c>)
 8005336:	6859      	ldr	r1, [r3, #4]
 8005338:	4c07      	ldr	r4, [pc, #28]	; (8005358 <udelay(unsigned int, unsigned int)+0x2c>)
 800533a:	2300      	movs	r3, #0
 800533c:	6862      	ldr	r2, [r4, #4]
 800533e:	4291      	cmp	r1, r2
 8005340:	d0fc      	beq.n	800533c <udelay(unsigned int, unsigned int)+0x10>
 8005342:	bf2a      	itet	cs
 8005344:	f102 35ff 	addcs.w	r5, r2, #4294967295	; 0xffffffff
 8005348:	189b      	addcc	r3, r3, r2
 800534a:	195b      	addcs	r3, r3, r5
 800534c:	1a5b      	subs	r3, r3, r1
 800534e:	4283      	cmp	r3, r0
 8005350:	d300      	bcc.n	8005354 <udelay(unsigned int, unsigned int)+0x28>
 8005352:	bd30      	pop	{r4, r5, pc}
 8005354:	4611      	mov	r1, r2
 8005356:	e7f1      	b.n	800533c <udelay(unsigned int, unsigned int)+0x10>
 8005358:	e0001000 	and	r1, r0, r0

0800535c <emac_start(unsigned char*)>:
 800535c:	b538      	push	{r3, r4, r5, lr}
 800535e:	4605      	mov	r5, r0
 8005360:	f44f 6040 	mov.w	r0, #3072	; 0xc00
 8005364:	f7ff f984 	bl	8004670 <rcu_periph_clock_enable>
 8005368:	f640 4001 	movw	r0, #3073	; 0xc01
 800536c:	f7ff f980 	bl	8004670 <rcu_periph_clock_enable>
 8005370:	f640 4002 	movw	r0, #3074	; 0xc02
 8005374:	f7ff f97c 	bl	8004670 <rcu_periph_clock_enable>
 8005378:	f241 100e 	movw	r0, #4366	; 0x110e
 800537c:	f7ff f978 	bl	8004670 <rcu_periph_clock_enable>
 8005380:	487a      	ldr	r0, [pc, #488]	; (800556c <emac_start(unsigned char*)+0x210>)
 8005382:	f44f 7280 	mov.w	r2, #256	; 0x100
 8005386:	2100      	movs	r1, #0
 8005388:	f7ff f931 	bl	80045ee <gpio_af_set>
 800538c:	4877      	ldr	r0, [pc, #476]	; (800556c <emac_start(unsigned char*)+0x210>)
 800538e:	f44f 7380 	mov.w	r3, #256	; 0x100
 8005392:	2200      	movs	r2, #0
 8005394:	2102      	movs	r1, #2
 8005396:	f7ff f8e9 	bl	800456c <gpio_mode_set>
 800539a:	f44f 7380 	mov.w	r3, #256	; 0x100
 800539e:	2203      	movs	r2, #3
 80053a0:	4872      	ldr	r0, [pc, #456]	; (800556c <emac_start(unsigned char*)+0x210>)
 80053a2:	2100      	movs	r1, #0
 80053a4:	f7ff f902 	bl	80045ac <gpio_output_options_set>
 80053a8:	f04f 61c0 	mov.w	r1, #100663296	; 0x6000000
 80053ac:	f44f 00c0 	mov.w	r0, #6291456	; 0x600000
 80053b0:	f7ff f97e 	bl	80046b0 <rcu_ckout0_config>
 80053b4:	f44f 0000 	mov.w	r0, #8388608	; 0x800000
 80053b8:	f000 fe78 	bl	80060ac <syscfg_enet_phy_interface_config>
 80053bc:	2302      	movs	r3, #2
 80053be:	4619      	mov	r1, r3
 80053c0:	486a      	ldr	r0, [pc, #424]	; (800556c <emac_start(unsigned char*)+0x210>)
 80053c2:	2200      	movs	r2, #0
 80053c4:	f7ff f8d2 	bl	800456c <gpio_mode_set>
 80053c8:	4868      	ldr	r0, [pc, #416]	; (800556c <emac_start(unsigned char*)+0x210>)
 80053ca:	2302      	movs	r3, #2
 80053cc:	2203      	movs	r2, #3
 80053ce:	2100      	movs	r1, #0
 80053d0:	f7ff f8ec 	bl	80045ac <gpio_output_options_set>
 80053d4:	4865      	ldr	r0, [pc, #404]	; (800556c <emac_start(unsigned char*)+0x210>)
 80053d6:	2304      	movs	r3, #4
 80053d8:	2200      	movs	r2, #0
 80053da:	2102      	movs	r1, #2
 80053dc:	f7ff f8c6 	bl	800456c <gpio_mode_set>
 80053e0:	4862      	ldr	r0, [pc, #392]	; (800556c <emac_start(unsigned char*)+0x210>)
 80053e2:	2304      	movs	r3, #4
 80053e4:	2203      	movs	r2, #3
 80053e6:	2100      	movs	r1, #0
 80053e8:	f7ff f8e0 	bl	80045ac <gpio_output_options_set>
 80053ec:	485f      	ldr	r0, [pc, #380]	; (800556c <emac_start(unsigned char*)+0x210>)
 80053ee:	2380      	movs	r3, #128	; 0x80
 80053f0:	2200      	movs	r2, #0
 80053f2:	2102      	movs	r1, #2
 80053f4:	f7ff f8ba 	bl	800456c <gpio_mode_set>
 80053f8:	2380      	movs	r3, #128	; 0x80
 80053fa:	485c      	ldr	r0, [pc, #368]	; (800556c <emac_start(unsigned char*)+0x210>)
 80053fc:	2203      	movs	r2, #3
 80053fe:	2100      	movs	r1, #0
 8005400:	f7ff f8d4 	bl	80045ac <gpio_output_options_set>
 8005404:	4859      	ldr	r0, [pc, #356]	; (800556c <emac_start(unsigned char*)+0x210>)
 8005406:	2202      	movs	r2, #2
 8005408:	210b      	movs	r1, #11
 800540a:	f7ff f8f0 	bl	80045ee <gpio_af_set>
 800540e:	4857      	ldr	r0, [pc, #348]	; (800556c <emac_start(unsigned char*)+0x210>)
 8005410:	2204      	movs	r2, #4
 8005412:	210b      	movs	r1, #11
 8005414:	f7ff f8eb 	bl	80045ee <gpio_af_set>
 8005418:	4854      	ldr	r0, [pc, #336]	; (800556c <emac_start(unsigned char*)+0x210>)
 800541a:	2280      	movs	r2, #128	; 0x80
 800541c:	210b      	movs	r1, #11
 800541e:	f7ff f8e6 	bl	80045ee <gpio_af_set>
 8005422:	4853      	ldr	r0, [pc, #332]	; (8005570 <emac_start(unsigned char*)+0x214>)
 8005424:	f44f 6300 	mov.w	r3, #2048	; 0x800
 8005428:	2200      	movs	r2, #0
 800542a:	2102      	movs	r1, #2
 800542c:	f7ff f89e 	bl	800456c <gpio_mode_set>
 8005430:	484f      	ldr	r0, [pc, #316]	; (8005570 <emac_start(unsigned char*)+0x214>)
 8005432:	f44f 6300 	mov.w	r3, #2048	; 0x800
 8005436:	2203      	movs	r2, #3
 8005438:	2100      	movs	r1, #0
 800543a:	f7ff f8b7 	bl	80045ac <gpio_output_options_set>
 800543e:	484c      	ldr	r0, [pc, #304]	; (8005570 <emac_start(unsigned char*)+0x214>)
 8005440:	f44f 5380 	mov.w	r3, #4096	; 0x1000
 8005444:	2200      	movs	r2, #0
 8005446:	2102      	movs	r1, #2
 8005448:	f7ff f890 	bl	800456c <gpio_mode_set>
 800544c:	4848      	ldr	r0, [pc, #288]	; (8005570 <emac_start(unsigned char*)+0x214>)
 800544e:	f44f 5300 	mov.w	r3, #8192	; 0x2000
 8005452:	2203      	movs	r2, #3
 8005454:	2100      	movs	r1, #0
 8005456:	f7ff f8a9 	bl	80045ac <gpio_output_options_set>
 800545a:	4845      	ldr	r0, [pc, #276]	; (8005570 <emac_start(unsigned char*)+0x214>)
 800545c:	f44f 5300 	mov.w	r3, #8192	; 0x2000
 8005460:	2200      	movs	r2, #0
 8005462:	2102      	movs	r1, #2
 8005464:	f7ff f882 	bl	800456c <gpio_mode_set>
 8005468:	f44f 4380 	mov.w	r3, #16384	; 0x4000
 800546c:	4840      	ldr	r0, [pc, #256]	; (8005570 <emac_start(unsigned char*)+0x214>)
 800546e:	2203      	movs	r2, #3
 8005470:	2100      	movs	r1, #0
 8005472:	f7ff f89b 	bl	80045ac <gpio_output_options_set>
 8005476:	483e      	ldr	r0, [pc, #248]	; (8005570 <emac_start(unsigned char*)+0x214>)
 8005478:	f44f 6200 	mov.w	r2, #2048	; 0x800
 800547c:	210b      	movs	r1, #11
 800547e:	f7ff f8b6 	bl	80045ee <gpio_af_set>
 8005482:	483b      	ldr	r0, [pc, #236]	; (8005570 <emac_start(unsigned char*)+0x214>)
 8005484:	f44f 5280 	mov.w	r2, #4096	; 0x1000
 8005488:	210b      	movs	r1, #11
 800548a:	f7ff f8b0 	bl	80045ee <gpio_af_set>
 800548e:	4838      	ldr	r0, [pc, #224]	; (8005570 <emac_start(unsigned char*)+0x214>)
 8005490:	f44f 5200 	mov.w	r2, #8192	; 0x2000
 8005494:	210b      	movs	r1, #11
 8005496:	f7ff f8aa 	bl	80045ee <gpio_af_set>
 800549a:	2302      	movs	r3, #2
 800549c:	4619      	mov	r1, r3
 800549e:	4835      	ldr	r0, [pc, #212]	; (8005574 <emac_start(unsigned char*)+0x218>)
 80054a0:	2200      	movs	r2, #0
 80054a2:	f7ff f863 	bl	800456c <gpio_mode_set>
 80054a6:	4833      	ldr	r0, [pc, #204]	; (8005574 <emac_start(unsigned char*)+0x218>)
 80054a8:	2302      	movs	r3, #2
 80054aa:	2203      	movs	r2, #3
 80054ac:	2100      	movs	r1, #0
 80054ae:	f7ff f87d 	bl	80045ac <gpio_output_options_set>
 80054b2:	4830      	ldr	r0, [pc, #192]	; (8005574 <emac_start(unsigned char*)+0x218>)
 80054b4:	2310      	movs	r3, #16
 80054b6:	2200      	movs	r2, #0
 80054b8:	2102      	movs	r1, #2
 80054ba:	f7ff f857 	bl	800456c <gpio_mode_set>
 80054be:	482d      	ldr	r0, [pc, #180]	; (8005574 <emac_start(unsigned char*)+0x218>)
 80054c0:	2310      	movs	r3, #16
 80054c2:	2203      	movs	r2, #3
 80054c4:	2100      	movs	r1, #0
 80054c6:	f7ff f871 	bl	80045ac <gpio_output_options_set>
 80054ca:	482a      	ldr	r0, [pc, #168]	; (8005574 <emac_start(unsigned char*)+0x218>)
 80054cc:	2320      	movs	r3, #32
 80054ce:	2200      	movs	r2, #0
 80054d0:	2102      	movs	r1, #2
 80054d2:	f7ff f84b 	bl	800456c <gpio_mode_set>
 80054d6:	2320      	movs	r3, #32
 80054d8:	4826      	ldr	r0, [pc, #152]	; (8005574 <emac_start(unsigned char*)+0x218>)
 80054da:	2203      	movs	r2, #3
 80054dc:	2100      	movs	r1, #0
 80054de:	f7ff f865 	bl	80045ac <gpio_output_options_set>
 80054e2:	4824      	ldr	r0, [pc, #144]	; (8005574 <emac_start(unsigned char*)+0x218>)
 80054e4:	2202      	movs	r2, #2
 80054e6:	210b      	movs	r1, #11
 80054e8:	f7ff f881 	bl	80045ee <gpio_af_set>
 80054ec:	4821      	ldr	r0, [pc, #132]	; (8005574 <emac_start(unsigned char*)+0x218>)
 80054ee:	2210      	movs	r2, #16
 80054f0:	210b      	movs	r1, #11
 80054f2:	f7ff f87c 	bl	80045ee <gpio_af_set>
 80054f6:	2220      	movs	r2, #32
 80054f8:	210b      	movs	r1, #11
 80054fa:	481e      	ldr	r0, [pc, #120]	; (8005574 <emac_start(unsigned char*)+0x218>)
 80054fc:	f7ff f877 	bl	80045ee <gpio_af_set>
 8005500:	f640 4019 	movw	r0, #3097	; 0xc19
 8005504:	f7ff f8b4 	bl	8004670 <rcu_periph_clock_enable>
 8005508:	f640 401a 	movw	r0, #3098	; 0xc1a
 800550c:	f7ff f8b0 	bl	8004670 <rcu_periph_clock_enable>
 8005510:	f640 401b 	movw	r0, #3099	; 0xc1b
 8005514:	f7ff f8ac 	bl	8004670 <rcu_periph_clock_enable>
 8005518:	f000 fd12 	bl	8005f40 <enet_deinit>
 800551c:	f000 f93e 	bl	800579c <enet_software_reset>
 8005520:	4604      	mov	r4, r0
 8005522:	b138      	cbz	r0, 8005534 <emac_start(unsigned char*)+0x1d8>
 8005524:	f04f 4200 	mov.w	r2, #2147483648	; 0x80000000
 8005528:	f44f 6180 	mov.w	r1, #1024	; 0x400
 800552c:	2001      	movs	r0, #1
 800552e:	f000 fac9 	bl	8005ac4 <enet_init>
 8005532:	4604      	mov	r4, r0
 8005534:	4628      	mov	r0, r5
 8005536:	f000 fdc5 	bl	80060c4 <mac_address_get(unsigned char*)>
 800553a:	4629      	mov	r1, r5
 800553c:	2000      	movs	r0, #0
 800553e:	f000 fa19 	bl	8005974 <enet_mac_address_set>
 8005542:	f44f 00e0 	mov.w	r0, #7340032	; 0x700000
 8005546:	f000 f93d 	bl	80057c4 <enet_descriptors_chain_init>
 800554a:	f44f 2060 	mov.w	r0, #917504	; 0xe0000
 800554e:	f000 f939 	bl	80057c4 <enet_descriptors_chain_init>
 8005552:	4809      	ldr	r0, [pc, #36]	; (8005578 <emac_start(unsigned char*)+0x21c>)
 8005554:	f44f 0140 	mov.w	r1, #12582912	; 0xc00000
 8005558:	f000 fa06 	bl	8005968 <enet_transmit_checksum_config>
 800555c:	f000 fc52 	bl	8005e04 <enet_enable>
 8005560:	fab4 f084 	clz	r0, r4
 8005564:	0940      	lsrs	r0, r0, #5
 8005566:	4240      	negs	r0, r0
 8005568:	bd38      	pop	{r3, r4, r5, pc}
 800556a:	bf00      	nop
 800556c:	40020000 	andmi	r0, r2, r0
 8005570:	40020400 	andmi	r0, r2, r0, lsl #8
 8005574:	40020800 	andmi	r0, r2, r0, lsl #16
 8005578:	2000442c 	andcs	r4, r0, ip, lsr #8

0800557c <net::link_register_read()>:
 800557c:	b507      	push	{r0, r1, r2, lr}
 800557e:	2201      	movs	r2, #1
 8005580:	f10d 0306 	add.w	r3, sp, #6
 8005584:	4611      	mov	r1, r2
 8005586:	2000      	movs	r0, #0
 8005588:	f000 fa0c 	bl	80059a4 <enet_phy_write_read>
 800558c:	f8bd 0006 	ldrh.w	r0, [sp, #6]
 8005590:	f080 0004 	eor.w	r0, r0, #4
 8005594:	f3c0 0080 	ubfx	r0, r0, #2, #1
 8005598:	b003      	add	sp, #12
 800559a:	f85d fb04 	ldr.w	pc, [sp], #4
	...

080055a0 <adc_clock_config>:
 80055a0:	4b06      	ldr	r3, [pc, #24]	; (80055bc <adc_clock_config+0x1c>)
 80055a2:	f8d3 2304 	ldr.w	r2, [r3, #772]	; 0x304
 80055a6:	f422 22e0 	bic.w	r2, r2, #458752	; 0x70000
 80055aa:	f8c3 2304 	str.w	r2, [r3, #772]	; 0x304
 80055ae:	f8d3 2304 	ldr.w	r2, [r3, #772]	; 0x304
 80055b2:	4310      	orrs	r0, r2
 80055b4:	f8c3 0304 	str.w	r0, [r3, #772]	; 0x304
 80055b8:	4770      	bx	lr
 80055ba:	bf00      	nop
 80055bc:	40012000 	andmi	r2, r1, r0

080055c0 <adc_special_function_config>:
 80055c0:	b510      	push	{r4, lr}
 80055c2:	f401 7380 	and.w	r3, r1, #256	; 0x100
 80055c6:	f401 6480 	and.w	r4, r1, #1024	; 0x400
 80055ca:	f001 0102 	and.w	r1, r1, #2
 80055ce:	b17a      	cbz	r2, 80055f0 <adc_special_function_config+0x30>
 80055d0:	b11b      	cbz	r3, 80055da <adc_special_function_config+0x1a>
 80055d2:	6843      	ldr	r3, [r0, #4]
 80055d4:	f443 7380 	orr.w	r3, r3, #256	; 0x100
 80055d8:	6043      	str	r3, [r0, #4]
 80055da:	b11c      	cbz	r4, 80055e4 <adc_special_function_config+0x24>
 80055dc:	6843      	ldr	r3, [r0, #4]
 80055de:	f443 6380 	orr.w	r3, r3, #1024	; 0x400
 80055e2:	6043      	str	r3, [r0, #4]
 80055e4:	b119      	cbz	r1, 80055ee <adc_special_function_config+0x2e>
 80055e6:	6883      	ldr	r3, [r0, #8]
 80055e8:	f043 0302 	orr.w	r3, r3, #2
 80055ec:	6083      	str	r3, [r0, #8]
 80055ee:	bd10      	pop	{r4, pc}
 80055f0:	b11b      	cbz	r3, 80055fa <adc_special_function_config+0x3a>
 80055f2:	6843      	ldr	r3, [r0, #4]
 80055f4:	f423 7380 	bic.w	r3, r3, #256	; 0x100
 80055f8:	6043      	str	r3, [r0, #4]
 80055fa:	b11c      	cbz	r4, 8005604 <adc_special_function_config+0x44>
 80055fc:	6843      	ldr	r3, [r0, #4]
 80055fe:	f423 6380 	bic.w	r3, r3, #1024	; 0x400
 8005602:	6043      	str	r3, [r0, #4]
 8005604:	2900      	cmp	r1, #0
 8005606:	d0f2      	beq.n	80055ee <adc_special_function_config+0x2e>
 8005608:	6883      	ldr	r3, [r0, #8]
 800560a:	f023 0302 	bic.w	r3, r3, #2
 800560e:	e7ed      	b.n	80055ec <adc_special_function_config+0x2c>

08005610 <adc_data_alignment_config>:
 8005610:	6883      	ldr	r3, [r0, #8]
 8005612:	b119      	cbz	r1, 800561c <adc_data_alignment_config+0xc>
 8005614:	f443 6300 	orr.w	r3, r3, #2048	; 0x800
 8005618:	6083      	str	r3, [r0, #8]
 800561a:	4770      	bx	lr
 800561c:	f423 6300 	bic.w	r3, r3, #2048	; 0x800
 8005620:	e7fa      	b.n	8005618 <adc_data_alignment_config+0x8>

08005622 <adc_enable>:
 8005622:	6883      	ldr	r3, [r0, #8]
 8005624:	07db      	lsls	r3, r3, #31
 8005626:	bf5e      	ittt	pl
 8005628:	6883      	ldrpl	r3, [r0, #8]
 800562a:	f043 0301 	orrpl.w	r3, r3, #1
 800562e:	6083      	strpl	r3, [r0, #8]
 8005630:	4770      	bx	lr

08005632 <adc_calibration_enable>:
 8005632:	6883      	ldr	r3, [r0, #8]
 8005634:	f043 0308 	orr.w	r3, r3, #8
 8005638:	f100 0208 	add.w	r2, r0, #8
 800563c:	6083      	str	r3, [r0, #8]
 800563e:	6813      	ldr	r3, [r2, #0]
 8005640:	0719      	lsls	r1, r3, #28
 8005642:	d4fc      	bmi.n	800563e <adc_calibration_enable+0xc>
 8005644:	6883      	ldr	r3, [r0, #8]
 8005646:	f043 0304 	orr.w	r3, r3, #4
 800564a:	6083      	str	r3, [r0, #8]
 800564c:	6813      	ldr	r3, [r2, #0]
 800564e:	075b      	lsls	r3, r3, #29
 8005650:	d4fc      	bmi.n	800564c <adc_calibration_enable+0x1a>
 8005652:	4770      	bx	lr

08005654 <adc_channel_16_to_18>:
 8005654:	f400 0380 	and.w	r3, r0, #4194304	; 0x400000
 8005658:	f400 0000 	and.w	r0, r0, #8388608	; 0x800000
 800565c:	b181      	cbz	r1, 8005680 <adc_channel_16_to_18+0x2c>
 800565e:	b133      	cbz	r3, 800566e <adc_channel_16_to_18+0x1a>
 8005660:	4a0f      	ldr	r2, [pc, #60]	; (80056a0 <adc_channel_16_to_18+0x4c>)
 8005662:	f8d2 3304 	ldr.w	r3, [r2, #772]	; 0x304
 8005666:	f443 0380 	orr.w	r3, r3, #4194304	; 0x400000
 800566a:	f8c2 3304 	str.w	r3, [r2, #772]	; 0x304
 800566e:	b130      	cbz	r0, 800567e <adc_channel_16_to_18+0x2a>
 8005670:	4a0b      	ldr	r2, [pc, #44]	; (80056a0 <adc_channel_16_to_18+0x4c>)
 8005672:	f8d2 3304 	ldr.w	r3, [r2, #772]	; 0x304
 8005676:	f443 0300 	orr.w	r3, r3, #8388608	; 0x800000
 800567a:	f8c2 3304 	str.w	r3, [r2, #772]	; 0x304
 800567e:	4770      	bx	lr
 8005680:	b133      	cbz	r3, 8005690 <adc_channel_16_to_18+0x3c>
 8005682:	4a07      	ldr	r2, [pc, #28]	; (80056a0 <adc_channel_16_to_18+0x4c>)
 8005684:	f8d2 3304 	ldr.w	r3, [r2, #772]	; 0x304
 8005688:	f423 0380 	bic.w	r3, r3, #4194304	; 0x400000
 800568c:	f8c2 3304 	str.w	r3, [r2, #772]	; 0x304
 8005690:	2800      	cmp	r0, #0
 8005692:	d0f4      	beq.n	800567e <adc_channel_16_to_18+0x2a>
 8005694:	4a02      	ldr	r2, [pc, #8]	; (80056a0 <adc_channel_16_to_18+0x4c>)
 8005696:	f8d2 3304 	ldr.w	r3, [r2, #772]	; 0x304
 800569a:	f423 0300 	bic.w	r3, r3, #8388608	; 0x800000
 800569e:	e7ec      	b.n	800567a <adc_channel_16_to_18+0x26>
 80056a0:	40012000 	andmi	r2, r1, r0

080056a4 <adc_channel_length_config>:
 80056a4:	2901      	cmp	r1, #1
 80056a6:	d002      	beq.n	80056ae <adc_channel_length_config+0xa>
 80056a8:	2902      	cmp	r1, #2
 80056aa:	d00c      	beq.n	80056c6 <adc_channel_length_config+0x22>
 80056ac:	4770      	bx	lr
 80056ae:	3a01      	subs	r2, #1
 80056b0:	2a0f      	cmp	r2, #15
 80056b2:	d813      	bhi.n	80056dc <adc_channel_length_config+0x38>
 80056b4:	6ac3      	ldr	r3, [r0, #44]	; 0x2c
 80056b6:	f423 0370 	bic.w	r3, r3, #15728640	; 0xf00000
 80056ba:	62c3      	str	r3, [r0, #44]	; 0x2c
 80056bc:	6ac3      	ldr	r3, [r0, #44]	; 0x2c
 80056be:	ea43 5302 	orr.w	r3, r3, r2, lsl #20
 80056c2:	62c3      	str	r3, [r0, #44]	; 0x2c
 80056c4:	4770      	bx	lr
 80056c6:	3a01      	subs	r2, #1
 80056c8:	2a03      	cmp	r2, #3
 80056ca:	d807      	bhi.n	80056dc <adc_channel_length_config+0x38>
 80056cc:	6b83      	ldr	r3, [r0, #56]	; 0x38
 80056ce:	f423 1340 	bic.w	r3, r3, #3145728	; 0x300000
 80056d2:	6383      	str	r3, [r0, #56]	; 0x38
 80056d4:	6b83      	ldr	r3, [r0, #56]	; 0x38
 80056d6:	ea43 5302 	orr.w	r3, r3, r2, lsl #20
 80056da:	6383      	str	r3, [r0, #56]	; 0x38
 80056dc:	4770      	bx	lr

080056de <adc_inserted_channel_config>:
 80056de:	2903      	cmp	r1, #3
 80056e0:	b530      	push	{r4, r5, lr}
 80056e2:	6b84      	ldr	r4, [r0, #56]	; 0x38
 80056e4:	d80f      	bhi.n	8005706 <adc_inserted_channel_config+0x28>
 80056e6:	f3c4 5401 	ubfx	r4, r4, #20, #2
 80056ea:	1a61      	subs	r1, r4, r1
 80056ec:	f06f 0404 	mvn.w	r4, #4
 80056f0:	4361      	muls	r1, r4
 80056f2:	6b85      	ldr	r5, [r0, #56]	; 0x38
 80056f4:	310f      	adds	r1, #15
 80056f6:	241f      	movs	r4, #31
 80056f8:	408c      	lsls	r4, r1
 80056fa:	ea25 0404 	bic.w	r4, r5, r4
 80056fe:	fa02 f101 	lsl.w	r1, r2, r1
 8005702:	4321      	orrs	r1, r4
 8005704:	6381      	str	r1, [r0, #56]	; 0x38
 8005706:	2a09      	cmp	r2, #9
 8005708:	d80a      	bhi.n	8005720 <adc_inserted_channel_config+0x42>
 800570a:	6901      	ldr	r1, [r0, #16]
 800570c:	eb02 0242 	add.w	r2, r2, r2, lsl #1
 8005710:	2407      	movs	r4, #7
 8005712:	4094      	lsls	r4, r2
 8005714:	ea21 0104 	bic.w	r1, r1, r4
 8005718:	4093      	lsls	r3, r2
 800571a:	430b      	orrs	r3, r1
 800571c:	6103      	str	r3, [r0, #16]
 800571e:	bd30      	pop	{r4, r5, pc}
 8005720:	2a12      	cmp	r2, #18
 8005722:	d8fc      	bhi.n	800571e <adc_inserted_channel_config+0x40>
 8005724:	3a0a      	subs	r2, #10
 8005726:	68c1      	ldr	r1, [r0, #12]
 8005728:	eb02 0242 	add.w	r2, r2, r2, lsl #1
 800572c:	2407      	movs	r4, #7
 800572e:	4094      	lsls	r4, r2
 8005730:	ea21 0104 	bic.w	r1, r1, r4
 8005734:	4093      	lsls	r3, r2
 8005736:	430b      	orrs	r3, r1
 8005738:	60c3      	str	r3, [r0, #12]
 800573a:	e7f0      	b.n	800571e <adc_inserted_channel_config+0x40>

0800573c <adc_external_trigger_config>:
 800573c:	2901      	cmp	r1, #1
 800573e:	d002      	beq.n	8005746 <adc_external_trigger_config+0xa>
 8005740:	2902      	cmp	r1, #2
 8005742:	d009      	beq.n	8005758 <adc_external_trigger_config+0x1c>
 8005744:	4770      	bx	lr
 8005746:	6883      	ldr	r3, [r0, #8]
 8005748:	f023 5340 	bic.w	r3, r3, #805306368	; 0x30000000
 800574c:	6083      	str	r3, [r0, #8]
 800574e:	6883      	ldr	r3, [r0, #8]
 8005750:	ea43 7302 	orr.w	r3, r3, r2, lsl #28
 8005754:	6083      	str	r3, [r0, #8]
 8005756:	4770      	bx	lr
 8005758:	6883      	ldr	r3, [r0, #8]
 800575a:	f423 1340 	bic.w	r3, r3, #3145728	; 0x300000
 800575e:	6083      	str	r3, [r0, #8]
 8005760:	6883      	ldr	r3, [r0, #8]
 8005762:	ea43 5302 	orr.w	r3, r3, r2, lsl #20
 8005766:	e7f5      	b.n	8005754 <adc_external_trigger_config+0x18>

08005768 <adc_software_trigger_enable>:
 8005768:	2901      	cmp	r1, #1
 800576a:	d002      	beq.n	8005772 <adc_software_trigger_enable+0xa>
 800576c:	2902      	cmp	r1, #2
 800576e:	d005      	beq.n	800577c <adc_software_trigger_enable+0x14>
 8005770:	4770      	bx	lr
 8005772:	6883      	ldr	r3, [r0, #8]
 8005774:	f043 4380 	orr.w	r3, r3, #1073741824	; 0x40000000
 8005778:	6083      	str	r3, [r0, #8]
 800577a:	4770      	bx	lr
 800577c:	6883      	ldr	r3, [r0, #8]
 800577e:	f443 0380 	orr.w	r3, r3, #4194304	; 0x400000
 8005782:	e7f9      	b.n	8005778 <adc_software_trigger_enable+0x10>

08005784 <enet_delay>:
 8005784:	b082      	sub	sp, #8
 8005786:	2300      	movs	r3, #0
 8005788:	9301      	str	r3, [sp, #4]
 800578a:	9001      	str	r0, [sp, #4]
 800578c:	9b01      	ldr	r3, [sp, #4]
 800578e:	b90b      	cbnz	r3, 8005794 <enet_delay+0x10>
 8005790:	b002      	add	sp, #8
 8005792:	4770      	bx	lr
 8005794:	9b01      	ldr	r3, [sp, #4]
 8005796:	3b01      	subs	r3, #1
 8005798:	9301      	str	r3, [sp, #4]
 800579a:	e7f7      	b.n	800578c <enet_delay+0x8>

0800579c <enet_software_reset>:
 800579c:	4b07      	ldr	r3, [pc, #28]	; (80057bc <enet_software_reset+0x20>)
 800579e:	681a      	ldr	r2, [r3, #0]
 80057a0:	f042 0201 	orr.w	r2, r2, #1
 80057a4:	601a      	str	r2, [r3, #0]
 80057a6:	4a06      	ldr	r2, [pc, #24]	; (80057c0 <enet_software_reset+0x24>)
 80057a8:	6819      	ldr	r1, [r3, #0]
 80057aa:	07c9      	lsls	r1, r1, #31
 80057ac:	d501      	bpl.n	80057b2 <enet_software_reset+0x16>
 80057ae:	3a01      	subs	r2, #1
 80057b0:	d1fa      	bne.n	80057a8 <enet_software_reset+0xc>
 80057b2:	6818      	ldr	r0, [r3, #0]
 80057b4:	43c0      	mvns	r0, r0
 80057b6:	f000 0001 	and.w	r0, r0, #1
 80057ba:	4770      	bx	lr
 80057bc:	40029000 	andmi	r9, r2, r0
 80057c0:	0004ffff 	strdeq	pc, [r4], -pc	; <UNPREDICTABLE>

080057c4 <enet_descriptors_chain_init>:
 80057c4:	f5b0 0fe0 	cmp.w	r0, #7340032	; 0x700000
 80057c8:	b570      	push	{r4, r5, r6, lr}
 80057ca:	4a17      	ldr	r2, [pc, #92]	; (8005828 <enet_descriptors_chain_init+0x64>)
 80057cc:	d120      	bne.n	8005810 <enet_descriptors_chain_init+0x4c>
 80057ce:	4b17      	ldr	r3, [pc, #92]	; (800582c <enet_descriptors_chain_init+0x68>)
 80057d0:	6113      	str	r3, [r2, #16]
 80057d2:	4a17      	ldr	r2, [pc, #92]	; (8005830 <enet_descriptors_chain_init+0x6c>)
 80057d4:	6013      	str	r3, [r2, #0]
 80057d6:	4a17      	ldr	r2, [pc, #92]	; (8005834 <enet_descriptors_chain_init+0x70>)
 80057d8:	2100      	movs	r1, #0
 80057da:	f44f 1080 	mov.w	r0, #1048576	; 0x100000
 80057de:	2401      	movs	r4, #1
 80057e0:	4e15      	ldr	r6, [pc, #84]	; (8005838 <enet_descriptors_chain_init+0x74>)
 80057e2:	609a      	str	r2, [r3, #8]
 80057e4:	2500      	movs	r5, #0
 80057e6:	6035      	str	r5, [r6, #0]
 80057e8:	4e14      	ldr	r6, [pc, #80]	; (800583c <enet_descriptors_chain_init+0x78>)
 80057ea:	2c01      	cmp	r4, #1
 80057ec:	6035      	str	r5, [r6, #0]
 80057ee:	bf0c      	ite	eq
 80057f0:	461d      	moveq	r5, r3
 80057f2:	f103 0510 	addne.w	r5, r3, #16
 80057f6:	2c02      	cmp	r4, #2
 80057f8:	bf08      	it	eq
 80057fa:	f202 52f4 	addweq	r2, r2, #1524	; 0x5f4
 80057fe:	e9c3 0100 	strd	r0, r1, [r3]
 8005802:	bf04      	itt	eq
 8005804:	e9c3 0104 	strdeq	r0, r1, [r3, #16]
 8005808:	e9c3 2306 	strdeq	r2, r3, [r3, #24]
 800580c:	60dd      	str	r5, [r3, #12]
 800580e:	bd70      	pop	{r4, r5, r6, pc}
 8005810:	4b0b      	ldr	r3, [pc, #44]	; (8005840 <enet_descriptors_chain_init+0x7c>)
 8005812:	60d3      	str	r3, [r2, #12]
 8005814:	4a0b      	ldr	r2, [pc, #44]	; (8005844 <enet_descriptors_chain_init+0x80>)
 8005816:	f244 51f4 	movw	r1, #17908	; 0x45f4
 800581a:	6013      	str	r3, [r2, #0]
 800581c:	f04f 4000 	mov.w	r0, #2147483648	; 0x80000000
 8005820:	4a09      	ldr	r2, [pc, #36]	; (8005848 <enet_descriptors_chain_init+0x84>)
 8005822:	2402      	movs	r4, #2
 8005824:	e7dc      	b.n	80057e0 <enet_descriptors_chain_init+0x1c>
 8005826:	bf00      	nop
 8005828:	40029000 	andmi	r9, r2, r0
 800582c:	2000442c 	andcs	r4, r0, ip, lsr #8
 8005830:	200031f0 	strdcs	r3, [r0], -r0
 8005834:	20003e38 	andcs	r3, r0, r8, lsr lr
 8005838:	200031e4 	andcs	r3, r0, r4, ror #3
 800583c:	200031e8 	andcs	r3, r0, r8, ror #3
 8005840:	20003e18 	andcs	r3, r0, r8, lsl lr
 8005844:	200031ec 	andcs	r3, r0, ip, ror #3
 8005848:	20003230 	andcs	r3, r0, r0, lsr r2

0800584c <enet_frame_receive>:
 800584c:	4b22      	ldr	r3, [pc, #136]	; (80058d8 <enet_frame_receive+0x8c>)
 800584e:	681a      	ldr	r2, [r3, #0]
 8005850:	6812      	ldr	r2, [r2, #0]
 8005852:	2a00      	cmp	r2, #0
 8005854:	b570      	push	{r4, r5, r6, lr}
 8005856:	db3c      	blt.n	80058d2 <enet_frame_receive+0x86>
 8005858:	b970      	cbnz	r0, 8005878 <enet_frame_receive+0x2c>
 800585a:	681a      	ldr	r2, [r3, #0]
 800585c:	f04f 4100 	mov.w	r1, #2147483648	; 0x80000000
 8005860:	6011      	str	r1, [r2, #0]
 8005862:	491e      	ldr	r1, [pc, #120]	; (80058dc <enet_frame_receive+0x90>)
 8005864:	6948      	ldr	r0, [r1, #20]
 8005866:	0600      	lsls	r0, r0, #24
 8005868:	d422      	bmi.n	80058b0 <enet_frame_receive+0x64>
 800586a:	6851      	ldr	r1, [r2, #4]
 800586c:	0448      	lsls	r0, r1, #17
 800586e:	d524      	bpl.n	80058ba <enet_frame_receive+0x6e>
 8005870:	68d2      	ldr	r2, [r2, #12]
 8005872:	601a      	str	r2, [r3, #0]
 8005874:	2001      	movs	r0, #1
 8005876:	bd70      	pop	{r4, r5, r6, pc}
 8005878:	f402 4403 	and.w	r4, r2, #33536	; 0x8300
 800587c:	f5b4 7f40 	cmp.w	r4, #768	; 0x300
 8005880:	d127      	bne.n	80058d2 <enet_frame_receive+0x86>
 8005882:	4e17      	ldr	r6, [pc, #92]	; (80058e0 <enet_frame_receive+0x94>)
 8005884:	6836      	ldr	r6, [r6, #0]
 8005886:	f3c2 450d 	ubfx	r5, r2, #16, #14
 800588a:	01b6      	lsls	r6, r6, #6
 800588c:	f1a5 0404 	sub.w	r4, r5, #4
 8005890:	d503      	bpl.n	800589a <enet_frame_receive+0x4e>
 8005892:	f012 0f20 	tst.w	r2, #32
 8005896:	bf18      	it	ne
 8005898:	462c      	movne	r4, r5
 800589a:	428c      	cmp	r4, r1
 800589c:	d819      	bhi.n	80058d2 <enet_frame_receive+0x86>
 800589e:	2200      	movs	r2, #0
 80058a0:	42a2      	cmp	r2, r4
 80058a2:	6819      	ldr	r1, [r3, #0]
 80058a4:	d0d9      	beq.n	800585a <enet_frame_receive+0xe>
 80058a6:	6889      	ldr	r1, [r1, #8]
 80058a8:	5c51      	ldrb	r1, [r2, r1]
 80058aa:	5481      	strb	r1, [r0, r2]
 80058ac:	3201      	adds	r2, #1
 80058ae:	e7f7      	b.n	80058a0 <enet_frame_receive+0x54>
 80058b0:	2080      	movs	r0, #128	; 0x80
 80058b2:	6148      	str	r0, [r1, #20]
 80058b4:	2000      	movs	r0, #0
 80058b6:	6088      	str	r0, [r1, #8]
 80058b8:	e7d7      	b.n	800586a <enet_frame_receive+0x1e>
 80058ba:	f411 4f00 	tst.w	r1, #32768	; 0x8000
 80058be:	4907      	ldr	r1, [pc, #28]	; (80058dc <enet_frame_receive+0x90>)
 80058c0:	bf09      	itett	eq
 80058c2:	6809      	ldreq	r1, [r1, #0]
 80058c4:	68ca      	ldrne	r2, [r1, #12]
 80058c6:	f3c1 0184 	ubfxeq	r1, r1, #2, #5
 80058ca:	3210      	addeq	r2, #16
 80058cc:	bf08      	it	eq
 80058ce:	1852      	addeq	r2, r2, r1
 80058d0:	e7cf      	b.n	8005872 <enet_frame_receive+0x26>
 80058d2:	2000      	movs	r0, #0
 80058d4:	e7cf      	b.n	8005876 <enet_frame_receive+0x2a>
 80058d6:	bf00      	nop
 80058d8:	200031ec 	andcs	r3, r0, ip, ror #3
 80058dc:	40029000 	andmi	r9, r2, r0
 80058e0:	40028000 	andmi	r8, r2, r0

080058e4 <enet_frame_transmit>:
 80058e4:	4a1e      	ldr	r2, [pc, #120]	; (8005960 <enet_frame_transmit+0x7c>)
 80058e6:	6813      	ldr	r3, [r2, #0]
 80058e8:	681b      	ldr	r3, [r3, #0]
 80058ea:	2b00      	cmp	r3, #0
 80058ec:	b530      	push	{r4, r5, lr}
 80058ee:	db34      	blt.n	800595a <enet_frame_transmit+0x76>
 80058f0:	f240 53f4 	movw	r3, #1524	; 0x5f4
 80058f4:	4299      	cmp	r1, r3
 80058f6:	d830      	bhi.n	800595a <enet_frame_transmit+0x76>
 80058f8:	b9e8      	cbnz	r0, 8005936 <enet_frame_transmit+0x52>
 80058fa:	6813      	ldr	r3, [r2, #0]
 80058fc:	4819      	ldr	r0, [pc, #100]	; (8005964 <enet_frame_transmit+0x80>)
 80058fe:	6059      	str	r1, [r3, #4]
 8005900:	6819      	ldr	r1, [r3, #0]
 8005902:	f041 4130 	orr.w	r1, r1, #2952790016	; 0xb0000000
 8005906:	6019      	str	r1, [r3, #0]
 8005908:	6941      	ldr	r1, [r0, #20]
 800590a:	6944      	ldr	r4, [r0, #20]
 800590c:	f001 0104 	and.w	r1, r1, #4
 8005910:	f004 0420 	and.w	r4, r4, #32
 8005914:	4321      	orrs	r1, r4
 8005916:	d110      	bne.n	800593a <enet_frame_transmit+0x56>
 8005918:	6819      	ldr	r1, [r3, #0]
 800591a:	02c8      	lsls	r0, r1, #11
 800591c:	d511      	bpl.n	8005942 <enet_frame_transmit+0x5e>
 800591e:	68db      	ldr	r3, [r3, #12]
 8005920:	6013      	str	r3, [r2, #0]
 8005922:	2001      	movs	r0, #1
 8005924:	bd30      	pop	{r4, r5, pc}
 8005926:	68a4      	ldr	r4, [r4, #8]
 8005928:	5cc5      	ldrb	r5, [r0, r3]
 800592a:	551d      	strb	r5, [r3, r4]
 800592c:	3301      	adds	r3, #1
 800592e:	428b      	cmp	r3, r1
 8005930:	6814      	ldr	r4, [r2, #0]
 8005932:	d1f8      	bne.n	8005926 <enet_frame_transmit+0x42>
 8005934:	e7e1      	b.n	80058fa <enet_frame_transmit+0x16>
 8005936:	2300      	movs	r3, #0
 8005938:	e7f9      	b.n	800592e <enet_frame_transmit+0x4a>
 800593a:	6141      	str	r1, [r0, #20]
 800593c:	2100      	movs	r1, #0
 800593e:	6041      	str	r1, [r0, #4]
 8005940:	e7ea      	b.n	8005918 <enet_frame_transmit+0x34>
 8005942:	f411 1f00 	tst.w	r1, #2097152	; 0x200000
 8005946:	4907      	ldr	r1, [pc, #28]	; (8005964 <enet_frame_transmit+0x80>)
 8005948:	bf09      	itett	eq
 800594a:	6809      	ldreq	r1, [r1, #0]
 800594c:	690b      	ldrne	r3, [r1, #16]
 800594e:	f3c1 0184 	ubfxeq	r1, r1, #2, #5
 8005952:	3310      	addeq	r3, #16
 8005954:	bf08      	it	eq
 8005956:	185b      	addeq	r3, r3, r1
 8005958:	e7e2      	b.n	8005920 <enet_frame_transmit+0x3c>
 800595a:	2000      	movs	r0, #0
 800595c:	e7e2      	b.n	8005924 <enet_frame_transmit+0x40>
 800595e:	bf00      	nop
 8005960:	200031f0 	strdcs	r3, [r0], -r0
 8005964:	40029000 	andmi	r9, r2, r0

08005968 <enet_transmit_checksum_config>:
 8005968:	6803      	ldr	r3, [r0, #0]
 800596a:	f423 0340 	bic.w	r3, r3, #12582912	; 0xc00000
 800596e:	430b      	orrs	r3, r1
 8005970:	6003      	str	r3, [r0, #0]
 8005972:	4770      	bx	lr

08005974 <enet_mac_address_set>:
 8005974:	4b03      	ldr	r3, [pc, #12]	; (8005984 <enet_mac_address_set+0x10>)
 8005976:	888a      	ldrh	r2, [r1, #4]
 8005978:	50c2      	str	r2, [r0, r3]
 800597a:	3304      	adds	r3, #4
 800597c:	680a      	ldr	r2, [r1, #0]
 800597e:	50c2      	str	r2, [r0, r3]
 8005980:	4770      	bx	lr
 8005982:	bf00      	nop
 8005984:	40028040 	andmi	r8, r2, r0, asr #32

08005988 <enet_rx_enable>:
 8005988:	4a05      	ldr	r2, [pc, #20]	; (80059a0 <enet_rx_enable+0x18>)
 800598a:	6813      	ldr	r3, [r2, #0]
 800598c:	f043 0304 	orr.w	r3, r3, #4
 8005990:	6013      	str	r3, [r2, #0]
 8005992:	f502 5280 	add.w	r2, r2, #4096	; 0x1000
 8005996:	6993      	ldr	r3, [r2, #24]
 8005998:	f043 0302 	orr.w	r3, r3, #2
 800599c:	6193      	str	r3, [r2, #24]
 800599e:	4770      	bx	lr
 80059a0:	40028000 	andmi	r8, r2, r0

080059a4 <enet_phy_write_read>:
 80059a4:	b530      	push	{r4, r5, lr}
 80059a6:	4d12      	ldr	r5, [pc, #72]	; (80059f0 <enet_phy_write_read+0x4c>)
 80059a8:	4604      	mov	r4, r0
 80059aa:	6928      	ldr	r0, [r5, #16]
 80059ac:	0192      	lsls	r2, r2, #6
 80059ae:	f420 407f 	bic.w	r0, r0, #65280	; 0xff00
 80059b2:	f402 62f8 	and.w	r2, r2, #1984	; 0x7c0
 80059b6:	f020 00c3 	bic.w	r0, r0, #195	; 0xc3
 80059ba:	4302      	orrs	r2, r0
 80059bc:	02c9      	lsls	r1, r1, #11
 80059be:	b289      	uxth	r1, r1
 80059c0:	4322      	orrs	r2, r4
 80059c2:	430a      	orrs	r2, r1
 80059c4:	2c02      	cmp	r4, #2
 80059c6:	bf04      	itt	eq
 80059c8:	8819      	ldrheq	r1, [r3, #0]
 80059ca:	6169      	streq	r1, [r5, #20]
 80059cc:	f042 0201 	orr.w	r2, r2, #1
 80059d0:	612a      	str	r2, [r5, #16]
 80059d2:	4907      	ldr	r1, [pc, #28]	; (80059f0 <enet_phy_write_read+0x4c>)
 80059d4:	4a07      	ldr	r2, [pc, #28]	; (80059f4 <enet_phy_write_read+0x50>)
 80059d6:	6908      	ldr	r0, [r1, #16]
 80059d8:	07c0      	lsls	r0, r0, #31
 80059da:	d501      	bpl.n	80059e0 <enet_phy_write_read+0x3c>
 80059dc:	3a01      	subs	r2, #1
 80059de:	d1fa      	bne.n	80059d6 <enet_phy_write_read+0x32>
 80059e0:	690a      	ldr	r2, [r1, #16]
 80059e2:	43d2      	mvns	r2, r2
 80059e4:	f002 0001 	and.w	r0, r2, #1
 80059e8:	b90c      	cbnz	r4, 80059ee <enet_phy_write_read+0x4a>
 80059ea:	694a      	ldr	r2, [r1, #20]
 80059ec:	801a      	strh	r2, [r3, #0]
 80059ee:	bd30      	pop	{r4, r5, pc}
 80059f0:	40028000 	andmi	r8, r2, r0
 80059f4:	0004ffff 	strdeq	pc, [r4], -pc	; <UNPREDICTABLE>

080059f8 <enet_phy_config>:
 80059f8:	b537      	push	{r0, r1, r2, r4, r5, lr}
 80059fa:	4d26      	ldr	r5, [pc, #152]	; (8005a94 <enet_phy_config+0x9c>)
 80059fc:	2001      	movs	r0, #1
 80059fe:	692c      	ldr	r4, [r5, #16]
 8005a00:	f7fe fe72 	bl	80046e8 <rcu_clock_freq_get>
 8005a04:	4b24      	ldr	r3, [pc, #144]	; (8005a98 <enet_phy_config+0xa0>)
 8005a06:	4a25      	ldr	r2, [pc, #148]	; (8005a9c <enet_phy_config+0xa4>)
 8005a08:	4403      	add	r3, r0
 8005a0a:	4293      	cmp	r3, r2
 8005a0c:	f024 041c 	bic.w	r4, r4, #28
 8005a10:	d21f      	bcs.n	8005a52 <enet_phy_config+0x5a>
 8005a12:	f044 0408 	orr.w	r4, r4, #8
 8005a16:	f44f 4300 	mov.w	r3, #32768	; 0x8000
 8005a1a:	612c      	str	r4, [r5, #16]
 8005a1c:	2200      	movs	r2, #0
 8005a1e:	f8ad 3006 	strh.w	r3, [sp, #6]
 8005a22:	2101      	movs	r1, #1
 8005a24:	f10d 0306 	add.w	r3, sp, #6
 8005a28:	2002      	movs	r0, #2
 8005a2a:	f7ff ffbb 	bl	80059a4 <enet_phy_write_read>
 8005a2e:	b350      	cbz	r0, 8005a86 <enet_phy_config+0x8e>
 8005a30:	481b      	ldr	r0, [pc, #108]	; (8005aa0 <enet_phy_config+0xa8>)
 8005a32:	2200      	movs	r2, #0
 8005a34:	f7ff fea6 	bl	8005784 <enet_delay>
 8005a38:	2101      	movs	r1, #1
 8005a3a:	f10d 0306 	add.w	r3, sp, #6
 8005a3e:	4610      	mov	r0, r2
 8005a40:	f7ff ffb0 	bl	80059a4 <enet_phy_write_read>
 8005a44:	b1f8      	cbz	r0, 8005a86 <enet_phy_config+0x8e>
 8005a46:	f8bd 0006 	ldrh.w	r0, [sp, #6]
 8005a4a:	43c0      	mvns	r0, r0
 8005a4c:	f3c0 30c0 	ubfx	r0, r0, #15, #1
 8005a50:	e01a      	b.n	8005a88 <enet_phy_config+0x90>
 8005a52:	4b14      	ldr	r3, [pc, #80]	; (8005aa4 <enet_phy_config+0xac>)
 8005a54:	4a14      	ldr	r2, [pc, #80]	; (8005aa8 <enet_phy_config+0xb0>)
 8005a56:	4403      	add	r3, r0
 8005a58:	4293      	cmp	r3, r2
 8005a5a:	d802      	bhi.n	8005a62 <enet_phy_config+0x6a>
 8005a5c:	f044 040c 	orr.w	r4, r4, #12
 8005a60:	e7d9      	b.n	8005a16 <enet_phy_config+0x1e>
 8005a62:	4b12      	ldr	r3, [pc, #72]	; (8005aac <enet_phy_config+0xb4>)
 8005a64:	4a12      	ldr	r2, [pc, #72]	; (8005ab0 <enet_phy_config+0xb8>)
 8005a66:	4403      	add	r3, r0
 8005a68:	4293      	cmp	r3, r2
 8005a6a:	d3d4      	bcc.n	8005a16 <enet_phy_config+0x1e>
 8005a6c:	4b11      	ldr	r3, [pc, #68]	; (8005ab4 <enet_phy_config+0xbc>)
 8005a6e:	4a12      	ldr	r2, [pc, #72]	; (8005ab8 <enet_phy_config+0xc0>)
 8005a70:	4403      	add	r3, r0
 8005a72:	4293      	cmp	r3, r2
 8005a74:	d802      	bhi.n	8005a7c <enet_phy_config+0x84>
 8005a76:	f044 0404 	orr.w	r4, r4, #4
 8005a7a:	e7cc      	b.n	8005a16 <enet_phy_config+0x1e>
 8005a7c:	4b0f      	ldr	r3, [pc, #60]	; (8005abc <enet_phy_config+0xc4>)
 8005a7e:	4a10      	ldr	r2, [pc, #64]	; (8005ac0 <enet_phy_config+0xc8>)
 8005a80:	4403      	add	r3, r0
 8005a82:	4293      	cmp	r3, r2
 8005a84:	d902      	bls.n	8005a8c <enet_phy_config+0x94>
 8005a86:	2000      	movs	r0, #0
 8005a88:	b003      	add	sp, #12
 8005a8a:	bd30      	pop	{r4, r5, pc}
 8005a8c:	f044 0410 	orr.w	r4, r4, #16
 8005a90:	e7c1      	b.n	8005a16 <enet_phy_config+0x1e>
 8005a92:	bf00      	nop
 8005a94:	40028000 	andmi	r8, r2, r0
 8005a98:	feced300 	cdp2	3, 12, cr13, cr14, cr0, {0}
 8005a9c:	00e4e1c0 	rsceq	lr, r4, r0, asr #3
 8005aa0:	0004ffff 	strdeq	pc, [r4], -pc	; <UNPREDICTABLE>
 8005aa4:	fde9f140 	stc2l	1, cr15, [r9, #256]!	; 0x100
 8005aa8:	017d783f 	cmneq	sp, pc, lsr r8
 8005aac:	fc6c7900 	stc2l	9, cr7, [ip], #-0	; <UNPREDICTABLE>
 8005ab0:	02625a00 	rsbeq	r5, r2, #0, 20
 8005ab4:	fa0a1f00 	blx	828d6bc <__exidx_end+0x286ac4>
 8005ab8:	02faf07f 	rscseq	pc, sl, #127	; 0x7f
 8005abc:	f70f2e80 			; <UNDEFINED> instruction: 0xf70f2e80
 8005ac0:	02faf080 	rscseq	pc, sl, #128	; 0x80

08005ac4 <enet_init>:
 8005ac4:	b5f7      	push	{r0, r1, r2, r4, r5, r6, r7, lr}
 8005ac6:	2300      	movs	r3, #0
 8005ac8:	4604      	mov	r4, r0
 8005aca:	460d      	mov	r5, r1
 8005acc:	4616      	mov	r6, r2
 8005ace:	f8ad 3006 	strh.w	r3, [sp, #6]
 8005ad2:	f7ff ff91 	bl	80059f8 <enet_phy_config>
 8005ad6:	2800      	cmp	r0, #0
 8005ad8:	d032      	beq.n	8005b40 <enet_init+0x7c>
 8005ada:	4b39      	ldr	r3, [pc, #228]	; (8005bc0 <enet_init+0xfc>)
 8005adc:	4a39      	ldr	r2, [pc, #228]	; (8005bc4 <enet_init+0x100>)
 8005ade:	6819      	ldr	r1, [r3, #0]
 8005ae0:	400a      	ands	r2, r1
 8005ae2:	601a      	str	r2, [r3, #0]
 8005ae4:	2200      	movs	r2, #0
 8005ae6:	605a      	str	r2, [r3, #4]
 8005ae8:	609a      	str	r2, [r3, #8]
 8005aea:	60da      	str	r2, [r3, #12]
 8005aec:	6999      	ldr	r1, [r3, #24]
 8005aee:	f021 01be 	bic.w	r1, r1, #190	; 0xbe
 8005af2:	0409      	lsls	r1, r1, #16
 8005af4:	0c09      	lsrs	r1, r1, #16
 8005af6:	f041 0180 	orr.w	r1, r1, #128	; 0x80
 8005afa:	6199      	str	r1, [r3, #24]
 8005afc:	4932      	ldr	r1, [pc, #200]	; (8005bc8 <enet_init+0x104>)
 8005afe:	61da      	str	r2, [r3, #28]
 8005b00:	6988      	ldr	r0, [r1, #24]
 8005b02:	4b32      	ldr	r3, [pc, #200]	; (8005bcc <enet_init+0x108>)
 8005b04:	4003      	ands	r3, r0
 8005b06:	f043 7308 	orr.w	r3, r3, #35651584	; 0x2200000
 8005b0a:	618b      	str	r3, [r1, #24]
 8005b0c:	680b      	ldr	r3, [r1, #0]
 8005b0e:	4b30      	ldr	r3, [pc, #192]	; (8005bd0 <enet_init+0x10c>)
 8005b10:	600b      	str	r3, [r1, #0]
 8005b12:	2c01      	cmp	r4, #1
 8005b14:	d01e      	beq.n	8005b54 <enet_init+0x90>
 8005b16:	08e3      	lsrs	r3, r4, #3
 8005b18:	0861      	lsrs	r1, r4, #1
 8005b1a:	f401 5100 	and.w	r1, r1, #8192	; 0x2000
 8005b1e:	f403 7380 	and.w	r3, r3, #256	; 0x100
 8005b22:	430b      	orrs	r3, r1
 8005b24:	f8ad 3006 	strh.w	r3, [sp, #6]
 8005b28:	2101      	movs	r1, #1
 8005b2a:	f10d 0306 	add.w	r3, sp, #6
 8005b2e:	2002      	movs	r0, #2
 8005b30:	f7ff ff38 	bl	80059a4 <enet_phy_write_read>
 8005b34:	b158      	cbz	r0, 8005b4e <enet_init+0x8a>
 8005b36:	f06f 407f 	mvn.w	r0, #4278190080	; 0xff000000
 8005b3a:	f7ff fe23 	bl	8005784 <enet_delay>
 8005b3e:	e05e      	b.n	8005bfe <enet_init+0x13a>
 8005b40:	4824      	ldr	r0, [pc, #144]	; (8005bd4 <enet_init+0x110>)
 8005b42:	f7ff fe1f 	bl	8005784 <enet_delay>
 8005b46:	f7ff ff57 	bl	80059f8 <enet_phy_config>
 8005b4a:	2800      	cmp	r0, #0
 8005b4c:	d1c5      	bne.n	8005ada <enet_init+0x16>
 8005b4e:	2000      	movs	r0, #0
 8005b50:	b003      	add	sp, #12
 8005b52:	bdf0      	pop	{r4, r5, r6, r7, pc}
 8005b54:	4f20      	ldr	r7, [pc, #128]	; (8005bd8 <enet_init+0x114>)
 8005b56:	4614      	mov	r4, r2
 8005b58:	2201      	movs	r2, #1
 8005b5a:	4611      	mov	r1, r2
 8005b5c:	f10d 0306 	add.w	r3, sp, #6
 8005b60:	2000      	movs	r0, #0
 8005b62:	f7ff ff1f 	bl	80059a4 <enet_phy_write_read>
 8005b66:	f8bd 2006 	ldrh.w	r2, [sp, #6]
 8005b6a:	f002 0204 	and.w	r2, r2, #4
 8005b6e:	f8ad 2006 	strh.w	r2, [sp, #6]
 8005b72:	3401      	adds	r4, #1
 8005b74:	b912      	cbnz	r2, 8005b7c <enet_init+0xb8>
 8005b76:	42bc      	cmp	r4, r7
 8005b78:	d1ee      	bne.n	8005b58 <enet_init+0x94>
 8005b7a:	e7e8      	b.n	8005b4e <enet_init+0x8a>
 8005b7c:	42bc      	cmp	r4, r7
 8005b7e:	d0e6      	beq.n	8005b4e <enet_init+0x8a>
 8005b80:	f44f 5280 	mov.w	r2, #4096	; 0x1000
 8005b84:	f8ad 2006 	strh.w	r2, [sp, #6]
 8005b88:	2101      	movs	r1, #1
 8005b8a:	2200      	movs	r2, #0
 8005b8c:	2002      	movs	r0, #2
 8005b8e:	f7ff ff09 	bl	80059a4 <enet_phy_write_read>
 8005b92:	2800      	cmp	r0, #0
 8005b94:	d0db      	beq.n	8005b4e <enet_init+0x8a>
 8005b96:	4f10      	ldr	r7, [pc, #64]	; (8005bd8 <enet_init+0x114>)
 8005b98:	2400      	movs	r4, #0
 8005b9a:	2201      	movs	r2, #1
 8005b9c:	4611      	mov	r1, r2
 8005b9e:	f10d 0306 	add.w	r3, sp, #6
 8005ba2:	2000      	movs	r0, #0
 8005ba4:	f7ff fefe 	bl	80059a4 <enet_phy_write_read>
 8005ba8:	f8bd 2006 	ldrh.w	r2, [sp, #6]
 8005bac:	f002 0220 	and.w	r2, r2, #32
 8005bb0:	f8ad 2006 	strh.w	r2, [sp, #6]
 8005bb4:	3401      	adds	r4, #1
 8005bb6:	b98a      	cbnz	r2, 8005bdc <enet_init+0x118>
 8005bb8:	42bc      	cmp	r4, r7
 8005bba:	d1ee      	bne.n	8005b9a <enet_init+0xd6>
 8005bbc:	e7c7      	b.n	8005b4e <enet_init+0x8a>
 8005bbe:	bf00      	nop
 8005bc0:	40028000 	andmi	r8, r2, r0
 8005bc4:	fd30810f 	ldc2	1, cr8, [r0, #-60]!	; 0xffffffc4
 8005bc8:	40029000 	andmi	r9, r2, r0
 8005bcc:	f8de3f23 			; <UNDEFINED> instruction: 0xf8de3f23
 8005bd0:	02c16000 	sbceq	r6, r1, #0
 8005bd4:	008fffff 	strdeq	pc, [pc], pc	; <UNPREDICTABLE>
 8005bd8:	0004ffff 	strdeq	pc, [r4], -pc	; <UNPREDICTABLE>
 8005bdc:	42bc      	cmp	r4, r7
 8005bde:	d0b6      	beq.n	8005b4e <enet_init+0x8a>
 8005be0:	2101      	movs	r1, #1
 8005be2:	2210      	movs	r2, #16
 8005be4:	2000      	movs	r0, #0
 8005be6:	f7ff fedd 	bl	80059a4 <enet_phy_write_read>
 8005bea:	f8bd 3006 	ldrh.w	r3, [sp, #6]
 8005bee:	f3c3 0480 	ubfx	r4, r3, #2, #1
 8005bf2:	0799      	lsls	r1, r3, #30
 8005bf4:	ea4f 24c4 	mov.w	r4, r4, lsl #11
 8005bf8:	d401      	bmi.n	8005bfe <enet_init+0x13a>
 8005bfa:	f444 4480 	orr.w	r4, r4, #16384	; 0x4000
 8005bfe:	4b69      	ldr	r3, [pc, #420]	; (8005da4 <enet_init+0x2e0>)
 8005c00:	681a      	ldr	r2, [r3, #0]
 8005c02:	f422 42b0 	bic.w	r2, r2, #22528	; 0x5800
 8005c06:	4314      	orrs	r4, r2
 8005c08:	056a      	lsls	r2, r5, #21
 8005c0a:	601c      	str	r4, [r3, #0]
 8005c0c:	d50b      	bpl.n	8005c26 <enet_init+0x162>
 8005c0e:	681a      	ldr	r2, [r3, #0]
 8005c10:	f442 6280 	orr.w	r2, r2, #1024	; 0x400
 8005c14:	601a      	str	r2, [r3, #0]
 8005c16:	4a64      	ldr	r2, [pc, #400]	; (8005da8 <enet_init+0x2e4>)
 8005c18:	6993      	ldr	r3, [r2, #24]
 8005c1a:	f005 6580 	and.w	r5, r5, #67108864	; 0x4000000
 8005c1e:	f023 6380 	bic.w	r3, r3, #67108864	; 0x4000000
 8005c22:	431d      	orrs	r5, r3
 8005c24:	6195      	str	r5, [r2, #24]
 8005c26:	485f      	ldr	r0, [pc, #380]	; (8005da4 <enet_init+0x2e0>)
 8005c28:	6843      	ldr	r3, [r0, #4]
 8005c2a:	431e      	orrs	r6, r3
 8005c2c:	4b5f      	ldr	r3, [pc, #380]	; (8005dac <enet_init+0x2e8>)
 8005c2e:	6046      	str	r6, [r0, #4]
 8005c30:	681a      	ldr	r2, [r3, #0]
 8005c32:	07d7      	lsls	r7, r2, #31
 8005c34:	d513      	bpl.n	8005c5e <enet_init+0x19a>
 8005c36:	6801      	ldr	r1, [r0, #0]
 8005c38:	685a      	ldr	r2, [r3, #4]
 8005c3a:	4c5d      	ldr	r4, [pc, #372]	; (8005db0 <enet_init+0x2ec>)
 8005c3c:	f021 7100 	bic.w	r1, r1, #33554432	; 0x2000000
 8005c40:	4014      	ands	r4, r2
 8005c42:	f021 0180 	bic.w	r1, r1, #128	; 0x80
 8005c46:	4321      	orrs	r1, r4
 8005c48:	6001      	str	r1, [r0, #0]
 8005c4a:	f500 5080 	add.w	r0, r0, #4096	; 0x1000
 8005c4e:	0892      	lsrs	r2, r2, #2
 8005c50:	6981      	ldr	r1, [r0, #24]
 8005c52:	f002 02c0 	and.w	r2, r2, #192	; 0xc0
 8005c56:	f021 01c0 	bic.w	r1, r1, #192	; 0xc0
 8005c5a:	430a      	orrs	r2, r1
 8005c5c:	6182      	str	r2, [r0, #24]
 8005c5e:	681a      	ldr	r2, [r3, #0]
 8005c60:	0796      	lsls	r6, r2, #30
 8005c62:	d508      	bpl.n	8005c76 <enet_init+0x1b2>
 8005c64:	4950      	ldr	r1, [pc, #320]	; (8005da8 <enet_init+0x2e4>)
 8005c66:	6898      	ldr	r0, [r3, #8]
 8005c68:	680a      	ldr	r2, [r1, #0]
 8005c6a:	f022 62e0 	bic.w	r2, r2, #117440512	; 0x7000000
 8005c6e:	f422 3280 	bic.w	r2, r2, #65536	; 0x10000
 8005c72:	4302      	orrs	r2, r0
 8005c74:	600a      	str	r2, [r1, #0]
 8005c76:	681a      	ldr	r2, [r3, #0]
 8005c78:	0755      	lsls	r5, r2, #29
 8005c7a:	d508      	bpl.n	8005c8e <enet_init+0x1ca>
 8005c7c:	494a      	ldr	r1, [pc, #296]	; (8005da8 <enet_init+0x2e4>)
 8005c7e:	68d8      	ldr	r0, [r3, #12]
 8005c80:	680a      	ldr	r2, [r1, #0]
 8005c82:	f422 027e 	bic.w	r2, r2, #16646144	; 0xfe0000
 8005c86:	f422 527c 	bic.w	r2, r2, #16128	; 0x3f00
 8005c8a:	4302      	orrs	r2, r0
 8005c8c:	600a      	str	r2, [r1, #0]
 8005c8e:	681a      	ldr	r2, [r3, #0]
 8005c90:	0714      	lsls	r4, r2, #28
 8005c92:	d508      	bpl.n	8005ca6 <enet_init+0x1e2>
 8005c94:	4944      	ldr	r1, [pc, #272]	; (8005da8 <enet_init+0x2e4>)
 8005c96:	6918      	ldr	r0, [r3, #16]
 8005c98:	680a      	ldr	r2, [r1, #0]
 8005c9a:	f422 4240 	bic.w	r2, r2, #49152	; 0xc000
 8005c9e:	f022 0202 	bic.w	r2, r2, #2
 8005ca2:	4302      	orrs	r2, r0
 8005ca4:	600a      	str	r2, [r1, #0]
 8005ca6:	681a      	ldr	r2, [r3, #0]
 8005ca8:	06d0      	lsls	r0, r2, #27
 8005caa:	d506      	bpl.n	8005cba <enet_init+0x1f6>
 8005cac:	493e      	ldr	r1, [pc, #248]	; (8005da8 <enet_init+0x2e4>)
 8005cae:	4a41      	ldr	r2, [pc, #260]	; (8005db4 <enet_init+0x2f0>)
 8005cb0:	6988      	ldr	r0, [r1, #24]
 8005cb2:	4002      	ands	r2, r0
 8005cb4:	6958      	ldr	r0, [r3, #20]
 8005cb6:	4302      	orrs	r2, r0
 8005cb8:	618a      	str	r2, [r1, #24]
 8005cba:	681a      	ldr	r2, [r3, #0]
 8005cbc:	0691      	lsls	r1, r2, #26
 8005cbe:	d511      	bpl.n	8005ce4 <enet_init+0x220>
 8005cc0:	4839      	ldr	r0, [pc, #228]	; (8005da8 <enet_init+0x2e4>)
 8005cc2:	699a      	ldr	r2, [r3, #24]
 8005cc4:	6981      	ldr	r1, [r0, #24]
 8005cc6:	4c3c      	ldr	r4, [pc, #240]	; (8005db8 <enet_init+0x2f4>)
 8005cc8:	f021 7180 	bic.w	r1, r1, #16777216	; 0x1000000
 8005ccc:	4014      	ands	r4, r2
 8005cce:	f021 0104 	bic.w	r1, r1, #4
 8005cd2:	4321      	orrs	r1, r4
 8005cd4:	6181      	str	r1, [r0, #24]
 8005cd6:	6801      	ldr	r1, [r0, #0]
 8005cd8:	f002 0280 	and.w	r2, r2, #128	; 0x80
 8005cdc:	f021 0180 	bic.w	r1, r1, #128	; 0x80
 8005ce0:	430a      	orrs	r2, r1
 8005ce2:	6002      	str	r2, [r0, #0]
 8005ce4:	681a      	ldr	r2, [r3, #0]
 8005ce6:	0652      	lsls	r2, r2, #25
 8005ce8:	d506      	bpl.n	8005cf8 <enet_init+0x234>
 8005cea:	492e      	ldr	r1, [pc, #184]	; (8005da4 <enet_init+0x2e0>)
 8005cec:	69d8      	ldr	r0, [r3, #28]
 8005cee:	69ca      	ldr	r2, [r1, #28]
 8005cf0:	0c52      	lsrs	r2, r2, #17
 8005cf2:	0452      	lsls	r2, r2, #17
 8005cf4:	4302      	orrs	r2, r0
 8005cf6:	61ca      	str	r2, [r1, #28]
 8005cf8:	681a      	ldr	r2, [r3, #0]
 8005cfa:	0617      	lsls	r7, r2, #24
 8005cfc:	d517      	bpl.n	8005d2e <enet_init+0x26a>
 8005cfe:	4c29      	ldr	r4, [pc, #164]	; (8005da4 <enet_init+0x2e0>)
 8005d00:	6a1a      	ldr	r2, [r3, #32]
 8005d02:	69a0      	ldr	r0, [r4, #24]
 8005d04:	f020 00be 	bic.w	r0, r0, #190	; 0xbe
 8005d08:	f422 417f 	bic.w	r1, r2, #65280	; 0xff00
 8005d0c:	0400      	lsls	r0, r0, #16
 8005d0e:	0c00      	lsrs	r0, r0, #16
 8005d10:	f021 0141 	bic.w	r1, r1, #65	; 0x41
 8005d14:	4301      	orrs	r1, r0
 8005d16:	4824      	ldr	r0, [pc, #144]	; (8005da8 <enet_init+0x2e4>)
 8005d18:	61a1      	str	r1, [r4, #24]
 8005d1a:	f8d0 1080 	ldr.w	r1, [r0, #128]	; 0x80
 8005d1e:	0a12      	lsrs	r2, r2, #8
 8005d20:	f021 0177 	bic.w	r1, r1, #119	; 0x77
 8005d24:	f002 0277 	and.w	r2, r2, #119	; 0x77
 8005d28:	430a      	orrs	r2, r1
 8005d2a:	f8c0 2080 	str.w	r2, [r0, #128]	; 0x80
 8005d2e:	681a      	ldr	r2, [r3, #0]
 8005d30:	05d6      	lsls	r6, r2, #23
 8005d32:	bf42      	ittt	mi
 8005d34:	4a1b      	ldrmi	r2, [pc, #108]	; (8005da4 <enet_init+0x2e0>)
 8005d36:	6a59      	ldrmi	r1, [r3, #36]	; 0x24
 8005d38:	6091      	strmi	r1, [r2, #8]
 8005d3a:	681a      	ldr	r2, [r3, #0]
 8005d3c:	0595      	lsls	r5, r2, #22
 8005d3e:	bf42      	ittt	mi
 8005d40:	4a18      	ldrmi	r2, [pc, #96]	; (8005da4 <enet_init+0x2e0>)
 8005d42:	6a99      	ldrmi	r1, [r3, #40]	; 0x28
 8005d44:	60d1      	strmi	r1, [r2, #12]
 8005d46:	681a      	ldr	r2, [r3, #0]
 8005d48:	0554      	lsls	r4, r2, #21
 8005d4a:	d508      	bpl.n	8005d5e <enet_init+0x29a>
 8005d4c:	4915      	ldr	r1, [pc, #84]	; (8005da4 <enet_init+0x2e0>)
 8005d4e:	6ad8      	ldr	r0, [r3, #44]	; 0x2c
 8005d50:	684a      	ldr	r2, [r1, #4]
 8005d52:	f422 62fb 	bic.w	r2, r2, #2008	; 0x7d8
 8005d56:	f022 0206 	bic.w	r2, r2, #6
 8005d5a:	4302      	orrs	r2, r0
 8005d5c:	604a      	str	r2, [r1, #4]
 8005d5e:	681a      	ldr	r2, [r3, #0]
 8005d60:	0510      	lsls	r0, r2, #20
 8005d62:	d508      	bpl.n	8005d76 <enet_init+0x2b2>
 8005d64:	490f      	ldr	r1, [pc, #60]	; (8005da4 <enet_init+0x2e0>)
 8005d66:	6b18      	ldr	r0, [r3, #48]	; 0x30
 8005d68:	680a      	ldr	r2, [r1, #0]
 8005d6a:	f422 3291 	bic.w	r2, r2, #74240	; 0x12200
 8005d6e:	f022 0270 	bic.w	r2, r2, #112	; 0x70
 8005d72:	4302      	orrs	r2, r0
 8005d74:	600a      	str	r2, [r1, #0]
 8005d76:	681a      	ldr	r2, [r3, #0]
 8005d78:	04d1      	lsls	r1, r2, #19
 8005d7a:	d506      	bpl.n	8005d8a <enet_init+0x2c6>
 8005d7c:	4909      	ldr	r1, [pc, #36]	; (8005da4 <enet_init+0x2e0>)
 8005d7e:	6b58      	ldr	r0, [r3, #52]	; 0x34
 8005d80:	680a      	ldr	r2, [r1, #0]
 8005d82:	f422 0240 	bic.w	r2, r2, #12582912	; 0xc00000
 8005d86:	4302      	orrs	r2, r0
 8005d88:	600a      	str	r2, [r1, #0]
 8005d8a:	681a      	ldr	r2, [r3, #0]
 8005d8c:	0492      	lsls	r2, r2, #18
 8005d8e:	d506      	bpl.n	8005d9e <enet_init+0x2da>
 8005d90:	4904      	ldr	r1, [pc, #16]	; (8005da4 <enet_init+0x2e0>)
 8005d92:	6b9b      	ldr	r3, [r3, #56]	; 0x38
 8005d94:	680a      	ldr	r2, [r1, #0]
 8005d96:	f422 2260 	bic.w	r2, r2, #917504	; 0xe0000
 8005d9a:	4313      	orrs	r3, r2
 8005d9c:	600b      	str	r3, [r1, #0]
 8005d9e:	2001      	movs	r0, #1
 8005da0:	e6d6      	b.n	8005b50 <enet_init+0x8c>
 8005da2:	bf00      	nop
 8005da4:	40028000 	andmi	r8, r2, r0
 8005da8:	40029000 	andmi	r9, r2, r0
 8005dac:	200031f4 	strdcs	r3, [r0], -r4
 8005db0:	02000080 	andeq	r0, r0, #128	; 0x80
 8005db4:	fdde3fe7 	ldc2l	15, cr3, [lr, #924]	; 0x39c
 8005db8:	01000004 	tsteq	r0, r4

08005dbc <enet_txfifo_flush>:
 8005dbc:	4b06      	ldr	r3, [pc, #24]	; (8005dd8 <enet_txfifo_flush+0x1c>)
 8005dbe:	4807      	ldr	r0, [pc, #28]	; (8005ddc <enet_txfifo_flush+0x20>)
 8005dc0:	699a      	ldr	r2, [r3, #24]
 8005dc2:	f442 1280 	orr.w	r2, r2, #1048576	; 0x100000
 8005dc6:	619a      	str	r2, [r3, #24]
 8005dc8:	699a      	ldr	r2, [r3, #24]
 8005dca:	02d2      	lsls	r2, r2, #11
 8005dcc:	d502      	bpl.n	8005dd4 <enet_txfifo_flush+0x18>
 8005dce:	3801      	subs	r0, #1
 8005dd0:	d1fa      	bne.n	8005dc8 <enet_txfifo_flush+0xc>
 8005dd2:	4770      	bx	lr
 8005dd4:	2001      	movs	r0, #1
 8005dd6:	4770      	bx	lr
 8005dd8:	40029000 	andmi	r9, r2, r0
 8005ddc:	0004ffff 	strdeq	pc, [r4], -pc	; <UNPREDICTABLE>

08005de0 <enet_tx_enable>:
 8005de0:	4a06      	ldr	r2, [pc, #24]	; (8005dfc <enet_tx_enable+0x1c>)
 8005de2:	b508      	push	{r3, lr}
 8005de4:	6813      	ldr	r3, [r2, #0]
 8005de6:	f043 0308 	orr.w	r3, r3, #8
 8005dea:	6013      	str	r3, [r2, #0]
 8005dec:	f7ff ffe6 	bl	8005dbc <enet_txfifo_flush>
 8005df0:	4a03      	ldr	r2, [pc, #12]	; (8005e00 <enet_tx_enable+0x20>)
 8005df2:	6993      	ldr	r3, [r2, #24]
 8005df4:	f443 5300 	orr.w	r3, r3, #8192	; 0x2000
 8005df8:	6193      	str	r3, [r2, #24]
 8005dfa:	bd08      	pop	{r3, pc}
 8005dfc:	40028000 	andmi	r8, r2, r0
 8005e00:	40029000 	andmi	r9, r2, r0

08005e04 <enet_enable>:
 8005e04:	b508      	push	{r3, lr}
 8005e06:	f7ff ffeb 	bl	8005de0 <enet_tx_enable>
 8005e0a:	e8bd 4008 	ldmia.w	sp!, {r3, lr}
 8005e0e:	f7ff bdbb 	b.w	8005988 <enet_rx_enable>
	...

08005e14 <enet_desc_information_get>:
 8005e14:	2905      	cmp	r1, #5
 8005e16:	d820      	bhi.n	8005e5a <enet_desc_information_get+0x46>
 8005e18:	e8df f001 	tbb	[pc, r1]
 8005e1c:	0309191b 	movweq	r1, #39195	; 0x991b
 8005e20:	68401907 	stmdavs	r0, {r0, r1, r2, r8, fp, ip}^
 8005e24:	f3c0 000c 	ubfx	r0, r0, #0, #13
 8005e28:	4770      	bx	lr
 8005e2a:	88c0      	ldrh	r0, [r0, #6]
 8005e2c:	e7fa      	b.n	8005e24 <enet_desc_information_get+0x10>
 8005e2e:	6802      	ldr	r2, [r0, #0]
 8005e30:	f3c2 430d 	ubfx	r3, r2, #16, #14
 8005e34:	2b04      	cmp	r3, #4
 8005e36:	d913      	bls.n	8005e60 <enet_desc_information_get+0x4c>
 8005e38:	490a      	ldr	r1, [pc, #40]	; (8005e64 <enet_desc_information_get+0x50>)
 8005e3a:	6809      	ldr	r1, [r1, #0]
 8005e3c:	0189      	lsls	r1, r1, #6
 8005e3e:	f1a3 0004 	sub.w	r0, r3, #4
 8005e42:	d50e      	bpl.n	8005e62 <enet_desc_information_get+0x4e>
 8005e44:	f012 0f20 	tst.w	r2, #32
 8005e48:	bf18      	it	ne
 8005e4a:	4618      	movne	r0, r3
 8005e4c:	4770      	bx	lr
 8005e4e:	6880      	ldr	r0, [r0, #8]
 8005e50:	4770      	bx	lr
 8005e52:	6800      	ldr	r0, [r0, #0]
 8005e54:	f3c0 00c3 	ubfx	r0, r0, #3, #4
 8005e58:	4770      	bx	lr
 8005e5a:	f04f 30ff 	mov.w	r0, #4294967295	; 0xffffffff
 8005e5e:	4770      	bx	lr
 8005e60:	2000      	movs	r0, #0
 8005e62:	4770      	bx	lr
 8005e64:	40028000 	andmi	r8, r2, r0

08005e68 <enet_rxframe_drop>:
 8005e68:	4815      	ldr	r0, [pc, #84]	; (8005ec0 <enet_rxframe_drop+0x58>)
 8005e6a:	4916      	ldr	r1, [pc, #88]	; (8005ec4 <enet_rxframe_drop+0x5c>)
 8005e6c:	6802      	ldr	r2, [r0, #0]
 8005e6e:	b510      	push	{r4, lr}
 8005e70:	6854      	ldr	r4, [r2, #4]
 8005e72:	f04f 4300 	mov.w	r3, #2147483648	; 0x80000000
 8005e76:	f414 4f80 	tst.w	r4, #16384	; 0x4000
 8005e7a:	6013      	str	r3, [r2, #0]
 8005e7c:	680b      	ldr	r3, [r1, #0]
 8005e7e:	d009      	beq.n	8005e94 <enet_rxframe_drop+0x2c>
 8005e80:	b12b      	cbz	r3, 8005e8e <enet_rxframe_drop+0x26>
 8005e82:	68da      	ldr	r2, [r3, #12]
 8005e84:	6002      	str	r2, [r0, #0]
 8005e86:	681a      	ldr	r2, [r3, #0]
 8005e88:	b1ba      	cbz	r2, 8005eba <enet_rxframe_drop+0x52>
 8005e8a:	600a      	str	r2, [r1, #0]
 8005e8c:	bd10      	pop	{r4, pc}
 8005e8e:	68d3      	ldr	r3, [r2, #12]
 8005e90:	6003      	str	r3, [r0, #0]
 8005e92:	e7fb      	b.n	8005e8c <enet_rxframe_drop+0x24>
 8005e94:	f414 4f00 	tst.w	r4, #32768	; 0x8000
 8005e98:	4c0b      	ldr	r4, [pc, #44]	; (8005ec8 <enet_rxframe_drop+0x60>)
 8005e9a:	d006      	beq.n	8005eaa <enet_rxframe_drop+0x42>
 8005e9c:	68e2      	ldr	r2, [r4, #12]
 8005e9e:	6002      	str	r2, [r0, #0]
 8005ea0:	2b00      	cmp	r3, #0
 8005ea2:	d0f3      	beq.n	8005e8c <enet_rxframe_drop+0x24>
 8005ea4:	681b      	ldr	r3, [r3, #0]
 8005ea6:	600b      	str	r3, [r1, #0]
 8005ea8:	e7f0      	b.n	8005e8c <enet_rxframe_drop+0x24>
 8005eaa:	6824      	ldr	r4, [r4, #0]
 8005eac:	3210      	adds	r2, #16
 8005eae:	f3c4 0484 	ubfx	r4, r4, #2, #5
 8005eb2:	4422      	add	r2, r4
 8005eb4:	6002      	str	r2, [r0, #0]
 8005eb6:	2b00      	cmp	r3, #0
 8005eb8:	d0e8      	beq.n	8005e8c <enet_rxframe_drop+0x24>
 8005eba:	3310      	adds	r3, #16
 8005ebc:	e7f3      	b.n	8005ea6 <enet_rxframe_drop+0x3e>
 8005ebe:	bf00      	nop
 8005ec0:	200031ec 	andcs	r3, r0, ip, ror #3
 8005ec4:	200031e4 	andcs	r3, r0, r4, ror #3
 8005ec8:	40029000 	andmi	r9, r2, r0

08005ecc <enet_rxframe_size_get>:
 8005ecc:	b508      	push	{r3, lr}
 8005ece:	4b10      	ldr	r3, [pc, #64]	; (8005f10 <enet_rxframe_size_get+0x44>)
 8005ed0:	681b      	ldr	r3, [r3, #0]
 8005ed2:	681b      	ldr	r3, [r3, #0]
 8005ed4:	2b00      	cmp	r3, #0
 8005ed6:	db19      	blt.n	8005f0c <enet_rxframe_size_get+0x40>
 8005ed8:	f403 4203 	and.w	r2, r3, #33536	; 0x8300
 8005edc:	f5b2 7f40 	cmp.w	r2, #768	; 0x300
 8005ee0:	d003      	beq.n	8005eea <enet_rxframe_size_get+0x1e>
 8005ee2:	f7ff ffc1 	bl	8005e68 <enet_rxframe_drop>
 8005ee6:	2001      	movs	r0, #1
 8005ee8:	bd08      	pop	{r3, pc}
 8005eea:	f003 0221 	and.w	r2, r3, #33	; 0x21
 8005eee:	2a21      	cmp	r2, #33	; 0x21
 8005ef0:	d0f7      	beq.n	8005ee2 <enet_rxframe_size_get+0x16>
 8005ef2:	4908      	ldr	r1, [pc, #32]	; (8005f14 <enet_rxframe_size_get+0x48>)
 8005ef4:	6809      	ldr	r1, [r1, #0]
 8005ef6:	f3c3 420d 	ubfx	r2, r3, #16, #14
 8005efa:	0189      	lsls	r1, r1, #6
 8005efc:	f1a2 0004 	sub.w	r0, r2, #4
 8005f00:	d5f2      	bpl.n	8005ee8 <enet_rxframe_size_get+0x1c>
 8005f02:	f013 0f20 	tst.w	r3, #32
 8005f06:	bf18      	it	ne
 8005f08:	4610      	movne	r0, r2
 8005f0a:	e7ed      	b.n	8005ee8 <enet_rxframe_size_get+0x1c>
 8005f0c:	2000      	movs	r0, #0
 8005f0e:	e7eb      	b.n	8005ee8 <enet_rxframe_size_get+0x1c>
 8005f10:	200031ec 	andcs	r3, r0, ip, ror #3
 8005f14:	40028000 	andmi	r8, r2, r0

08005f18 <enet_initpara_reset>:
 8005f18:	4b08      	ldr	r3, [pc, #32]	; (8005f3c <enet_initpara_reset+0x24>)
 8005f1a:	2200      	movs	r2, #0
 8005f1c:	e9c3 2200 	strd	r2, r2, [r3]
 8005f20:	e9c3 2202 	strd	r2, r2, [r3, #8]
 8005f24:	e9c3 2204 	strd	r2, r2, [r3, #16]
 8005f28:	e9c3 2206 	strd	r2, r2, [r3, #24]
 8005f2c:	e9c3 2208 	strd	r2, r2, [r3, #32]
 8005f30:	e9c3 220a 	strd	r2, r2, [r3, #40]	; 0x28
 8005f34:	e9c3 220c 	strd	r2, r2, [r3, #48]	; 0x30
 8005f38:	639a      	str	r2, [r3, #56]	; 0x38
 8005f3a:	4770      	bx	lr
 8005f3c:	200031f4 	strdcs	r3, [r0], -r4

08005f40 <enet_deinit>:
 8005f40:	b508      	push	{r3, lr}
 8005f42:	f240 4019 	movw	r0, #1049	; 0x419
 8005f46:	f7fe fbae 	bl	80046a6 <rcu_periph_reset_enable>
 8005f4a:	f240 4019 	movw	r0, #1049	; 0x419
 8005f4e:	f7fe fbac 	bl	80046aa <rcu_periph_reset_disable>
 8005f52:	e8bd 4008 	ldmia.w	sp!, {r3, lr}
 8005f56:	f7ff bfdf 	b.w	8005f18 <enet_initpara_reset>
	...

08005f5c <i2c_clock_config>:
 8005f5c:	b5f8      	push	{r3, r4, r5, r6, r7, lr}
 8005f5e:	4605      	mov	r5, r0
 8005f60:	2002      	movs	r0, #2
 8005f62:	460c      	mov	r4, r1
 8005f64:	4617      	mov	r7, r2
 8005f66:	f7fe fbbf 	bl	80046e8 <rcu_clock_freq_get>
 8005f6a:	4a26      	ldr	r2, [pc, #152]	; (8006004 <i2c_clock_config+0xa8>)
 8005f6c:	686e      	ldr	r6, [r5, #4]
 8005f6e:	4603      	mov	r3, r0
 8005f70:	4825      	ldr	r0, [pc, #148]	; (8006008 <i2c_clock_config+0xac>)
 8005f72:	fbb3 f0f0 	udiv	r0, r3, r0
 8005f76:	4293      	cmp	r3, r2
 8005f78:	bf94      	ite	ls
 8005f7a:	4601      	movls	r1, r0
 8005f7c:	2132      	movhi	r1, #50	; 0x32
 8005f7e:	4a23      	ldr	r2, [pc, #140]	; (800600c <i2c_clock_config+0xb0>)
 8005f80:	f026 063f 	bic.w	r6, r6, #63	; 0x3f
 8005f84:	430e      	orrs	r6, r1
 8005f86:	4294      	cmp	r4, r2
 8005f88:	606e      	str	r6, [r5, #4]
 8005f8a:	d811      	bhi.n	8005fb0 <i2c_clock_config+0x54>
 8005f8c:	3001      	adds	r0, #1
 8005f8e:	2831      	cmp	r0, #49	; 0x31
 8005f90:	bf86      	itte	hi
 8005f92:	2232      	movhi	r2, #50	; 0x32
 8005f94:	622a      	strhi	r2, [r5, #32]
 8005f96:	6228      	strls	r0, [r5, #32]
 8005f98:	0064      	lsls	r4, r4, #1
 8005f9a:	fbb3 f4f4 	udiv	r4, r3, r4
 8005f9e:	2c04      	cmp	r4, #4
 8005fa0:	69ea      	ldr	r2, [r5, #28]
 8005fa2:	bf38      	it	cc
 8005fa4:	2404      	movcc	r4, #4
 8005fa6:	f3c4 040b 	ubfx	r4, r4, #0, #12
 8005faa:	4314      	orrs	r4, r2
 8005fac:	61ec      	str	r4, [r5, #28]
 8005fae:	bdf8      	pop	{r3, r4, r5, r6, r7, pc}
 8005fb0:	4a17      	ldr	r2, [pc, #92]	; (8006010 <i2c_clock_config+0xb4>)
 8005fb2:	4294      	cmp	r4, r2
 8005fb4:	d8fb      	bhi.n	8005fae <i2c_clock_config+0x52>
 8005fb6:	f44f 7296 	mov.w	r2, #300	; 0x12c
 8005fba:	4351      	muls	r1, r2
 8005fbc:	f44f 727a 	mov.w	r2, #1000	; 0x3e8
 8005fc0:	fbb1 f1f2 	udiv	r1, r1, r2
 8005fc4:	3101      	adds	r1, #1
 8005fc6:	6229      	str	r1, [r5, #32]
 8005fc8:	b9a7      	cbnz	r7, 8005ff4 <i2c_clock_config+0x98>
 8005fca:	eb04 0444 	add.w	r4, r4, r4, lsl #1
 8005fce:	fbb3 f4f4 	udiv	r4, r3, r4
 8005fd2:	69eb      	ldr	r3, [r5, #28]
 8005fd4:	f423 4380 	bic.w	r3, r3, #16384	; 0x4000
 8005fd8:	61eb      	str	r3, [r5, #28]
 8005fda:	f3c4 030b 	ubfx	r3, r4, #0, #12
 8005fde:	b90b      	cbnz	r3, 8005fe4 <i2c_clock_config+0x88>
 8005fe0:	f044 0401 	orr.w	r4, r4, #1
 8005fe4:	69eb      	ldr	r3, [r5, #28]
 8005fe6:	f443 4300 	orr.w	r3, r3, #32768	; 0x8000
 8005fea:	61eb      	str	r3, [r5, #28]
 8005fec:	69eb      	ldr	r3, [r5, #28]
 8005fee:	4323      	orrs	r3, r4
 8005ff0:	61eb      	str	r3, [r5, #28]
 8005ff2:	e7dc      	b.n	8005fae <i2c_clock_config+0x52>
 8005ff4:	2219      	movs	r2, #25
 8005ff6:	4354      	muls	r4, r2
 8005ff8:	fbb3 f4f4 	udiv	r4, r3, r4
 8005ffc:	69eb      	ldr	r3, [r5, #28]
 8005ffe:	f443 4380 	orr.w	r3, r3, #16384	; 0x4000
 8006002:	e7e9      	b.n	8005fd8 <i2c_clock_config+0x7c>
 8006004:	02faf07f 	rscseq	pc, sl, #127	; 0x7f
 8006008:	000f4240 	andeq	r4, pc, r0, asr #4
 800600c:	000186a0 	andeq	r8, r1, r0, lsr #13
 8006010:	00061a80 	andeq	r1, r6, r0, lsl #21

08006014 <i2c_ack_config>:
 8006014:	6803      	ldr	r3, [r0, #0]
 8006016:	2901      	cmp	r1, #1
 8006018:	bf0c      	ite	eq
 800601a:	f443 6380 	orreq.w	r3, r3, #1024	; 0x400
 800601e:	f423 6380 	bicne.w	r3, r3, #1024	; 0x400
 8006022:	6003      	str	r3, [r0, #0]
 8006024:	4770      	bx	lr

08006026 <i2c_ackpos_config>:
 8006026:	6803      	ldr	r3, [r0, #0]
 8006028:	b919      	cbnz	r1, 8006032 <i2c_ackpos_config+0xc>
 800602a:	f443 6300 	orr.w	r3, r3, #2048	; 0x800
 800602e:	6003      	str	r3, [r0, #0]
 8006030:	4770      	bx	lr
 8006032:	f423 6300 	bic.w	r3, r3, #2048	; 0x800
 8006036:	e7fa      	b.n	800602e <i2c_ackpos_config+0x8>

08006038 <i2c_master_addressing>:
 8006038:	3202      	adds	r2, #2
 800603a:	bf0c      	ite	eq
 800603c:	f021 0101 	biceq.w	r1, r1, #1
 8006040:	f041 0101 	orrne.w	r1, r1, #1
 8006044:	6101      	str	r1, [r0, #16]
 8006046:	4770      	bx	lr

08006048 <i2c_enable>:
 8006048:	6803      	ldr	r3, [r0, #0]
 800604a:	f043 0301 	orr.w	r3, r3, #1
 800604e:	6003      	str	r3, [r0, #0]
 8006050:	4770      	bx	lr

08006052 <i2c_start_on_bus>:
 8006052:	6803      	ldr	r3, [r0, #0]
 8006054:	f443 7380 	orr.w	r3, r3, #256	; 0x100
 8006058:	6003      	str	r3, [r0, #0]
 800605a:	4770      	bx	lr

0800605c <i2c_stop_on_bus>:
 800605c:	6803      	ldr	r3, [r0, #0]
 800605e:	f443 7300 	orr.w	r3, r3, #512	; 0x200
 8006062:	6003      	str	r3, [r0, #0]
 8006064:	4770      	bx	lr

08006066 <i2c_data_transmit>:
 8006066:	6101      	str	r1, [r0, #16]
 8006068:	4770      	bx	lr

0800606a <i2c_data_receive>:
 800606a:	6900      	ldr	r0, [r0, #16]
 800606c:	b2c0      	uxtb	r0, r0
 800606e:	4770      	bx	lr

08006070 <i2c_flag_get>:
 8006070:	098b      	lsrs	r3, r1, #6
 8006072:	f001 011f 	and.w	r1, r1, #31
 8006076:	581a      	ldr	r2, [r3, r0]
 8006078:	2301      	movs	r3, #1
 800607a:	408b      	lsls	r3, r1
 800607c:	4213      	tst	r3, r2
 800607e:	bf14      	ite	ne
 8006080:	2001      	movne	r0, #1
 8006082:	2000      	moveq	r0, #0
 8006084:	4770      	bx	lr

08006086 <i2c_flag_clear>:
 8006086:	f240 5301 	movw	r3, #1281	; 0x501
 800608a:	4299      	cmp	r1, r3
 800608c:	b510      	push	{r4, lr}
 800608e:	d102      	bne.n	8006096 <i2c_flag_clear+0x10>
 8006090:	6943      	ldr	r3, [r0, #20]
 8006092:	6983      	ldr	r3, [r0, #24]
 8006094:	bd10      	pop	{r4, pc}
 8006096:	098c      	lsrs	r4, r1, #6
 8006098:	2201      	movs	r2, #1
 800609a:	5823      	ldr	r3, [r4, r0]
 800609c:	f001 011f 	and.w	r1, r1, #31
 80060a0:	408a      	lsls	r2, r1
 80060a2:	ea23 0302 	bic.w	r3, r3, r2
 80060a6:	5023      	str	r3, [r4, r0]
 80060a8:	e7f4      	b.n	8006094 <i2c_flag_clear+0xe>
	...

080060ac <syscfg_enet_phy_interface_config>:
 80060ac:	4a04      	ldr	r2, [pc, #16]	; (80060c0 <syscfg_enet_phy_interface_config+0x14>)
 80060ae:	f8d2 3804 	ldr.w	r3, [r2, #2052]	; 0x804
 80060b2:	f423 0300 	bic.w	r3, r3, #8388608	; 0x800000
 80060b6:	4318      	orrs	r0, r3
 80060b8:	f8c2 0804 	str.w	r0, [r2, #2052]	; 0x804
 80060bc:	4770      	bx	lr
 80060be:	bf00      	nop
 80060c0:	40013000 	andmi	r3, r1, r0

080060c4 <mac_address_get(unsigned char*)>:
 80060c4:	4a07      	ldr	r2, [pc, #28]	; (80060e4 <mac_address_get(unsigned char*)+0x20>)
 80060c6:	f8d2 3a10 	ldr.w	r3, [r2, #2576]	; 0xa10
 80060ca:	f8d2 2a14 	ldr.w	r2, [r2, #2580]	; 0xa14
 80060ce:	7042      	strb	r2, [r0, #1]
 80060d0:	0e1a      	lsrs	r2, r3, #24
 80060d2:	7082      	strb	r2, [r0, #2]
 80060d4:	0c1a      	lsrs	r2, r3, #16
 80060d6:	2102      	movs	r1, #2
 80060d8:	70c2      	strb	r2, [r0, #3]
 80060da:	0a1a      	lsrs	r2, r3, #8
 80060dc:	7001      	strb	r1, [r0, #0]
 80060de:	7102      	strb	r2, [r0, #4]
 80060e0:	7143      	strb	r3, [r0, #5]
 80060e2:	4770      	bx	lr
 80060e4:	1fff7000 	svcne	0x00ff7000

Disassembly of section .rodata:

080060e8 <SOFTWARE_VERSION-0x59>:
	...
 80060f0:	04030201 	streq	r0, [r3], #-513	; 0xfffffdff
 80060f4:	09080706 	stmdbeq	r8, {r1, r2, r8, r9, sl}
 80060f8:	00000000 	andeq	r0, r0, r0
 80060fc:	04030201 	streq	r0, [r3], #-513	; 0xfffffdff
 8006100:	353a3431 	ldrcc	r3, [sl, #-1073]!	; 0xfffffbcf
 8006104:	39333a33 	ldmdbcc	r3!, {r0, r1, r4, r5, r9, fp, ip, sp}
 8006108:	74634f00 	strbtvc	r4, [r3], #-3840	; 0xfffff100
 800610c:	20303120 	eorscs	r3, r0, r0, lsr #2
 8006110:	32323032 	eorscc	r3, r2, #50	; 0x32
 8006114:	6f6f4200 	svcvs	0x006f4200
 8006118:	616f6c74 	smcvs	63172	; 0xf6c4
 800611c:	20726564 	rsbscs	r6, r2, r4, ror #10
 8006120:	50544654 	subspl	r4, r4, r4, asr r6
 8006124:	72655320 	rsbvc	r5, r5, #32, 6	; 0x80000000
 8006128:	00726576 	rsbseq	r6, r2, r6, ror r5
 800612c:	746f6f42 	strbtvc	r6, [pc], #-3906	; 8006134 <_etext+0x4c>
 8006130:	64616f6c 	strbtvs	r6, [r1], #-3948	; 0xfffff094
 8006134:	54207265 	strtpl	r7, [r0], #-613	; 0xfffffd9b
 8006138:	20505446 	subscs	r5, r0, r6, asr #8
 800613c:	72767253 	rsbsvc	r7, r6, #805306373	; 0x30000005
	...

08006141 <SOFTWARE_VERSION>:
 8006141:	00322e31 	eorseq	r2, r2, r1, lsr lr
 8006145:	65687445 	strbvs	r7, [r8, #-1093]!	; 0xfffffbbb
 8006149:	74656e72 	strbtvc	r6, [r5], #-3698	; 0xfffff18e
 800614d:	61747320 	cmnvs	r4, r0, lsr #6
 8006151:	25007472 	strcs	r7, [r0, #-1138]	; 0xfffffb8e
 8006155:	64252e64 	strtvs	r2, [r5], #-3684	; 0xfffff19c
 8006159:	2e64252e 	cdpcs	5, 6, cr2, cr4, cr14, {1}
 800615d:	252f6425 	strcs	r6, [pc, #-1061]!	; 8005d40 <enet_init+0x27c>
 8006161:	63252064 			; <UNDEFINED> instruction: 0x63252064
 8006165:	68744500 	ldmdavs	r4!, {r8, sl, lr}^
 8006169:	656e7265 	strbvs	r7, [lr, #-613]!	; 0xfffffd9b
 800616d:	68732074 	ldmdavs	r3!, {r2, r4, r5, r6, sp}^
 8006171:	6f647475 	svcvs	0x00647475
 8006175:	44006e77 	strmi	r6, [r0], #-3703	; 0xfffff189
 8006179:	20504348 	subscs	r4, r0, r8, asr #6
 800617d:	656e6572 	strbvs	r6, [lr, #-1394]!	; 0xfffffa8e
 8006181:	676e6977 			; <UNDEFINED> instruction: 0x676e6977
 8006185:	746f4700 	strbtvc	r4, [pc], #-1792	; 800618d <SOFTWARE_VERSION+0x4c>
 8006189:	00504920 	subseq	r4, r0, r0, lsr #18
 800618d:	50434844 	subpl	r4, r3, r4, asr #16
 8006191:	74657220 	strbtvc	r7, [r5], #-544	; 0xfffffde0
 8006195:	6e697972 			; <UNDEFINED> instruction: 0x6e697972
 8006199:	48440067 	stmdami	r4, {r0, r1, r2, r5, r6}^
 800619d:	45205043 	strmi	r5, [r0, #-67]!	; 0xffffffbd
 80061a1:	726f7272 	rsbvc	r7, pc, #536870919	; 0x20000007
 80061a5:	206f4e00 	rsbcs	r4, pc, r0, lsl #28
 80061a9:	70736964 	rsbsvc	r6, r3, r4, ror #18
 80061ad:	2079616c 	rsbscs	r6, r9, ip, ror #2
 80061b1:	6e756f66 	cdpvs	15, 7, cr6, cr5, cr6, {3}
 80061b5:	53530064 	cmppl	r3, #100	; 0x64
 80061b9:	30333144 	eorscc	r3, r3, r4, asr #2
 80061bd:	48530036 	ldmdami	r3, {r1, r2, r4, r5}^
 80061c1:	36303131 			; <UNDEFINED> instruction: 0x36303131
 80061c5:	20732500 	rsbscs	r2, r3, r0, lsl #10
 80061c9:	2c642528 	cfstr64cs	mvdx2, [r4], #-160	; 0xffffff60
 80061cd:	0a296425 	beq	8a5f269 <__exidx_end+0xa58671>
 80061d1:	eeaa4000 	cdp	0, 10, cr4, cr10, cr0, {0}
 80061d5:	 	andmi	lr, r0, sl, lsr #29

080061d8 <_OledFont8x6>:
 80061d8:	00000040 	andeq	r0, r0, r0, asr #32
 80061dc:	40000000 	andmi	r0, r0, r0
 80061e0:	005f0000 	subseq	r0, pc, r0
 80061e4:	00400000 	subeq	r0, r0, r0
 80061e8:	00070007 	andeq	r0, r7, r7
 80061ec:	7f144000 	svcvc	0x00144000
 80061f0:	00147f14 	andseq	r7, r4, r4, lsl pc
 80061f4:	7f2a2440 	svcvc	0x002a2440
 80061f8:	4000122a 	andmi	r1, r0, sl, lsr #4
 80061fc:	64081323 	strvs	r1, [r8], #-803	; 0xfffffcdd
 8006200:	36400062 	strbcc	r0, [r0], -r2, rrx
 8006204:	50205649 	eorpl	r5, r0, r9, asr #12
 8006208:	08004000 	stmdaeq	r0, {lr}
 800620c:	00000307 	andeq	r0, r0, r7, lsl #6
 8006210:	221c0040 	andscs	r0, ip, #64	; 0x40
 8006214:	40000041 	andmi	r0, r0, r1, asr #32
 8006218:	1c224100 	stfnes	f4, [r2], #-0
 800621c:	2a400000 	bcs	9006224 <__exidx_end+0xfff62c>
 8006220:	2a1c7f1c 	bcs	8725e98 <__exidx_end+0x71f2a0>
 8006224:	08084000 	stmdaeq	r8, {lr}
 8006228:	0008083e 	andeq	r0, r8, lr, lsr r8
 800622c:	70800040 	addvc	r0, r0, r0, asr #32
 8006230:	40000030 	andmi	r0, r0, r0, lsr r0
 8006234:	08080808 	stmdaeq	r8, {r3, fp}
 8006238:	00400008 	subeq	r0, r0, r8
 800623c:	00606000 	rsbeq	r6, r0, r0
 8006240:	10204000 	eorne	r4, r0, r0
 8006244:	00020408 	andeq	r0, r2, r8, lsl #8
 8006248:	49513e40 	ldmdbmi	r1, {r6, r9, sl, fp, ip, sp}^
 800624c:	40003e45 	andmi	r3, r0, r5, asr #28
 8006250:	407f4200 	rsbsmi	r4, pc, r0, lsl #4
 8006254:	72400000 	subvc	r0, r0, #0
 8006258:	46494949 	strbmi	r4, [r9], -r9, asr #18
 800625c:	41214000 			; <UNDEFINED> instruction: 0x41214000
 8006260:	00334d49 	eorseq	r4, r3, r9, asr #26
 8006264:	12141840 	andsne	r1, r4, #64, 16	; 0x400000
 8006268:	4000107f 	andmi	r1, r0, pc, ror r0
 800626c:	45454527 	strbmi	r4, [r5, #-1319]	; 0xfffffad9
 8006270:	3c400039 	mcrrcc	0, 3, r0, r0, cr9
 8006274:	3149494a 	cmpcc	r9, sl, asr #18
 8006278:	21414000 	mrscs	r4, (UNDEF: 65)
 800627c:	00070911 	andeq	r0, r7, r1, lsl r9
 8006280:	49493640 	stmdbmi	r9, {r6, r9, sl, ip, sp}^
 8006284:	40003649 	andmi	r3, r0, r9, asr #12
 8006288:	29494946 	stmdbcs	r9, {r1, r2, r6, r8, fp, lr}^
 800628c:	0040001e 	subeq	r0, r0, lr, lsl r0
 8006290:	00001400 	andeq	r1, r0, r0, lsl #8
 8006294:	40004000 	andmi	r4, r0, r0
 8006298:	00000034 	andeq	r0, r0, r4, lsr r0
 800629c:	14080040 	strne	r0, [r8], #-64	; 0xffffffc0
 80062a0:	40004122 	andmi	r4, r0, r2, lsr #2
 80062a4:	14141414 	ldrne	r1, [r4], #-1044	; 0xfffffbec
 80062a8:	00400014 	subeq	r0, r0, r4, lsl r0
 80062ac:	08142241 	ldmdaeq	r4, {r0, r6, r9, sp}
 80062b0:	01024000 	mrseq	r4, (UNDEF: 2)
 80062b4:	00060959 	andeq	r0, r6, r9, asr r9
 80062b8:	5d413e40 	stclpl	14, cr3, [r1, #-256]	; 0xffffff00
 80062bc:	40004e59 	andmi	r4, r0, r9, asr lr
 80062c0:	1211127c 	andsne	r1, r1, #124, 4	; 0xc0000007
 80062c4:	7f40007c 	svcvc	0x0040007c
 80062c8:	36494949 	strbcc	r4, [r9], -r9, asr #18
 80062cc:	413e4000 	teqmi	lr, r0
 80062d0:	00224141 	eoreq	r4, r2, r1, asr #2
 80062d4:	41417f40 	cmpmi	r1, r0, asr #30
 80062d8:	40003e41 	andmi	r3, r0, r1, asr #28
 80062dc:	4949497f 	stmdbmi	r9, {r0, r1, r2, r3, r4, r5, r6, r8, fp, lr}^
 80062e0:	7f400041 	svcvc	0x00400041
 80062e4:	01090909 	tsteq	r9, r9, lsl #18
 80062e8:	413e4000 	teqmi	lr, r0
 80062ec:	00735141 	rsbseq	r5, r3, r1, asr #2
 80062f0:	08087f40 	stmdaeq	r8, {r6, r8, r9, sl, fp, ip, sp, lr}
 80062f4:	40007f08 	andmi	r7, r0, r8, lsl #30
 80062f8:	417f4100 	cmnmi	pc, r0, lsl #2
 80062fc:	20400000 	subcs	r0, r0, r0
 8006300:	013f4140 	teqeq	pc, r0, asr #2
 8006304:	087f4000 	ldmdaeq	pc!, {lr}^	; <UNPREDICTABLE>
 8006308:	00412214 	subeq	r2, r1, r4, lsl r2
 800630c:	40407f40 	submi	r7, r0, r0, asr #30
 8006310:	40004040 	andmi	r4, r0, r0, asr #32
 8006314:	021c027f 	andseq	r0, ip, #-268435449	; 0xf0000007
 8006318:	7f40007f 	svcvc	0x0040007f
 800631c:	7f100804 	svcvc	0x00100804
 8006320:	413e4000 	teqmi	lr, r0
 8006324:	003e4141 	eorseq	r4, lr, r1, asr #2
 8006328:	09097f40 	stmdbeq	r9, {r6, r8, r9, sl, fp, ip, sp, lr}
 800632c:	40000609 	andmi	r0, r0, r9, lsl #12
 8006330:	2151413e 	cmpcs	r1, lr, lsr r1
 8006334:	7f40005e 	svcvc	0x0040005e
 8006338:	46291909 	strtmi	r1, [r9], -r9, lsl #18
 800633c:	49264000 	stmdbmi	r6!, {lr}
 8006340:	00324949 	eorseq	r4, r2, r9, asr #18
 8006344:	7f010340 	svcvc	0x00010340
 8006348:	40000301 	andmi	r0, r0, r1, lsl #6
 800634c:	4040403f 	submi	r4, r0, pc, lsr r0
 8006350:	1f40003f 	svcne	0x0040003f
 8006354:	1f204020 	svcne	0x00204020
 8006358:	403f4000 	eorsmi	r4, pc, r0
 800635c:	003f4038 	eorseq	r4, pc, r8, lsr r0	; <UNPREDICTABLE>
 8006360:	08146340 	ldmdaeq	r4, {r6, r8, r9, sp, lr}
 8006364:	40006314 	andmi	r6, r0, r4, lsl r3
 8006368:	04780403 	ldrbteq	r0, [r8], #-1027	; 0xfffffbfd
 800636c:	61400003 	cmpvs	r0, r3
 8006370:	434d4959 	movtmi	r4, #55641	; 0xd959
 8006374:	7f004000 	svcvc	0x00004000
 8006378:	00414141 	subeq	r4, r1, r1, asr #2
 800637c:	08040240 	stmdaeq	r4, {r6, r9}
 8006380:	40002010 	andmi	r2, r0, r0, lsl r0
 8006384:	41414100 	mrsmi	r4, (UNDEF: 81)
 8006388:	0440007f 	strbeq	r0, [r0], #-127	; 0xffffff81
 800638c:	04020102 	streq	r0, [r2], #-258	; 0xfffffefe
 8006390:	40404000 	submi	r4, r0, r0
 8006394:	00404040 	subeq	r4, r0, r0, asr #32
 8006398:	07030040 	streq	r0, [r3, -r0, asr #32]
 800639c:	40000008 	andmi	r0, r0, r8
 80063a0:	78545420 	ldmdavc	r4, {r5, sl, ip, lr}^
 80063a4:	7f400040 	svcvc	0x00400040
 80063a8:	38444428 	stmdacc	r4, {r3, r5, sl, lr}^
 80063ac:	44384000 	ldrtmi	r4, [r8], #-0
 80063b0:	00284444 	eoreq	r4, r8, r4, asr #8
 80063b4:	44443840 	strbmi	r3, [r4], #-2112	; 0xfffff7c0
 80063b8:	40007f28 	andmi	r7, r0, r8, lsr #30
 80063bc:	54545438 	ldrbpl	r5, [r4], #-1080	; 0xfffffbc8
 80063c0:	00400018 	subeq	r0, r0, r8, lsl r0
 80063c4:	02097e08 	andeq	r7, r9, #8, 28	; 0x80
 80063c8:	a4184000 	ldrge	r4, [r8], #-0
 80063cc:	00789ca4 	rsbseq	r9, r8, r4, lsr #25
 80063d0:	04087f40 	streq	r7, [r8], #-3904	; 0xfffff0c0
 80063d4:	40007804 	andmi	r7, r0, r4, lsl #16
 80063d8:	407d4400 	rsbsmi	r4, sp, r0, lsl #8
 80063dc:	20400000 	subcs	r0, r0, r0
 80063e0:	003d4040 	eorseq	r4, sp, r0, asr #32
 80063e4:	107f4000 	rsbsne	r4, pc, r0
 80063e8:	00004428 	andeq	r4, r0, r8, lsr #8
 80063ec:	7f410040 	svcvc	0x00410040
 80063f0:	40000040 	andmi	r0, r0, r0, asr #32
 80063f4:	0478047c 	ldrbteq	r0, [r8], #-1148	; 0xfffffb84
 80063f8:	7c400078 	mcrrvc	0, 7, r0, r0, cr8
 80063fc:	78040408 	stmdavc	r4, {r3, sl}
 8006400:	44384000 	ldrtmi	r4, [r8], #-0
 8006404:	00384444 	eorseq	r4, r8, r4, asr #8
 8006408:	2418fc40 	ldrcs	pc, [r8], #-3136	; 0xfffff3c0
 800640c:	40001824 	andmi	r1, r0, r4, lsr #16
 8006410:	18242418 	stmdane	r4!, {r3, r4, sl, sp}
 8006414:	7c4000fc 	mcrrvc	0, 15, r0, r0, cr12
 8006418:	08040408 	stmdaeq	r4, {r3, sl}
 800641c:	54484000 	strbpl	r4, [r8], #-0
 8006420:	00245454 	eoreq	r5, r4, r4, asr r4
 8006424:	3f040440 	svccc	0x00040440
 8006428:	40002444 	andmi	r2, r0, r4, asr #8
 800642c:	2040403c 	subcs	r4, r0, ip, lsr r0
 8006430:	1c40007c 	mcrrne	0, 7, r0, r0, cr12
 8006434:	1c204020 	stcne	0, cr4, [r0], #-128	; 0xffffff80
 8006438:	403c4000 	eorsmi	r4, ip, r0
 800643c:	003c4030 	eorseq	r4, ip, r0, lsr r0
 8006440:	10284440 	eorne	r4, r8, r0, asr #8
 8006444:	40004428 	andmi	r4, r0, r8, lsr #8
 8006448:	9090904c 	addsls	r9, r0, ip, asr #32
 800644c:	4440007c 	strbmi	r0, [r0], #-124	; 0xffffff84
 8006450:	444c5464 	strbmi	r5, [ip], #-1124	; 0xfffffb9c
 8006454:	08004000 	stmdaeq	r0, {lr}
 8006458:	00004136 	andeq	r4, r0, r6, lsr r1
 800645c:	77000040 	strvc	r0, [r0, -r0, asr #32]
 8006460:	40000000 	andmi	r0, r0, r0
 8006464:	08364100 	ldmdaeq	r6!, {r8, lr}
 8006468:	02400000 	subeq	r0, r0, #0
 800646c:	02040201 	andeq	r0, r4, #268435456	; 0x10000000
 8006470:	263c4000 	ldrtcs	r4, [ip], -r0
 8006474:	003c2623 	eorseq	r2, ip, r3, lsr #12

08006478 <oled_128x32_init>:
 8006478:	a880d5ae 	stmge	r0, {r1, r2, r3, r5, r7, r8, sl, ip, lr, pc}
 800647c:	4000d31f 	andmi	sp, r0, pc, lsl r3
 8006480:	0020148d 	eoreq	r1, r0, sp, lsl #9
 8006484:	02dac8a1 	sbcseq	ip, sl, #10551296	; 0xa10000
 8006488:	f1d97f81 			; <UNDEFINED> instruction: 0xf1d97f81
 800648c:	a6a440db 	ssatge	r4, #5, fp, asr #1

08006490 <oled_128x64_init>:
 8006490:	a880d5ae 	stmge	r0, {r1, r2, r3, r5, r7, r8, sl, ip, lr, pc}
 8006494:	4000d33f 	andmi	sp, r0, pc, lsr r3
 8006498:	0020148d 	eoreq	r1, r0, sp, lsl #9
 800649c:	12dac8a1 	sbcsne	ip, sl, #10551296	; 0xa10000
 80064a0:	f1d97f81 			; <UNDEFINED> instruction: 0xf1d97f81
 80064a4:	a6a440db 	ssatge	r4, #5, fp, asr #1

080064a8 <vtable for Ssd1306>:
	...
 80064b0:	08001425 	stmdaeq	r0, {r0, r2, r5, sl, ip}
 80064b4:	08001451 	stmdaeq	r0, {r0, r4, r6, sl, ip}
 80064b8:	08001769 	stmdaeq	r0, {r0, r3, r5, r6, r8, r9, sl, ip}
 80064bc:	080016f1 	stmdaeq	r0, {r0, r4, r5, r6, r7, r9, sl, ip}
 80064c0:	080015b9 	stmdaeq	r0, {r0, r3, r4, r5, r7, r8, sl, ip}
 80064c4:	08001471 	stmdaeq	r0, {r0, r4, r5, r6, sl, ip}
 80064c8:	0800149d 	stmdaeq	r0, {r0, r2, r3, r4, r7, sl, ip}
 80064cc:	08001591 	stmdaeq	r0, {r0, r4, r7, r8, sl, ip}
 80064d0:	08001549 	stmdaeq	r0, {r0, r3, r6, r8, sl, ip}
 80064d4:	08001427 	stmdaeq	r0, {r0, r1, r2, r5, sl, ip}
 80064d8:	080015f9 	stmdaeq	r0, {r0, r3, r4, r5, r6, r7, r8, sl, ip}
 80064dc:	08001605 	stmdaeq	r0, {r0, r2, r9, sl, ip}
 80064e0:	0800161f 	stmdaeq	r0, {r0, r1, r2, r3, r4, r9, sl, ip}
 80064e4:	08001429 	stmdaeq	r0, {r0, r3, r5, sl, ip}
 80064e8:	65746544 	ldrbvs	r6, [r4, #-1348]!	; 0xfffffabc
 80064ec:	64657463 	strbtvs	r7, [r5], #-1123	; 0xfffffb9d
 80064f0:	20732520 	rsbscs	r2, r3, r0, lsr #10
 80064f4:	68746977 	ldmdavs	r4!, {r0, r1, r2, r4, r5, r6, r8, fp, sp, lr}^
 80064f8:	63657320 	cmnvs	r5, #32, 6	; 0x80000000
 80064fc:	20726f74 	rsbscs	r6, r2, r4, ror pc
 8006500:	657a6973 	ldrbvs	r6, [sl, #-2419]!	; 0xfffff68d
 8006504:	20642520 	rsbcs	r2, r4, r0, lsr #10
 8006508:	61746f74 	cmnvs	r4, r4, ror pc
 800650c:	6425206c 	strtvs	r2, [r5], #-108	; 0xffffff94
 8006510:	74796220 	ldrbtvc	r6, [r9], #-544	; 0xfffffde0
 8006514:	000a7365 	andeq	r7, sl, r5, ror #6
 8006518:	20212a21 	eorcs	r2, r1, r1, lsr #20
 800651c:	536e5f6d 	cmnpl	lr, #436	; 0x1b4
 8006520:	74726174 	ldrbtvc	r6, [r2], #-372	; 0xfffffe8c
 8006524:	72646441 	rsbvc	r6, r4, #1090519040	; 0x41000000
 8006528:	20737365 	rsbscs	r7, r3, r5, ror #6
 800652c:	30203d3d 	eorcc	r3, r0, sp, lsr sp
 8006530:	212a2120 			; <UNDEFINED> instruction: 0x212a2120
 8006534:	0000000a 	andeq	r0, r0, sl

08006538 <s_aStorSize>:
 8006538:	00000060 	andeq	r0, r0, r0, rrx
 800653c:	00000090 	muleq	r0, r0, r0
 8006540:	00000020 	andeq	r0, r0, r0, lsr #32
 8006544:	00000040 	andeq	r0, r0, r0, asr #32
 8006548:	00000060 	andeq	r0, r0, r0, rrx
 800654c:	00000040 	andeq	r0, r0, r0, asr #32
 8006550:	00000020 	andeq	r0, r0, r0, lsr #32
 8006554:	00000020 	andeq	r0, r0, r0, lsr #32
 8006558:	000001e0 	andeq	r0, r0, r0, ror #3
 800655c:	00000040 	andeq	r0, r0, r0, asr #32
 8006560:	00000020 	andeq	r0, r0, r0, lsr #32
 8006564:	00000060 	andeq	r0, r0, r0, rrx
 8006568:	00000030 	andeq	r0, r0, r0, lsr r0
 800656c:	00000020 	andeq	r0, r0, r0, lsr #32
 8006570:	000003b0 			; <UNDEFINED> instruction: 0x000003b0
 8006574:	00000030 	andeq	r0, r0, r0, lsr r0
 8006578:	00000040 	andeq	r0, r0, r0, asr #32
 800657c:	00000020 	andeq	r0, r0, r0, lsr #32
 8006580:	00000060 	andeq	r0, r0, r0, rrx
 8006584:	00000020 	andeq	r0, r0, r0, lsr #32
 8006588:	00000400 	andeq	r0, r0, r0, lsl #8
 800658c:	00000020 	andeq	r0, r0, r0, lsr #32
 8006590:	00000020 	andeq	r0, r0, r0, lsr #32
 8006594:	00000040 	andeq	r0, r0, r0, asr #32
 8006598:	00000060 	andeq	r0, r0, r0, rrx
 800659c:	00000020 	andeq	r0, r0, r0, lsr #32
 80065a0:	00000020 	andeq	r0, r0, r0, lsr #32
 80065a4:	00000020 	andeq	r0, r0, r0, lsr #32

080065a8 <vtable for StoreNetwork>:
	...
 80065b0:	08001b1d 	stmdaeq	r0, {r0, r2, r3, r4, r8, r9, fp, ip}
 80065b4:	08001c35 	stmdaeq	r0, {r0, r2, r4, r5, sl, fp, ip}
 80065b8:	08001b25 	stmdaeq	r0, {r0, r2, r5, r8, r9, fp, ip}
 80065bc:	08001c49 	stmdaeq	r0, {r0, r3, r6, sl, fp, ip}
 80065c0:	08001bd5 	stmdaeq	r0, {r0, r2, r4, r6, r7, r8, r9, fp, ip}
 80065c4:	08001ba9 	stmdaeq	r0, {r0, r3, r5, r7, r8, r9, fp, ip}
 80065c8:	08001b79 	stmdaeq	r0, {r0, r3, r4, r5, r6, r8, r9, fp, ip}
 80065cc:	08001c01 	stmdaeq	r0, {r0, sl, fp, ip}
 80065d0:	08001b49 	stmdaeq	r0, {r0, r3, r6, r8, r9, fp, ip}
 80065d4:	fffffffc 			; <UNDEFINED> instruction: 0xfffffffc
 80065d8:	00000000 	andeq	r0, r0, r0
 80065dc:	08001b1f 	stmdaeq	r0, {r0, r1, r2, r3, r4, r8, r9, fp, ip}
 80065e0:	08001c41 	stmdaeq	r0, {r0, r6, sl, fp, ip}
 80065e4:	08001bf9 	stmdaeq	r0, {r0, r3, r4, r5, r6, r7, r8, r9, fp, ip}
 80065e8:	08001bcd 	stmdaeq	r0, {r0, r2, r3, r6, r7, r8, r9, fp, ip}
 80065ec:	08001ba1 	stmdaeq	r0, {r0, r5, r7, r8, r9, fp, ip}
 80065f0:	08001c2d 	stmdaeq	r0, {r0, r2, r3, r5, sl, fp, ip}
 80065f4:	08001b71 	stmdaeq	r0, {r0, r4, r5, r6, r8, r9, fp, ip}

080065f8 <vtable for StoreRemoteConfig>:
	...
 8006600:	08001c7d 	stmdaeq	r0, {r0, r2, r3, r4, r5, r6, sl, fp, ip}
 8006604:	08001cc5 	stmdaeq	r0, {r0, r2, r6, r7, sl, fp, ip}
 8006608:	08001ca1 	stmdaeq	r0, {r0, r5, r7, sl, fp, ip}
 800660c:	08001c81 	stmdaeq	r0, {r0, r7, sl, fp, ip}
 8006610:	252e6425 	strcs	r6, [lr, #-1061]!	; 0xfffffbdb
 8006614:	64252e64 	strtvs	r2, [r5], #-3684	; 0xfffff19c
 8006618:	2c64252e 	cfstr64cs	mvdx2, [r4], #-184	; 0xffffff48
 800661c:	252c7325 	strcs	r7, [ip, #-805]!	; 0xfffffcdb
 8006620:	64252c73 	strtvs	r2, [r5], #-3187	; 0xfffff38d
 8006624:	0a73252c 	beq	9ccfadc <__exidx_end+0x1cc8ee4>
 8006628:	2e642500 	cdpcs	5, 6, cr2, cr4, cr0, {0}
 800662c:	252e6425 	strcs	r6, [lr, #-1061]!	; 0xfffffbdb
 8006630:	64252e64 	strtvs	r2, [r5], #-3684	; 0xfffff19c
 8006634:	2c73252c 	cfldr64cs	mvdx2, [r3], #-176	; 0xffffff50
 8006638:	252c7325 	strcs	r7, [ip, #-805]!	; 0xfffffcdb
 800663c:	74000a64 	strvc	r0, [r0], #-2660	; 0xfffff59c
 8006640:	3a707466 	bcc	9c237e0 <__exidx_end+0x1c1cbe8>
 8006644:	000a7325 	andeq	r7, sl, r5, lsr #6
 8006648:	73726576 	cmnvc	r2, #494927872	; 0x1d800000
 800664c:	3a6e6f69 	bcc	9ba23f8 <__exidx_end+0x1b9b800>
 8006650:	75007325 	strvc	r7, [r0, #-805]	; 0xfffffcdb
 8006654:	6d697470 	cfstrdvs	mvd7, [r9, #-448]!	; 0xfffffe40
 8006658:	25203a65 	strcs	r3, [r0, #-2661]!	; 0xfffff59b
 800665c:	000a7375 	andeq	r7, sl, r5, ror r3
 8006660:	61657243 	cmnvs	r5, r3, asr #4
 8006664:	54206574 	strtpl	r6, [r0], #-1396	; 0xfffffa8c
 8006668:	20505446 	subscs	r5, r0, r6, asr #8
 800666c:	76726553 			; <UNDEFINED> instruction: 0x76726553
 8006670:	54007265 	strpl	r7, [r0], #-613	; 0xfffffd9b
 8006674:	20505446 	subscs	r5, r0, r6, asr #8
 8006678:	45006e4f 	strmi	r6, [r0, #-3663]	; 0xfffff1b1
 800667c:	726f7272 	rsbvc	r7, pc, #536870919	; 0x20000007
 8006680:	4654203a 			; <UNDEFINED> instruction: 0x4654203a
 8006684:	44005054 	strmi	r5, [r0], #-84	; 0xffffffac
 8006688:	74656c65 	strbtvc	r6, [r5], #-3173	; 0xfffff39b
 800668c:	46542065 	ldrbmi	r2, [r4], -r5, rrx
 8006690:	53205054 			; <UNDEFINED> instruction: 0x53205054
 8006694:	65767265 	ldrbvs	r7, [r6, #-613]!	; 0xfffffd9b
 8006698:	46540072 			; <UNDEFINED> instruction: 0x46540072
 800669c:	4f205054 	svcmi	0x00205054
 80066a0:	74006666 	strvc	r6, [r0], #-1638	; 0xfffff99a
 80066a4:	23707466 	cmncs	r0, #1711276032	; 0x66000000
 80066a8:	52524500 	subspl	r4, r2, #0, 10
 80066ac:	3f23524f 	svccc	0x0023524f
 80066b0:	5245000a 	subpl	r0, r5, #10
 80066b4:	23524f52 	cmpcs	r2, #328	; 0x148
 80066b8:	72000a21 	andvc	r0, r0, #135168	; 0x21000
 80066bc:	6f6f6265 	svcvs	0x006f6265
 80066c0:	00232374 	eoreq	r2, r3, r4, ror r3
 80066c4:	7473696c 	ldrbtvc	r6, [r3], #-2412	; 0xfffff694
 80066c8:	696c0023 	stmdbvs	ip!, {r0, r1, r5}^
 80066cc:	2a237473 	bcs	88e38a0 <__exidx_end+0x8dcca8>
 80066d0:	74707500 	ldrbtvc	r7, [r0], #-1280	; 0xfffffb00
 80066d4:	23656d69 	cmncs	r5, #6720	; 0x1a40
 80066d8:	72657600 	rsbvc	r7, r5, #0, 12
 80066dc:	6e6f6973 			; <UNDEFINED> instruction: 0x6e6f6973
 80066e0:	61660023 	cmnvs	r6, r3, lsr #32
 80066e4:	726f7463 	rsbvc	r7, pc, #1660944384	; 0x63000000
 80066e8:	00232379 	eoreq	r2, r3, r9, ror r3

080066ec <s_Node>:
 80066ec:	2d747241 	lfmcs	f7, 2, [r4, #-260]!	; 0xfffffefc
 80066f0:	0074654e 	rsbseq	r6, r4, lr, asr #10
	...
 80066fc:	41730000 	cmnmi	r3, r0
 8006700:	45204e43 	strmi	r4, [r0, #-3651]!	; 0xfffff1bd
 8006704:	31332e31 	teqcc	r3, r1, lsr lr
	...
 8006710:	2043534f 	subcs	r5, r3, pc, asr #6
 8006714:	76726553 			; <UNDEFINED> instruction: 0x76726553
 8006718:	00007265 	andeq	r7, r0, r5, ror #4
 800671c:	00000000 	andeq	r0, r0, r0
 8006720:	544c0000 	strbpl	r0, [ip], #-0
 8006724:	00000043 	andeq	r0, r0, r3, asr #32
	...
 8006734:	2043534f 	subcs	r5, r3, pc, asr #6
 8006738:	65696c43 	strbvs	r6, [r9, #-3139]!	; 0xfffff3bd
 800673c:	0000746e 	andeq	r7, r0, lr, ror #8
 8006740:	00000000 	andeq	r0, r0, r0
 8006744:	44520000 	ldrbmi	r0, [r2], #-0
 8006748:	74654e4d 	strbtvc	r4, [r5], #-3661	; 0xfffff1b3
 800674c:	524c4c20 	subpl	r4, ip, #32, 24	; 0x2000
 8006750:	6e4f2050 	mcrvs	0, 2, r2, cr15, cr0, {2}
 8006754:	0000796c 	andeq	r7, r0, ip, ror #18
 8006758:	776f6853 			; <UNDEFINED> instruction: 0x776f6853
 800675c:	656c6966 	strbvs	r6, [ip, #-2406]!	; 0xfffff69a
	...
 8006768:	494d0000 	stmdbmi	sp, {}^	; <UNPREDICTABLE>
 800676c:	00004944 	andeq	r4, r0, r4, asr #18
	...
 800677c:	00504444 	subseq	r4, r0, r4, asr #8
	...
 800678c:	6f420000 	svcvs	0x00420000
 8006790:	6f6c746f 	svcvs	0x006c746f
 8006794:	72656461 	rsbvc	r6, r5, #1627389952	; 0x61000000
 8006798:	54465420 	strbpl	r5, [r6], #-1056	; 0xfffffbe0
 800679c:	00000050 	andeq	r0, r0, r0, asr r0

080067a0 <s_Output>:
 80067a0:	00584d44 	subseq	r4, r8, r4, asr #26
	...
 80067ac:	004d4452 	subeq	r4, sp, r2, asr r4
	...
 80067b8:	696e6f4d 	stmdbvs	lr!, {r0, r2, r3, r6, r8, r9, sl, fp, sp, lr}^
 80067bc:	00726f74 	rsbseq	r6, r2, r4, ror pc
 80067c0:	00000000 	andeq	r0, r0, r0
 80067c4:	65786950 	ldrbvs	r6, [r8, #-2384]!	; 0xfffff6b0
 80067c8:	0000006c 	andeq	r0, r0, ip, rrx
 80067cc:	00000000 	andeq	r0, r0, r0
 80067d0:	656d6954 	strbvs	r6, [sp, #-2388]!	; 0xfffff6ac
 80067d4:	65646f43 	strbvs	r6, [r4, #-3907]!	; 0xfffff0bd
 80067d8:	00000000 	andeq	r0, r0, r0
 80067dc:	0043534f 	subeq	r5, r3, pc, asr #6
	...
 80067e8:	666e6f43 	strbtvs	r6, [lr], -r3, asr #30
 80067ec:	00006769 	andeq	r6, r0, r9, ror #14
 80067f0:	00000000 	andeq	r0, r0, r0
 80067f4:	70657453 	rsbvc	r7, r5, r3, asr r4
 80067f8:	00726570 	rsbseq	r6, r2, r0, ror r5
 80067fc:	00000000 	andeq	r0, r0, r0
 8006800:	79616c50 	stmdbvc	r1!, {r4, r6, sl, fp, sp, lr}^
 8006804:	00007265 	andeq	r7, r0, r5, ror #4
 8006808:	00000000 	andeq	r0, r0, r0
 800680c:	2d747241 	lfmcs	f7, 2, [r4, #-260]!	; 0xfffffefc
 8006810:	0074654e 	rsbseq	r6, r4, lr, asr #10
 8006814:	00000000 	andeq	r0, r0, r0
 8006818:	69726553 	ldmdbvs	r2!, {r0, r1, r4, r6, r8, sl, sp, lr}^
 800681c:	00006c61 	andeq	r6, r0, r1, ror #24
 8006820:	00000000 	andeq	r0, r0, r0
 8006824:	20424752 	subcs	r4, r2, r2, asr r7
 8006828:	656e6150 	strbvs	r6, [lr, #-336]!	; 0xfffffeb0
 800682c:	0000006c 	andeq	r0, r0, ip, rrx

08006830 <RemoteConfig::s_GET>:
 8006830:	08002305 	stmdaeq	r0, {r0, r2, r8, r9, sp}
 8006834:	00000000 	andeq	r0, r0, r0
 8006838:	080066bb 	stmdaeq	r0, {r0, r1, r3, r4, r5, r7, r9, sl, sp, lr}
 800683c:	00000008 	andeq	r0, r0, r8
 8006840:	08001ce5 	stmdaeq	r0, {r0, r2, r5, r6, r7, sl, fp, ip}
 8006844:	00000000 	andeq	r0, r0, r0
 8006848:	080066c4 	stmdaeq	r0, {r2, r6, r7, r9, sl, sp, lr}
 800684c:	00000005 	andeq	r0, r0, r5
 8006850:	08001ce5 	stmdaeq	r0, {r0, r2, r5, r6, r7, sl, fp, ip}
 8006854:	00000000 	andeq	r0, r0, r0
 8006858:	080066ca 	stmdaeq	r0, {r1, r3, r6, r7, r9, sl, sp, lr}
 800685c:	00000006 	andeq	r0, r0, r6
 8006860:	08001e45 	stmdaeq	r0, {r0, r2, r6, r9, sl, fp, ip}
 8006864:	00000000 	andeq	r0, r0, r0
 8006868:	080066d1 	stmdaeq	r0, {r0, r4, r6, r7, r9, sl, sp, lr}
 800686c:	00000007 	andeq	r0, r0, r7
 8006870:	08001e05 	stmdaeq	r0, {r0, r2, r9, sl, fp, ip}
 8006874:	00000000 	andeq	r0, r0, r0
 8006878:	080066d9 	stmdaeq	r0, {r0, r3, r4, r6, r7, r9, sl, sp, lr}
 800687c:	00000008 	andeq	r0, r0, r8
 8006880:	08001db5 	stmdaeq	r0, {r0, r2, r4, r5, r7, r8, sl, fp, ip}
 8006884:	00000000 	andeq	r0, r0, r0
 8006888:	080066a3 	stmdaeq	r0, {r0, r1, r5, r7, r9, sl, sp, lr}
 800688c:	00000005 	andeq	r0, r0, r5
 8006890:	0800227d 	stmdaeq	r0, {r0, r2, r3, r4, r5, r6, r9, sp}
 8006894:	00000000 	andeq	r0, r0, r0
 8006898:	080066e2 	stmdaeq	r0, {r1, r5, r6, r7, r9, sl, sp, lr}
 800689c:	00000009 	andeq	r0, r0, r9
 80068a0:	6f626552 	svcvs	0x00626552
 80068a4:	6e69746f 	cdpvs	4, 6, cr7, cr9, cr15, {3}
 80068a8:	2e2e2067 	cdpcs	0, 2, cr2, cr14, cr7, {3}
 80068ac:	52000a2e 	andpl	r0, r0, #188416	; 0x2e000
 80068b0:	6f6f6265 	svcvs	0x006f6265
 80068b4:	676e6974 			; <UNDEFINED> instruction: 0x676e6974
 80068b8:	2e2e2e20 	cdpcs	14, 2, cr2, cr14, cr0, {1}
 80068bc:	54465400 	strbpl	r5, [r6], #-1024	; 0xfffffc00
 80068c0:	6e652050 	mcrvs	0, 3, r2, cr5, cr0, {2}
 80068c4:	0a646564 	beq	991fe5c <__exidx_end+0x1919264>
 80068c8:	54465400 	strbpl	r5, [r6], #-1024	; 0xfffffc00
 80068cc:	6e452050 	mcrvs	0, 2, r2, cr5, cr0, {2}
 80068d0:	00646564 	rsbeq	r6, r4, r4, ror #10
 80068d4:	50544654 	subspl	r4, r4, r4, asr r6
 80068d8:	61747320 	cmnvs	r4, r0, lsr #6
 80068dc:	64657472 	strbtvs	r7, [r5], #-1138	; 0xfffffb8e
 80068e0:	4654000a 	ldrbmi	r0, [r4], -sl
 80068e4:	53205054 			; <UNDEFINED> instruction: 0x53205054
 80068e8:	74726174 	ldrbtvc	r6, [r2], #-372	; 0xfffffe8c
 80068ec:	 	strvs	r6, [r0, -r5, ror #8]

080068ef <tftpfileserver::FILE_NAME>:
 80068ef:	32336467 	eorscc	r6, r3, #1728053248	; 0x67000000
 80068f3:	78783466 	ldmdavc	r8!, {r1, r2, r5, r6, sl, ip, sp}^
 80068f7:	6e69622e 	cdpvs	2, 6, cr6, cr9, cr14, {1}
	...

080068fc <vtable for TFTPFileServer>:
	...
 8006904:	080023c1 	stmdaeq	r0, {r0, r6, r7, r8, r9, sp}
 8006908:	080023d5 	stmdaeq	r0, {r0, r2, r4, r6, r7, r8, r9, sp}
 800690c:	080023ad 	stmdaeq	r0, {r0, r2, r3, r5, r7, r8, r9, sp}
 8006910:	08002479 	stmdaeq	r0, {r0, r3, r4, r5, r6, sl, sp}
 8006914:	08002441 	stmdaeq	r0, {r0, r6, sl, sp}
 8006918:	080023b1 	stmdaeq	r0, {r0, r4, r5, r7, r8, r9, sp}
 800691c:	080023e7 	stmdaeq	r0, {r0, r1, r2, r5, r6, r7, r8, r9, sp}
 8006920:	080023b5 	stmdaeq	r0, {r0, r2, r4, r5, r7, r8, r9, sp}
 8006924:	202c7325 	eorcs	r7, ip, r5, lsr #6
 8006928:	74636573 	strbtvc	r6, [r3], #-1395	; 0xfffffa8d
 800692c:	7320726f 			; <UNDEFINED> instruction: 0x7320726f
 8006930:	20657a69 	rsbcs	r7, r5, r9, ror #20
 8006934:	202c6425 	eorcs	r6, ip, r5, lsr #8
 8006938:	62206425 	eorvs	r6, r0, #620756992	; 0x25000000
 800693c:	73657479 	cmnvc	r5, #2030043136	; 0x79000000
 8006940:	64255b20 	strtvs	r5, [r5], #-2848	; 0xfffff4e0
 8006944:	5d426b20 	vstrpl	d22, [r2, #-128]	; 0xffffff80
 8006948:	7265000a 	rsbvc	r0, r5, #10
 800694c:	3a726f72 	bcc	9ca271c <__exidx_end+0x1c9bb24>
 8006950:	616c6620 	cmnvs	ip, r0, lsr #12
 8006954:	73206873 			; <UNDEFINED> instruction: 0x73206873
 8006958:	20657a69 	rsbcs	r7, r5, r9, ror #20
 800695c:	3e206425 	cdpcc	4, 2, cr6, cr0, cr5, {1}
 8006960:	0a642520 	beq	990fde8 <__exidx_end+0x19091f0>
 8006964:	69725700 	ldmdbvs	r2!, {r8, r9, sl, ip, lr}^
 8006968:	66206574 			; <UNDEFINED> instruction: 0x66206574
 800696c:	776d7269 	strbvc	r7, [sp, -r9, ror #4]!
 8006970:	00657261 	rsbeq	r7, r5, r1, ror #4
 8006974:	73617245 	cmnvc	r1, #1342177284	; 0x50000004
 8006978:	72650065 	rsbvc	r0, r5, #101	; 0x65
 800697c:	3a726f72 	bcc	9ca274c <__exidx_end+0x1c9bb54>
 8006980:	616c6620 	cmnvs	ip, r0, lsr #12
 8006984:	65206873 	strvs	r6, [r0, #-2163]!	; 0xfffff78d
 8006988:	65736172 	ldrbvs	r6, [r3, #-370]!	; 0xfffffe8e
 800698c:	69725700 	ldmdbvs	r2!, {r8, r9, sl, ip, lr}^
 8006990:	676e6974 			; <UNDEFINED> instruction: 0x676e6974
 8006994:	72726500 	rsbsvc	r6, r2, #0, 10
 8006998:	203a726f 	eorscs	r7, sl, pc, ror #4
 800699c:	73616c66 	cmnvc	r1, #26112	; 0x6600
 80069a0:	72772068 	rsbsvc	r2, r7, #104	; 0x68
 80069a4:	00657469 	rsbeq	r7, r5, r9, ror #8
 80069a8:	656e6f44 	strbvs	r6, [lr, #-3908]!	; 0xfffff0bc
 80069ac:	33444700 	movtcc	r4, #18176	; 0x4700
 80069b0:	30344632 	eorscc	r4, r4, r2, lsr r6
 80069b4:	00455237 	subeq	r5, r5, r7, lsr r2
 80069b8:	646e6962 	strbtvs	r6, [lr], #-2402	; 0xfffff69e
 80069bc:	626e7500 	rsbvs	r7, lr, #0, 10
 80069c0:	0a646e69 	beq	992236c <__exidx_end+0x191b774>
 80069c4:	50524100 	subspl	r4, r2, r0, lsl #2
 80069c8:	6f6f6c20 	svcvs	0x006f6c20
 80069cc:	2070756b 	rsbscs	r7, r0, fp, ror #10
 80069d0:	6c696166 	stfvse	f6, [r9], #-408	; 0xfffffe68
 80069d4:	2d206465 	cfstrscs	mvf6, [r0, #-404]!	; 0xfffffe6c
 80069d8:	6564203e 	strbvs	r2, [r4, #-62]!	; 0xffffffc2
 80069dc:	6c756166 	ldfvse	f6, [r5], #-408	; 0xfffffe68
 80069e0:	61672074 	smcvs	29188	; 0x7204
 80069e4:	61776574 	cmnvs	r7, r4, ror r5
 80069e8:	41000a79 	tstmi	r0, r9, ror sl
 80069ec:	6c205052 	stcvs	0, cr5, [r0], #-328	; 0xfffffeb8
 80069f0:	756b6f6f 	strbvc	r6, [fp, #-3951]!	; 0xfffff091
 80069f4:	61662070 	smcvs	25088	; 0x6200
 80069f8:	64656c69 	strbtvs	r6, [r5], #-3177	; 0xfffff397
 80069fc:	6e49000a 	cdpvs	0, 4, cr0, cr9, cr10, {0}
 8006a00:	696c6176 	stmdbvs	ip!, {r1, r2, r4, r5, r6, r8, sp, lr}^
 8006a04:	706f2064 	rsbvc	r2, pc, r4, rrx
 8006a08:	74617265 	strbtvc	r7, [r1], #-613	; 0xfffffd9b
 8006a0c:	006e6f69 	rsbeq	r6, lr, r9, ror #30
 8006a10:	61766e49 	cmnvs	r6, r9, asr #28
 8006a14:	2064696c 	rsbcs	r6, r4, ip, ror #18
 8006a18:	656c6966 	strbvs	r6, [ip, #-2406]!	; 0xfffff69a
 8006a1c:	6d616e20 	stclvs	14, cr6, [r1, #-128]!	; 0xffffff80
 8006a20:	636f0065 	cmnvs	pc, #101	; 0x65
 8006a24:	00746574 	rsbseq	r6, r4, r4, ror r5
 8006a28:	6174656e 	cmnvs	r4, lr, ror #10
 8006a2c:	69696373 	stmdbvs	r9!, {r0, r1, r4, r5, r6, r8, r9, sp, lr}^
 8006a30:	6c694600 	stclvs	6, cr4, [r9], #-0
 8006a34:	6f6e2065 	svcvs	0x006e2065
 8006a38:	6f662074 	svcvs	0x00662074
 8006a3c:	00646e75 	rsbeq	r6, r4, r5, ror lr
 8006a40:	65636341 	strbvs	r6, [r3, #-833]!	; 0xfffffcbf
 8006a44:	76207373 			; <UNDEFINED> instruction: 0x76207373
 8006a48:	616c6f69 	cmnvs	ip, r9, ror #30
 8006a4c:	6e6f6974 			; <UNDEFINED> instruction: 0x6e6f6974
 8006a50:	69725700 	ldmdbvs	r2!, {r8, r9, sl, ip, lr}^
 8006a54:	66206574 			; <UNDEFINED> instruction: 0x66206574
 8006a58:	656c6961 	strbvs	r6, [ip, #-2401]!	; 0xfffff69f
 8006a5c:	00000064 	andeq	r0, r0, r4, rrx

08006a60 <vtable for TFTPDaemon>:
	...
 8006a88:	30687465 	rsbcc	r7, r8, r5, ror #8
 8006a8c:	67696700 	strbvs	r6, [r9, -r0, lsl #14]!
 8006a90:	76656461 	strbtvc	r6, [r5], -r1, ror #8
 8006a94:	5f656369 	svcpl	0x00656369
 8006a98:	74654e00 	strbtvc	r4, [r5], #-3584	; 0xfffff200
 8006a9c:	6b726f77 	blvs	9ca2880 <__exidx_end+0x1c9bc88>
 8006aa0:	4820000a 	stmdami	r0!, {r1, r3}
 8006aa4:	6e74736f 	cdpvs	3, 7, cr7, cr4, cr15, {3}
 8006aa8:	20656d61 	rsbcs	r6, r5, r1, ror #26
 8006aac:	25203a20 	strcs	r3, [r0, #-2592]!	; 0xfffff5e0
 8006ab0:	20000a73 	andcs	r0, r0, r3, ror sl
 8006ab4:	614e6649 	cmpvs	lr, r9, asr #12
 8006ab8:	2020656d 	eorcs	r6, r0, sp, ror #10
 8006abc:	203a2020 	eorscs	r2, sl, r0, lsr #32
 8006ac0:	203a6425 	eorscs	r6, sl, r5, lsr #8
 8006ac4:	000a7325 	andeq	r7, sl, r5, lsr #6
 8006ac8:	656e4920 	strbvs	r4, [lr, #-2336]!	; 0xfffff6e0
 8006acc:	20202074 	eorcs	r2, r0, r4, ror r0
 8006ad0:	3a202020 	bcc	880eb58 <__exidx_end+0x807f60>
 8006ad4:	2e642520 	cdpcs	5, 6, cr2, cr4, cr0, {1}
 8006ad8:	252e6425 	strcs	r6, [lr, #-1061]!	; 0xfffffbdb
 8006adc:	64252e64 	strtvs	r2, [r5], #-3684	; 0xfffff19c
 8006ae0:	0a64252f 	beq	990ffa4 <__exidx_end+0x19093ac>
 8006ae4:	654e2000 	strbvs	r2, [lr, #-0]
 8006ae8:	73616d74 	cmnvc	r1, #116, 26	; 0x1d00
 8006aec:	2020206b 	eorcs	r2, r0, fp, rrx
 8006af0:	6425203a 	strtvs	r2, [r5], #-58	; 0xffffffc6
 8006af4:	2e64252e 	cdpcs	5, 6, cr2, cr4, cr14, {1}
 8006af8:	252e6425 	strcs	r6, [lr, #-1061]!	; 0xfffffbdb
 8006afc:	20000a64 	andcs	r0, r0, r4, ror #20
 8006b00:	65746147 	ldrbvs	r6, [r4, #-327]!	; 0xfffffeb9
 8006b04:	20796177 	rsbscs	r6, r9, r7, ror r1
 8006b08:	203a2020 	eorscs	r2, sl, r0, lsr #32
 8006b0c:	252e6425 	strcs	r6, [lr, #-1061]!	; 0xfffffbdb
 8006b10:	64252e64 	strtvs	r2, [r5], #-3684	; 0xfffff19c
 8006b14:	0a64252e 	beq	990ffd4 <__exidx_end+0x19093dc>
 8006b18:	72422000 	subvc	r2, r2, #0
 8006b1c:	6364616f 	cmnvs	r4, #-1073741797	; 0xc000001b
 8006b20:	20747361 	rsbscs	r7, r4, r1, ror #6
 8006b24:	6425203a 	strtvs	r2, [r5], #-58	; 0xffffffc6
 8006b28:	2e64252e 	cdpcs	5, 6, cr2, cr4, cr14, {1}
 8006b2c:	252e6425 	strcs	r6, [lr, #-1061]!	; 0xfffffbdb
 8006b30:	20000a64 	andcs	r0, r0, r4, ror #20
 8006b34:	2063614d 	rsbcs	r6, r3, sp, asr #2
 8006b38:	20202020 	eorcs	r2, r0, r0, lsr #32
 8006b3c:	203a2020 	eorscs	r2, sl, r0, lsr #32
 8006b40:	78322e25 	ldmdavc	r2!, {r0, r2, r5, r9, sl, fp, sp}
 8006b44:	322e253a 	eorcc	r2, lr, #243269632	; 0xe800000
 8006b48:	2e253a78 			; <UNDEFINED> instruction: 0x2e253a78
 8006b4c:	253a7832 	ldrcs	r7, [sl, #-2098]!	; 0xfffff7ce
 8006b50:	3a78322e 	bcc	9e13410 <__exidx_end+0x1e0c818>
 8006b54:	78322e25 	ldmdavc	r2!, {r0, r2, r5, r9, sl, fp, sp}
 8006b58:	322e253a 	eorcc	r2, lr, #243269632	; 0xe800000
 8006b5c:	20000a78 	andcs	r0, r0, r8, ror sl
 8006b60:	65646f4d 	strbvs	r6, [r4, #-3917]!	; 0xfffff0b3
 8006b64:	20202020 	eorcs	r2, r0, r0, lsr #32
 8006b68:	203a2020 	eorscs	r2, sl, r0, lsr #32
 8006b6c:	000a6325 	andeq	r6, sl, r5, lsr #6
 8006b70:	37335b1b 			; <UNDEFINED> instruction: 0x37335b1b
 8006b74:	5b1b006d 	blpl	86c6d30 <__exidx_end+0x6c0138>
 8006b78:	006d3034 	rsbeq	r3, sp, r4, lsr r0
 8006b7c:	30335b1b 	eorscc	r5, r3, fp, lsl fp
 8006b80:	5b1b006d 	blpl	86c6d3c <__exidx_end+0x6c0144>
 8006b84:	006d3133 	rsbeq	r3, sp, r3, lsr r1
 8006b88:	32335b1b 	eorscc	r5, r3, #27648	; 0x6c00
 8006b8c:	5b1b006d 	blpl	86c6d48 <__exidx_end+0x6c0150>
 8006b90:	006d3333 	rsbeq	r3, sp, r3, lsr r3
 8006b94:	39335b1b 	ldmdbcc	r3!, {r0, r1, r3, r4, r8, r9, fp, ip, lr}
 8006b98:	565b006d 	ldrbpl	r0, [fp], -sp, rrx
 8006b9c:	732a2e25 			; <UNDEFINED> instruction: 0x732a2e25
 8006ba0:	7325205d 			; <UNDEFINED> instruction: 0x7325205d
 8006ba4:	6d6f4320 	stclvs	3, cr4, [pc, #-128]!	; 8006b2c <vtable for TFTPDaemon+0xcc>
 8006ba8:	656c6970 	strbvs	r6, [ip, #-2416]!	; 0xfffff690
 8006bac:	6e6f2064 	cdpvs	0, 6, cr2, cr15, cr4, {3}
 8006bb0:	2a2e2520 	bcs	8b90038 <__exidx_end+0xb89440>
 8006bb4:	74612073 	strbtvc	r2, [r1], #-115	; 0xffffff8d
 8006bb8:	2a2e2520 	bcs	8b90040 <__exidx_end+0xb89448>
 8006bbc:	00000073 	andeq	r0, r0, r3, ror r0

08006bc0 <days_of_month>:
 8006bc0:	0000001f 	andeq	r0, r0, pc, lsl r0
 8006bc4:	0000001c 	andeq	r0, r0, ip, lsl r0
 8006bc8:	0000001f 	andeq	r0, r0, pc, lsl r0
 8006bcc:	0000001e 	andeq	r0, r0, lr, lsl r0
 8006bd0:	0000001f 	andeq	r0, r0, pc, lsl r0
 8006bd4:	0000001e 	andeq	r0, r0, lr, lsl r0
 8006bd8:	0000001f 	andeq	r0, r0, pc, lsl r0
 8006bdc:	0000001f 	andeq	r0, r0, pc, lsl r0
 8006be0:	0000001e 	andeq	r0, r0, lr, lsl r0
 8006be4:	0000001f 	andeq	r0, r0, pc, lsl r0
 8006be8:	0000001e 	andeq	r0, r0, lr, lsl r0
 8006bec:	0000001f 	andeq	r0, r0, pc, lsl r0

Disassembly of section .ARM:

08006bf0 <__exidx_start>:
 8006bf0:	7fffa418 	svcvc	0x00ffa418
 8006bf4:	00000001 	andeq	r0, r0, r1

Disassembly of section .ARM.attributes:

08006bf8 <.ARM.attributes>:
 8006bf8:	00003241 	andeq	r3, r0, r1, asr #4
 8006bfc:	61656100 	cmnvs	r5, r0, lsl #2
 8006c00:	01006962 	tsteq	r0, r2, ror #18
 8006c04:	00000028 	andeq	r0, r0, r8, lsr #32
 8006c08:	726f4305 	rsbvc	r4, pc, #335544320	; 0x14000000
 8006c0c:	2d786574 	cfldr64cs	mvdx6, [r8, #-464]!	; 0xfffffe30
 8006c10:	0600344d 	streq	r3, [r0], -sp, asr #8
 8006c14:	094d070d 	stmdbeq	sp, {r0, r2, r3, r8, r9, sl}^
 8006c18:	12060a02 	andne	r0, r6, #8192	; 0x2000
 8006c1c:	15011404 	strne	r1, [r1, #-1028]	; 0xfffffbfc
 8006c20:	18031701 	stmdane	r3, {r0, r8, r9, sl, ip}
 8006c24:	1b011a01 	blne	804d430 <__exidx_end+0x46838>
 8006c28:	Address 0x0000000008006c28 is out of bounds.


Disassembly of section .data:

20000000 <s_multicast_mac>:
20000000:	005e0001 	subseq	r0, lr, r1
20000004:	00000000 	andeq	r0, r0, r0

20000008 <next_block>:
20000008:	20005400 	andcs	r5, r0, r0, lsl #8

2000000c <s_block_bucket>:
2000000c:	00000020 	andeq	r0, r0, r0, lsr #32
20000010:	00000000 	andeq	r0, r0, r0
20000014:	00000040 	andeq	r0, r0, r0, asr #32
20000018:	00000000 	andeq	r0, r0, r0
2000001c:	00000060 	andeq	r0, r0, r0, rrx
20000020:	00000000 	andeq	r0, r0, r0
20000024:	00000080 	andeq	r0, r0, r0, lsl #1
20000028:	00000000 	andeq	r0, r0, r0
2000002c:	00000100 	andeq	r0, r0, r0, lsl #2
20000030:	00000000 	andeq	r0, r0, r0
20000034:	00000140 	andeq	r0, r0, r0, asr #2
20000038:	00000000 	andeq	r0, r0, r0
2000003c:	00000180 	andeq	r0, r0, r0, lsl #3
20000040:	00000000 	andeq	r0, r0, r0
20000044:	00000200 	andeq	r0, r0, r0, lsl #4
20000048:	00000000 	andeq	r0, r0, r0
2000004c:	00000300 	andeq	r0, r0, r0, lsl #6
20000050:	00000000 	andeq	r0, r0, r0
20000054:	00000400 	andeq	r0, r0, r0, lsl #8
20000058:	00000000 	andeq	r0, r0, r0
2000005c:	0001a800 	andeq	sl, r1, r0, lsl #16
	...

2000006c <SystemCoreClock>:
2000006c:	0a037a00 	beq	200de874 <_eramadd+0xae874>

Disassembly of section .bss:

20000070 <outptr>:
20000070:	00000000 	andeq	r0, r0, r0

20000074 <Display::s_pThis>:
20000074:	00000000 	andeq	r0, r0, r0

20000078 <_ClearBuffer>:
	...

20000100 <Ssd1306::s_pThis>:
20000100:	00000000 	andeq	r0, r0, r0

20000104 <SpiFlashStore::s_SpiFlashData>:
	...

20001104 <SpiFlashStore::s_nStartAddress>:
20001104:	00000000 	andeq	r0, r0, r0

20001108 <SpiFlashStore::s_bHaveFlashChip>:
20001108:	00000000 	andeq	r0, r0, r0

2000110c <SpiFlashStore::s_nSpiFlashStoreSize>:
2000110c:	00000000 	andeq	r0, r0, r0

20001110 <SpiFlashStore::s_State>:
20001110:	00000000 	andeq	r0, r0, r0

20001114 <SpiFlashStore::s_pThis>:
20001114:	00000000 	andeq	r0, r0, r0

20001118 <SpiFlashStore::s_bIsNew>:
20001118:	00000000 	andeq	r0, r0, r0

2000111c <StoreNetwork::s_pThis>:
2000111c:	00000000 	andeq	r0, r0, r0

20001120 <StoreRemoteConfig::s_pThis>:
20001120:	00000000 	andeq	r0, r0, r0

20001124 <RemoteConfig::s_pUdpBuffer>:
20001124:	00000000 	andeq	r0, r0, r0

20001128 <RemoteConfig::s_RemoteConfigListBin>:
	...

2000114c <RemoteConfig::s_pThis>:
2000114c:	00000000 	andeq	r0, r0, r0

20001150 <SpiFlashInstall::s_pThis>:
20001150:	00000000 	andeq	r0, r0, r0

20001154 <g_ip_info>:
	...

20001160 <g_mac_address>:
20001160:	00000000 	andeq	r0, r0, r0
	...

20001166 <s_is_dhcp>:
	...

20001168 <s_p>:
20001168:	00000000 	andeq	r0, r0, r0

2000116c <s_ticker>:
2000116c:	00000000 	andeq	r0, r0, r0

20001170 <s_mac_address>:
	...

20001178 <s_mac_address_arp_reply>:
	...

20001180 <broadcast_mask>:
20001180:	00000000 	andeq	r0, r0, r0

20001184 <gw_ip>:
20001184:	00000000 	andeq	r0, r0, r0

20001188 <on_network_mask>:
20001188:	00000000 	andeq	r0, r0, r0

2000118c <s_id>:
2000118c:	00000000 	andeq	r0, r0, r0

20001190 <s_ports_allowed>:
	...

20001198 <s_recv_queue>:
	...

200028c0 <s_send_packet>:
	...

20002eac <TFTPDaemon::s_pThis>:
20002eac:	00000000 	andeq	r0, r0, r0

20002eb0 <Network::s_pThis>:
20002eb0:	00000000 	andeq	r0, r0, r0

20002eb4 <s_arp_announce>:
	...

20002ee0 <s_arp_reply>:
	...

20002f0c <s_arp_request>:
	...

20002f38 <s_dhcp_allocated_gw>:
20002f38:	00000000 	andeq	r0, r0, r0

20002f3c <s_dhcp_allocated_ip>:
20002f3c:	00000000 	andeq	r0, r0, r0

20002f40 <s_dhcp_allocated_netmask>:
20002f40:	00000000 	andeq	r0, r0, r0

20002f44 <s_dhcp_message>:
	...

20003168 <s_dhcp_server_ip>:
20003168:	00000000 	andeq	r0, r0, r0

2000316c <FirmwareVersion::s_FirmwareVersion>:
	...

20003182 <FirmwareVersion::s_Print>:
	...

200031c4 <FirmwareVersion::s_pThis>:
200031c4:	00000000 	andeq	r0, r0, r0

200031c8 <LedBlink::s_pThis>:
200031c8:	00000000 	andeq	r0, r0, r0

200031cc <Hardware::s_pThis>:
200031cc:	00000000 	andeq	r0, r0, r0

200031d0 <s_micros>:
	...

200031d8 <set_timer>:
200031d8:	00000000 	andeq	r0, r0, r0

200031dc <s_nSysTickMillis>:
200031dc:	00000000 	andeq	r0, r0, r0

200031e0 <s_nAddress>:
200031e0:	00000000 	andeq	r0, r0, r0

200031e4 <dma_current_ptp_rxdesc>:
200031e4:	00000000 	andeq	r0, r0, r0

200031e8 <dma_current_ptp_txdesc>:
200031e8:	00000000 	andeq	r0, r0, r0

200031ec <dma_current_rxdesc>:
200031ec:	00000000 	andeq	r0, r0, r0

200031f0 <dma_current_txdesc>:
200031f0:	00000000 	andeq	r0, r0, r0

200031f4 <enet_initpara>:
	...

20003230 <rx_buff>:
	...

20003e18 <rxdesc_tab>:
	...

20003e38 <tx_buff>:
	...

2000442c <txdesc_tab>:
	...

Disassembly of section .heap:

20005400 <heap_low>:
	...

Disassembly of section .tcmsram:

10000000 <s_tcp>:
	...

100005ec <s_id>:
100005ec:	00000000 	andeq	r0, r0, r0

100005f0 <s_tcb>:
	...

10000634 <s_recv_queue>:
	...

100011a4 <s_entry_current>:
100011a4:	00000000 	andeq	r0, r0, r0

100011a8 <s_arp_records>:
	...

10001328 <s_multicast_mac>:
	...

10001330 <s_report>:
	...

10001360 <s_id>:
10001360:	00000000 	andeq	r0, r0, r0

10001364 <s_leave>:
	...

10001394 <s_groups>:
	...

1000139c <s_joins_allowed_index>:
1000139c:	00000000 	andeq	r0, r0, r0

Disassembly of section .stack:

1000fc00 <_sp-0x400>:
	...
